
Bai8_ESP_Wifi.elf:     file format elf32-littlearm

Sections:
Idx Name          Size      VMA       LMA       File off  Algn
  0 .isr_vector   00000188  08000000  08000000  00001000  2**0
                  CONTENTS, ALLOC, LOAD, READONLY, DATA
  1 .text         000081b0  08000190  08000190  00001190  2**4
                  CONTENTS, ALLOC, LOAD, READONLY, CODE
  2 .rodata       0000309c  08008340  08008340  00009340  2**2
                  CONTENTS, ALLOC, LOAD, READONLY, DATA
  3 .ARM.extab    00000000  0800b3dc  0800b3dc  0000d070  2**0
                  CONTENTS
  4 .ARM          00000008  0800b3dc  0800b3dc  0000c3dc  2**2
                  CONTENTS, ALLOC, LOAD, READONLY, DATA
  5 .preinit_array 00000000  0800b3e4  0800b3e4  0000d070  2**0
                  CONTENTS, ALLOC, LOAD, DATA
  6 .init_array   00000004  0800b3e4  0800b3e4  0000c3e4  2**2
                  CONTENTS, ALLOC, LOAD, DATA
  7 .fini_array   00000004  0800b3e8  0800b3e8  0000c3e8  2**2
                  CONTENTS, ALLOC, LOAD, DATA
  8 .data         00000070  20000000  0800b3ec  0000d000  2**2
                  CONTENTS, ALLOC, LOAD, DATA
  9 .ccmram       00000000  10000000  10000000  0000d070  2**0
                  CONTENTS
 10 .bss          000004a4  20000070  20000070  0000d070  2**2
                  ALLOC
 11 ._user_heap_stack 00000604  20000514  20000514  0000d070  2**0
                  ALLOC
 12 .ARM.attributes 00000030  00000000  00000000  0000d070  2**0
                  CONTENTS, READONLY
 13 .debug_info   00019a64  00000000  00000000  0000d0a0  2**0
                  CONTENTS, READONLY, DEBUGGING, OCTETS
 14 .debug_abbrev 000044ca  00000000  00000000  00026b04  2**0
                  CONTENTS, READONLY, DEBUGGING, OCTETS
 15 .debug_aranges 00001768  00000000  00000000  0002afd0  2**3
                  CONTENTS, READONLY, DEBUGGING, OCTETS
 16 .debug_rnglists 0000122e  00000000  00000000  0002c738  2**0
                  CONTENTS, READONLY, DEBUGGING, OCTETS
 17 .debug_macro  00027337  00000000  00000000  0002d966  2**0
                  CONTENTS, READONLY, DEBUGGING, OCTETS
 18 .debug_line   00020ded  00000000  00000000  00054c9d  2**0
                  CONTENTS, READONLY, DEBUGGING, OCTETS
 19 .debug_str    000e1499  00000000  00000000  00075a8a  2**0
                  CONTENTS, READONLY, DEBUGGING, OCTETS
 20 .comment      00000043  00000000  00000000  00156f23  2**0
                  CONTENTS, READONLY
 21 .debug_frame  00006ba8  00000000  00000000  00156f68  2**2
                  CONTENTS, READONLY, DEBUGGING, OCTETS
 22 .debug_line_str 0000009b  00000000  00000000  0015db10  2**0
                  CONTENTS, READONLY, DEBUGGING, OCTETS

Disassembly of section .text:

08000190 <__do_global_dtors_aux>:
 8000190:	b510      	push	{r4, lr}
 8000192:	4c05      	ldr	r4, [pc, #20]	@ (80001a8 <__do_global_dtors_aux+0x18>)
 8000194:	7823      	ldrb	r3, [r4, #0]
 8000196:	b933      	cbnz	r3, 80001a6 <__do_global_dtors_aux+0x16>
 8000198:	4b04      	ldr	r3, [pc, #16]	@ (80001ac <__do_global_dtors_aux+0x1c>)
 800019a:	b113      	cbz	r3, 80001a2 <__do_global_dtors_aux+0x12>
 800019c:	4804      	ldr	r0, [pc, #16]	@ (80001b0 <__do_global_dtors_aux+0x20>)
 800019e:	f3af 8000 	nop.w
 80001a2:	2301      	movs	r3, #1
 80001a4:	7023      	strb	r3, [r4, #0]
 80001a6:	bd10      	pop	{r4, pc}
 80001a8:	20000070 	.word	0x20000070
 80001ac:	00000000 	.word	0x00000000
 80001b0:	08008328 	.word	0x08008328

080001b4 <frame_dummy>:
 80001b4:	b508      	push	{r3, lr}
 80001b6:	4b03      	ldr	r3, [pc, #12]	@ (80001c4 <frame_dummy+0x10>)
 80001b8:	b11b      	cbz	r3, 80001c2 <frame_dummy+0xe>
 80001ba:	4903      	ldr	r1, [pc, #12]	@ (80001c8 <frame_dummy+0x14>)
 80001bc:	4803      	ldr	r0, [pc, #12]	@ (80001cc <frame_dummy+0x18>)
 80001be:	f3af 8000 	nop.w
 80001c2:	bd08      	pop	{r3, pc}
 80001c4:	00000000 	.word	0x00000000
 80001c8:	20000074 	.word	0x20000074
 80001cc:	08008328 	.word	0x08008328

080001d0 <strlen>:
 80001d0:	4603      	mov	r3, r0
 80001d2:	f813 2b01 	ldrb.w	r2, [r3], #1
 80001d6:	2a00      	cmp	r2, #0
 80001d8:	d1fb      	bne.n	80001d2 <strlen+0x2>
 80001da:	1a18      	subs	r0, r3, r0
 80001dc:	3801      	subs	r0, #1
 80001de:	4770      	bx	lr

080001e0 <memchr>:
 80001e0:	f001 01ff 	and.w	r1, r1, #255	@ 0xff
 80001e4:	2a10      	cmp	r2, #16
 80001e6:	db2b      	blt.n	8000240 <memchr+0x60>
 80001e8:	f010 0f07 	tst.w	r0, #7
 80001ec:	d008      	beq.n	8000200 <memchr+0x20>
 80001ee:	f810 3b01 	ldrb.w	r3, [r0], #1
 80001f2:	3a01      	subs	r2, #1
 80001f4:	428b      	cmp	r3, r1
 80001f6:	d02d      	beq.n	8000254 <memchr+0x74>
 80001f8:	f010 0f07 	tst.w	r0, #7
 80001fc:	b342      	cbz	r2, 8000250 <memchr+0x70>
 80001fe:	d1f6      	bne.n	80001ee <memchr+0xe>
 8000200:	b4f0      	push	{r4, r5, r6, r7}
 8000202:	ea41 2101 	orr.w	r1, r1, r1, lsl #8
 8000206:	ea41 4101 	orr.w	r1, r1, r1, lsl #16
 800020a:	f022 0407 	bic.w	r4, r2, #7
 800020e:	f07f 0700 	mvns.w	r7, #0
 8000212:	2300      	movs	r3, #0
 8000214:	e8f0 5602 	ldrd	r5, r6, [r0], #8
 8000218:	3c08      	subs	r4, #8
 800021a:	ea85 0501 	eor.w	r5, r5, r1
 800021e:	ea86 0601 	eor.w	r6, r6, r1
 8000222:	fa85 f547 	uadd8	r5, r5, r7
 8000226:	faa3 f587 	sel	r5, r3, r7
 800022a:	fa86 f647 	uadd8	r6, r6, r7
 800022e:	faa5 f687 	sel	r6, r5, r7
 8000232:	b98e      	cbnz	r6, 8000258 <memchr+0x78>
 8000234:	d1ee      	bne.n	8000214 <memchr+0x34>
 8000236:	bcf0      	pop	{r4, r5, r6, r7}
 8000238:	f001 01ff 	and.w	r1, r1, #255	@ 0xff
 800023c:	f002 0207 	and.w	r2, r2, #7
 8000240:	b132      	cbz	r2, 8000250 <memchr+0x70>
 8000242:	f810 3b01 	ldrb.w	r3, [r0], #1
 8000246:	3a01      	subs	r2, #1
 8000248:	ea83 0301 	eor.w	r3, r3, r1
 800024c:	b113      	cbz	r3, 8000254 <memchr+0x74>
 800024e:	d1f8      	bne.n	8000242 <memchr+0x62>
 8000250:	2000      	movs	r0, #0
 8000252:	4770      	bx	lr
 8000254:	3801      	subs	r0, #1
 8000256:	4770      	bx	lr
 8000258:	2d00      	cmp	r5, #0
 800025a:	bf06      	itte	eq
 800025c:	4635      	moveq	r5, r6
 800025e:	3803      	subeq	r0, #3
 8000260:	3807      	subne	r0, #7
 8000262:	f015 0f01 	tst.w	r5, #1
 8000266:	d107      	bne.n	8000278 <memchr+0x98>
 8000268:	3001      	adds	r0, #1
 800026a:	f415 7f80 	tst.w	r5, #256	@ 0x100
 800026e:	bf02      	ittt	eq
 8000270:	3001      	addeq	r0, #1
 8000272:	f415 3fc0 	tsteq.w	r5, #98304	@ 0x18000
 8000276:	3001      	addeq	r0, #1
 8000278:	bcf0      	pop	{r4, r5, r6, r7}
 800027a:	3801      	subs	r0, #1
 800027c:	4770      	bx	lr
 800027e:	bf00      	nop

08000280 <__aeabi_uldivmod>:
 8000280:	b953      	cbnz	r3, 8000298 <__aeabi_uldivmod+0x18>
 8000282:	b94a      	cbnz	r2, 8000298 <__aeabi_uldivmod+0x18>
 8000284:	2900      	cmp	r1, #0
 8000286:	bf08      	it	eq
 8000288:	2800      	cmpeq	r0, #0
 800028a:	bf1c      	itt	ne
 800028c:	f04f 31ff 	movne.w	r1, #4294967295
 8000290:	f04f 30ff 	movne.w	r0, #4294967295
 8000294:	f000 b96a 	b.w	800056c <__aeabi_idiv0>
 8000298:	f1ad 0c08 	sub.w	ip, sp, #8
 800029c:	e96d ce04 	strd	ip, lr, [sp, #-16]!
 80002a0:	f000 f806 	bl	80002b0 <__udivmoddi4>
 80002a4:	f8dd e004 	ldr.w	lr, [sp, #4]
 80002a8:	e9dd 2302 	ldrd	r2, r3, [sp, #8]
 80002ac:	b004      	add	sp, #16
 80002ae:	4770      	bx	lr

080002b0 <__udivmoddi4>:
 80002b0:	e92d 47f0 	stmdb	sp!, {r4, r5, r6, r7, r8, r9, sl, lr}
 80002b4:	9d08      	ldr	r5, [sp, #32]
 80002b6:	460c      	mov	r4, r1
 80002b8:	2b00      	cmp	r3, #0
 80002ba:	d14e      	bne.n	800035a <__udivmoddi4+0xaa>
 80002bc:	4694      	mov	ip, r2
 80002be:	458c      	cmp	ip, r1
 80002c0:	4686      	mov	lr, r0
 80002c2:	fab2 f282 	clz	r2, r2
 80002c6:	d962      	bls.n	800038e <__udivmoddi4+0xde>
 80002c8:	b14a      	cbz	r2, 80002de <__udivmoddi4+0x2e>
 80002ca:	f1c2 0320 	rsb	r3, r2, #32
 80002ce:	4091      	lsls	r1, r2
 80002d0:	fa20 f303 	lsr.w	r3, r0, r3
 80002d4:	fa0c fc02 	lsl.w	ip, ip, r2
 80002d8:	4319      	orrs	r1, r3
 80002da:	fa00 fe02 	lsl.w	lr, r0, r2
 80002de:	ea4f 471c 	mov.w	r7, ip, lsr #16
 80002e2:	fa1f f68c 	uxth.w	r6, ip
 80002e6:	fbb1 f4f7 	udiv	r4, r1, r7
 80002ea:	ea4f 431e 	mov.w	r3, lr, lsr #16
 80002ee:	fb07 1114 	mls	r1, r7, r4, r1
 80002f2:	ea43 4301 	orr.w	r3, r3, r1, lsl #16
 80002f6:	fb04 f106 	mul.w	r1, r4, r6
 80002fa:	4299      	cmp	r1, r3
 80002fc:	d90a      	bls.n	8000314 <__udivmoddi4+0x64>
 80002fe:	eb1c 0303 	adds.w	r3, ip, r3
 8000302:	f104 30ff 	add.w	r0, r4, #4294967295
 8000306:	f080 8112 	bcs.w	800052e <__udivmoddi4+0x27e>
 800030a:	4299      	cmp	r1, r3
 800030c:	f240 810f 	bls.w	800052e <__udivmoddi4+0x27e>
 8000310:	3c02      	subs	r4, #2
 8000312:	4463      	add	r3, ip
 8000314:	1a59      	subs	r1, r3, r1
 8000316:	fa1f f38e 	uxth.w	r3, lr
 800031a:	fbb1 f0f7 	udiv	r0, r1, r7
 800031e:	fb07 1110 	mls	r1, r7, r0, r1
 8000322:	ea43 4301 	orr.w	r3, r3, r1, lsl #16
 8000326:	fb00 f606 	mul.w	r6, r0, r6
 800032a:	429e      	cmp	r6, r3
 800032c:	d90a      	bls.n	8000344 <__udivmoddi4+0x94>
 800032e:	eb1c 0303 	adds.w	r3, ip, r3
 8000332:	f100 31ff 	add.w	r1, r0, #4294967295
 8000336:	f080 80fc 	bcs.w	8000532 <__udivmoddi4+0x282>
 800033a:	429e      	cmp	r6, r3
 800033c:	f240 80f9 	bls.w	8000532 <__udivmoddi4+0x282>
 8000340:	4463      	add	r3, ip
 8000342:	3802      	subs	r0, #2
 8000344:	1b9b      	subs	r3, r3, r6
 8000346:	ea40 4004 	orr.w	r0, r0, r4, lsl #16
 800034a:	2100      	movs	r1, #0
 800034c:	b11d      	cbz	r5, 8000356 <__udivmoddi4+0xa6>
 800034e:	40d3      	lsrs	r3, r2
 8000350:	2200      	movs	r2, #0
 8000352:	e9c5 3200 	strd	r3, r2, [r5]
 8000356:	e8bd 87f0 	ldmia.w	sp!, {r4, r5, r6, r7, r8, r9, sl, pc}
 800035a:	428b      	cmp	r3, r1
 800035c:	d905      	bls.n	800036a <__udivmoddi4+0xba>
 800035e:	b10d      	cbz	r5, 8000364 <__udivmoddi4+0xb4>
 8000360:	e9c5 0100 	strd	r0, r1, [r5]
 8000364:	2100      	movs	r1, #0
 8000366:	4608      	mov	r0, r1
 8000368:	e7f5      	b.n	8000356 <__udivmoddi4+0xa6>
 800036a:	fab3 f183 	clz	r1, r3
 800036e:	2900      	cmp	r1, #0
 8000370:	d146      	bne.n	8000400 <__udivmoddi4+0x150>
 8000372:	42a3      	cmp	r3, r4
 8000374:	d302      	bcc.n	800037c <__udivmoddi4+0xcc>
 8000376:	4290      	cmp	r0, r2
 8000378:	f0c0 80f0 	bcc.w	800055c <__udivmoddi4+0x2ac>
 800037c:	1a86      	subs	r6, r0, r2
 800037e:	eb64 0303 	sbc.w	r3, r4, r3
 8000382:	2001      	movs	r0, #1
 8000384:	2d00      	cmp	r5, #0
 8000386:	d0e6      	beq.n	8000356 <__udivmoddi4+0xa6>
 8000388:	e9c5 6300 	strd	r6, r3, [r5]
 800038c:	e7e3      	b.n	8000356 <__udivmoddi4+0xa6>
 800038e:	2a00      	cmp	r2, #0
 8000390:	f040 8090 	bne.w	80004b4 <__udivmoddi4+0x204>
 8000394:	eba1 040c 	sub.w	r4, r1, ip
 8000398:	ea4f 481c 	mov.w	r8, ip, lsr #16
 800039c:	fa1f f78c 	uxth.w	r7, ip
 80003a0:	2101      	movs	r1, #1
 80003a2:	fbb4 f6f8 	udiv	r6, r4, r8
 80003a6:	ea4f 431e 	mov.w	r3, lr, lsr #16
 80003aa:	fb08 4416 	mls	r4, r8, r6, r4
 80003ae:	ea43 4304 	orr.w	r3, r3, r4, lsl #16
 80003b2:	fb07 f006 	mul.w	r0, r7, r6
 80003b6:	4298      	cmp	r0, r3
 80003b8:	d908      	bls.n	80003cc <__udivmoddi4+0x11c>
 80003ba:	eb1c 0303 	adds.w	r3, ip, r3
 80003be:	f106 34ff 	add.w	r4, r6, #4294967295
 80003c2:	d202      	bcs.n	80003ca <__udivmoddi4+0x11a>
 80003c4:	4298      	cmp	r0, r3
 80003c6:	f200 80cd 	bhi.w	8000564 <__udivmoddi4+0x2b4>
 80003ca:	4626      	mov	r6, r4
 80003cc:	1a1c      	subs	r4, r3, r0
 80003ce:	fa1f f38e 	uxth.w	r3, lr
 80003d2:	fbb4 f0f8 	udiv	r0, r4, r8
 80003d6:	fb08 4410 	mls	r4, r8, r0, r4
 80003da:	ea43 4304 	orr.w	r3, r3, r4, lsl #16
 80003de:	fb00 f707 	mul.w	r7, r0, r7
 80003e2:	429f      	cmp	r7, r3
 80003e4:	d908      	bls.n	80003f8 <__udivmoddi4+0x148>
 80003e6:	eb1c 0303 	adds.w	r3, ip, r3
 80003ea:	f100 34ff 	add.w	r4, r0, #4294967295
 80003ee:	d202      	bcs.n	80003f6 <__udivmoddi4+0x146>
 80003f0:	429f      	cmp	r7, r3
 80003f2:	f200 80b0 	bhi.w	8000556 <__udivmoddi4+0x2a6>
 80003f6:	4620      	mov	r0, r4
 80003f8:	1bdb      	subs	r3, r3, r7
 80003fa:	ea40 4006 	orr.w	r0, r0, r6, lsl #16
 80003fe:	e7a5      	b.n	800034c <__udivmoddi4+0x9c>
 8000400:	f1c1 0620 	rsb	r6, r1, #32
 8000404:	408b      	lsls	r3, r1
 8000406:	fa22 f706 	lsr.w	r7, r2, r6
 800040a:	431f      	orrs	r7, r3
 800040c:	fa20 fc06 	lsr.w	ip, r0, r6
 8000410:	fa04 f301 	lsl.w	r3, r4, r1
 8000414:	ea43 030c 	orr.w	r3, r3, ip
 8000418:	40f4      	lsrs	r4, r6
 800041a:	fa00 f801 	lsl.w	r8, r0, r1
 800041e:	0c38      	lsrs	r0, r7, #16
 8000420:	ea4f 4913 	mov.w	r9, r3, lsr #16
 8000424:	fbb4 fef0 	udiv	lr, r4, r0
 8000428:	fa1f fc87 	uxth.w	ip, r7
 800042c:	fb00 441e 	mls	r4, r0, lr, r4
 8000430:	ea49 4404 	orr.w	r4, r9, r4, lsl #16
 8000434:	fb0e f90c 	mul.w	r9, lr, ip
 8000438:	45a1      	cmp	r9, r4
 800043a:	fa02 f201 	lsl.w	r2, r2, r1
 800043e:	d90a      	bls.n	8000456 <__udivmoddi4+0x1a6>
 8000440:	193c      	adds	r4, r7, r4
 8000442:	f10e 3aff 	add.w	sl, lr, #4294967295
 8000446:	f080 8084 	bcs.w	8000552 <__udivmoddi4+0x2a2>
 800044a:	45a1      	cmp	r9, r4
 800044c:	f240 8081 	bls.w	8000552 <__udivmoddi4+0x2a2>
 8000450:	f1ae 0e02 	sub.w	lr, lr, #2
 8000454:	443c      	add	r4, r7
 8000456:	eba4 0409 	sub.w	r4, r4, r9
 800045a:	fa1f f983 	uxth.w	r9, r3
 800045e:	fbb4 f3f0 	udiv	r3, r4, r0
 8000462:	fb00 4413 	mls	r4, r0, r3, r4
 8000466:	ea49 4404 	orr.w	r4, r9, r4, lsl #16
 800046a:	fb03 fc0c 	mul.w	ip, r3, ip
 800046e:	45a4      	cmp	ip, r4
 8000470:	d907      	bls.n	8000482 <__udivmoddi4+0x1d2>
 8000472:	193c      	adds	r4, r7, r4
 8000474:	f103 30ff 	add.w	r0, r3, #4294967295
 8000478:	d267      	bcs.n	800054a <__udivmoddi4+0x29a>
 800047a:	45a4      	cmp	ip, r4
 800047c:	d965      	bls.n	800054a <__udivmoddi4+0x29a>
 800047e:	3b02      	subs	r3, #2
 8000480:	443c      	add	r4, r7
 8000482:	ea43 400e 	orr.w	r0, r3, lr, lsl #16
 8000486:	fba0 9302 	umull	r9, r3, r0, r2
 800048a:	eba4 040c 	sub.w	r4, r4, ip
 800048e:	429c      	cmp	r4, r3
 8000490:	46ce      	mov	lr, r9
 8000492:	469c      	mov	ip, r3
 8000494:	d351      	bcc.n	800053a <__udivmoddi4+0x28a>
 8000496:	d04e      	beq.n	8000536 <__udivmoddi4+0x286>
 8000498:	b155      	cbz	r5, 80004b0 <__udivmoddi4+0x200>
 800049a:	ebb8 030e 	subs.w	r3, r8, lr
 800049e:	eb64 040c 	sbc.w	r4, r4, ip
 80004a2:	fa04 f606 	lsl.w	r6, r4, r6
 80004a6:	40cb      	lsrs	r3, r1
 80004a8:	431e      	orrs	r6, r3
 80004aa:	40cc      	lsrs	r4, r1
 80004ac:	e9c5 6400 	strd	r6, r4, [r5]
 80004b0:	2100      	movs	r1, #0
 80004b2:	e750      	b.n	8000356 <__udivmoddi4+0xa6>
 80004b4:	f1c2 0320 	rsb	r3, r2, #32
 80004b8:	fa20 f103 	lsr.w	r1, r0, r3
 80004bc:	fa0c fc02 	lsl.w	ip, ip, r2
 80004c0:	fa24 f303 	lsr.w	r3, r4, r3
 80004c4:	4094      	lsls	r4, r2
 80004c6:	430c      	orrs	r4, r1
 80004c8:	ea4f 481c 	mov.w	r8, ip, lsr #16
 80004cc:	fa00 fe02 	lsl.w	lr, r0, r2
 80004d0:	fa1f f78c 	uxth.w	r7, ip
 80004d4:	fbb3 f0f8 	udiv	r0, r3, r8
 80004d8:	fb08 3110 	mls	r1, r8, r0, r3
 80004dc:	0c23      	lsrs	r3, r4, #16
 80004de:	ea43 4301 	orr.w	r3, r3, r1, lsl #16
 80004e2:	fb00 f107 	mul.w	r1, r0, r7
 80004e6:	4299      	cmp	r1, r3
 80004e8:	d908      	bls.n	80004fc <__udivmoddi4+0x24c>
 80004ea:	eb1c 0303 	adds.w	r3, ip, r3
 80004ee:	f100 36ff 	add.w	r6, r0, #4294967295
 80004f2:	d22c      	bcs.n	800054e <__udivmoddi4+0x29e>
 80004f4:	4299      	cmp	r1, r3
 80004f6:	d92a      	bls.n	800054e <__udivmoddi4+0x29e>
 80004f8:	3802      	subs	r0, #2
 80004fa:	4463      	add	r3, ip
 80004fc:	1a5b      	subs	r3, r3, r1
 80004fe:	b2a4      	uxth	r4, r4
 8000500:	fbb3 f1f8 	udiv	r1, r3, r8
 8000504:	fb08 3311 	mls	r3, r8, r1, r3
 8000508:	ea44 4403 	orr.w	r4, r4, r3, lsl #16
 800050c:	fb01 f307 	mul.w	r3, r1, r7
 8000510:	42a3      	cmp	r3, r4
 8000512:	d908      	bls.n	8000526 <__udivmoddi4+0x276>
 8000514:	eb1c 0404 	adds.w	r4, ip, r4
 8000518:	f101 36ff 	add.w	r6, r1, #4294967295
 800051c:	d213      	bcs.n	8000546 <__udivmoddi4+0x296>
 800051e:	42a3      	cmp	r3, r4
 8000520:	d911      	bls.n	8000546 <__udivmoddi4+0x296>
 8000522:	3902      	subs	r1, #2
 8000524:	4464      	add	r4, ip
 8000526:	1ae4      	subs	r4, r4, r3
 8000528:	ea41 4100 	orr.w	r1, r1, r0, lsl #16
 800052c:	e739      	b.n	80003a2 <__udivmoddi4+0xf2>
 800052e:	4604      	mov	r4, r0
 8000530:	e6f0      	b.n	8000314 <__udivmoddi4+0x64>
 8000532:	4608      	mov	r0, r1
 8000534:	e706      	b.n	8000344 <__udivmoddi4+0x94>
 8000536:	45c8      	cmp	r8, r9
 8000538:	d2ae      	bcs.n	8000498 <__udivmoddi4+0x1e8>
 800053a:	ebb9 0e02 	subs.w	lr, r9, r2
 800053e:	eb63 0c07 	sbc.w	ip, r3, r7
 8000542:	3801      	subs	r0, #1
 8000544:	e7a8      	b.n	8000498 <__udivmoddi4+0x1e8>
 8000546:	4631      	mov	r1, r6
 8000548:	e7ed      	b.n	8000526 <__udivmoddi4+0x276>
 800054a:	4603      	mov	r3, r0
 800054c:	e799      	b.n	8000482 <__udivmoddi4+0x1d2>
 800054e:	4630      	mov	r0, r6
 8000550:	e7d4      	b.n	80004fc <__udivmoddi4+0x24c>
 8000552:	46d6      	mov	lr, sl
 8000554:	e77f      	b.n	8000456 <__udivmoddi4+0x1a6>
 8000556:	4463      	add	r3, ip
 8000558:	3802      	subs	r0, #2
 800055a:	e74d      	b.n	80003f8 <__udivmoddi4+0x148>
 800055c:	4606      	mov	r6, r0
 800055e:	4623      	mov	r3, r4
 8000560:	4608      	mov	r0, r1
 8000562:	e70f      	b.n	8000384 <__udivmoddi4+0xd4>
 8000564:	3e02      	subs	r6, #2
 8000566:	4463      	add	r3, ip
 8000568:	e730      	b.n	80003cc <__udivmoddi4+0x11c>
 800056a:	bf00      	nop

0800056c <__aeabi_idiv0>:
 800056c:	4770      	bx	lr
 800056e:	bf00      	nop

08000570 <MX_ADC1_Init>:
 8000570:	b580      	push	{r7, lr}
 8000572:	b084      	sub	sp, #16
 8000574:	af00      	add	r7, sp, #0
 8000576:	463b      	mov	r3, r7
 8000578:	2200      	movs	r2, #0
 800057a:	601a      	str	r2, [r3, #0]
 800057c:	605a      	str	r2, [r3, #4]
 800057e:	609a      	str	r2, [r3, #8]
 8000580:	60da      	str	r2, [r3, #12]
 8000582:	4b3d      	ldr	r3, [pc, #244]	@ (8000678 <MX_ADC1_Init+0x108>)
 8000584:	4a3d      	ldr	r2, [pc, #244]	@ (800067c <MX_ADC1_Init+0x10c>)
 8000586:	601a      	str	r2, [r3, #0]
 8000588:	4b3b      	ldr	r3, [pc, #236]	@ (8000678 <MX_ADC1_Init+0x108>)
 800058a:	2200      	movs	r2, #0
 800058c:	605a      	str	r2, [r3, #4]
 800058e:	4b3a      	ldr	r3, [pc, #232]	@ (8000678 <MX_ADC1_Init+0x108>)
 8000590:	2200      	movs	r2, #0
 8000592:	609a      	str	r2, [r3, #8]
 8000594:	4b38      	ldr	r3, [pc, #224]	@ (8000678 <MX_ADC1_Init+0x108>)
 8000596:	2201      	movs	r2, #1
 8000598:	611a      	str	r2, [r3, #16]
 800059a:	4b37      	ldr	r3, [pc, #220]	@ (8000678 <MX_ADC1_Init+0x108>)
 800059c:	2200      	movs	r2, #0
 800059e:	761a      	strb	r2, [r3, #24]
 80005a0:	4b35      	ldr	r3, [pc, #212]	@ (8000678 <MX_ADC1_Init+0x108>)
 80005a2:	2200      	movs	r2, #0
 80005a4:	f883 2020 	strb.w	r2, [r3, #32]
 80005a8:	4b33      	ldr	r3, [pc, #204]	@ (8000678 <MX_ADC1_Init+0x108>)
 80005aa:	2200      	movs	r2, #0
 80005ac:	62da      	str	r2, [r3, #44]	@ 0x2c
 80005ae:	4b32      	ldr	r3, [pc, #200]	@ (8000678 <MX_ADC1_Init+0x108>)
 80005b0:	4a33      	ldr	r2, [pc, #204]	@ (8000680 <MX_ADC1_Init+0x110>)
 80005b2:	629a      	str	r2, [r3, #40]	@ 0x28
 80005b4:	4b30      	ldr	r3, [pc, #192]	@ (8000678 <MX_ADC1_Init+0x108>)
 80005b6:	2200      	movs	r2, #0
 80005b8:	60da      	str	r2, [r3, #12]
 80005ba:	4b2f      	ldr	r3, [pc, #188]	@ (8000678 <MX_ADC1_Init+0x108>)
 80005bc:	2205      	movs	r2, #5
 80005be:	61da      	str	r2, [r3, #28]
 80005c0:	4b2d      	ldr	r3, [pc, #180]	@ (8000678 <MX_ADC1_Init+0x108>)
 80005c2:	2200      	movs	r2, #0
 80005c4:	f883 2030 	strb.w	r2, [r3, #48]	@ 0x30
 80005c8:	4b2b      	ldr	r3, [pc, #172]	@ (8000678 <MX_ADC1_Init+0x108>)
 80005ca:	2201      	movs	r2, #1
 80005cc:	615a      	str	r2, [r3, #20]
 80005ce:	482a      	ldr	r0, [pc, #168]	@ (8000678 <MX_ADC1_Init+0x108>)
 80005d0:	f001 ffc2 	bl	8002558 <HAL_ADC_Init>
 80005d4:	4603      	mov	r3, r0
 80005d6:	2b00      	cmp	r3, #0
 80005d8:	d001      	beq.n	80005de <MX_ADC1_Init+0x6e>
 80005da:	f001 f950 	bl	800187e <Error_Handler>
 80005de:	2308      	movs	r3, #8
 80005e0:	603b      	str	r3, [r7, #0]
 80005e2:	2301      	movs	r3, #1
 80005e4:	607b      	str	r3, [r7, #4]
 80005e6:	2300      	movs	r3, #0
 80005e8:	60bb      	str	r3, [r7, #8]
 80005ea:	463b      	mov	r3, r7
 80005ec:	4619      	mov	r1, r3
 80005ee:	4822      	ldr	r0, [pc, #136]	@ (8000678 <MX_ADC1_Init+0x108>)
 80005f0:	f002 f924 	bl	800283c <HAL_ADC_ConfigChannel>
 80005f4:	4603      	mov	r3, r0
 80005f6:	2b00      	cmp	r3, #0
 80005f8:	d001      	beq.n	80005fe <MX_ADC1_Init+0x8e>
 80005fa:	f001 f940 	bl	800187e <Error_Handler>
 80005fe:	2309      	movs	r3, #9
 8000600:	603b      	str	r3, [r7, #0]
 8000602:	2302      	movs	r3, #2
 8000604:	607b      	str	r3, [r7, #4]
 8000606:	463b      	mov	r3, r7
 8000608:	4619      	mov	r1, r3
 800060a:	481b      	ldr	r0, [pc, #108]	@ (8000678 <MX_ADC1_Init+0x108>)
 800060c:	f002 f916 	bl	800283c <HAL_ADC_ConfigChannel>
 8000610:	4603      	mov	r3, r0
 8000612:	2b00      	cmp	r3, #0
 8000614:	d001      	beq.n	800061a <MX_ADC1_Init+0xaa>
 8000616:	f001 f932 	bl	800187e <Error_Handler>
 800061a:	230a      	movs	r3, #10
 800061c:	603b      	str	r3, [r7, #0]
 800061e:	2303      	movs	r3, #3
 8000620:	607b      	str	r3, [r7, #4]
 8000622:	463b      	mov	r3, r7
 8000624:	4619      	mov	r1, r3
 8000626:	4814      	ldr	r0, [pc, #80]	@ (8000678 <MX_ADC1_Init+0x108>)
 8000628:	f002 f908 	bl	800283c <HAL_ADC_ConfigChannel>
 800062c:	4603      	mov	r3, r0
 800062e:	2b00      	cmp	r3, #0
 8000630:	d001      	beq.n	8000636 <MX_ADC1_Init+0xc6>
 8000632:	f001 f924 	bl	800187e <Error_Handler>
 8000636:	230b      	movs	r3, #11
 8000638:	603b      	str	r3, [r7, #0]
 800063a:	2304      	movs	r3, #4
 800063c:	607b      	str	r3, [r7, #4]
 800063e:	463b      	mov	r3, r7
 8000640:	4619      	mov	r1, r3
 8000642:	480d      	ldr	r0, [pc, #52]	@ (8000678 <MX_ADC1_Init+0x108>)
 8000644:	f002 f8fa 	bl	800283c <HAL_ADC_ConfigChannel>
 8000648:	4603      	mov	r3, r0
 800064a:	2b00      	cmp	r3, #0
 800064c:	d001      	beq.n	8000652 <MX_ADC1_Init+0xe2>
 800064e:	f001 f916 	bl	800187e <Error_Handler>
 8000652:	230c      	movs	r3, #12
 8000654:	603b      	str	r3, [r7, #0]
 8000656:	2305      	movs	r3, #5
 8000658:	607b      	str	r3, [r7, #4]
 800065a:	463b      	mov	r3, r7
 800065c:	4619      	mov	r1, r3
 800065e:	4806      	ldr	r0, [pc, #24]	@ (8000678 <MX_ADC1_Init+0x108>)
 8000660:	f002 f8ec 	bl	800283c <HAL_ADC_ConfigChannel>
 8000664:	4603      	mov	r3, r0
 8000666:	2b00      	cmp	r3, #0
 8000668:	d001      	beq.n	800066e <MX_ADC1_Init+0xfe>
 800066a:	f001 f908 	bl	800187e <Error_Handler>
 800066e:	bf00      	nop
 8000670:	3710      	adds	r7, #16
 8000672:	46bd      	mov	sp, r7
 8000674:	bd80      	pop	{r7, pc}
 8000676:	bf00      	nop
 8000678:	2000008c 	.word	0x2000008c
 800067c:	40012000 	.word	0x40012000
 8000680:	0f000001 	.word	0x0f000001

08000684 <HAL_ADC_MspInit>:
 8000684:	b580      	push	{r7, lr}
 8000686:	b08a      	sub	sp, #40	@ 0x28
 8000688:	af00      	add	r7, sp, #0
 800068a:	6078      	str	r0, [r7, #4]
 800068c:	f107 0314 	add.w	r3, r7, #20
 8000690:	2200      	movs	r2, #0
 8000692:	601a      	str	r2, [r3, #0]
 8000694:	605a      	str	r2, [r3, #4]
 8000696:	609a      	str	r2, [r3, #8]
 8000698:	60da      	str	r2, [r3, #12]
 800069a:	611a      	str	r2, [r3, #16]
 800069c:	687b      	ldr	r3, [r7, #4]
 800069e:	681b      	ldr	r3, [r3, #0]
 80006a0:	4a3c      	ldr	r2, [pc, #240]	@ (8000794 <HAL_ADC_MspInit+0x110>)
 80006a2:	4293      	cmp	r3, r2
 80006a4:	d171      	bne.n	800078a <HAL_ADC_MspInit+0x106>
 80006a6:	2300      	movs	r3, #0
 80006a8:	613b      	str	r3, [r7, #16]
 80006aa:	4b3b      	ldr	r3, [pc, #236]	@ (8000798 <HAL_ADC_MspInit+0x114>)
 80006ac:	6c5b      	ldr	r3, [r3, #68]	@ 0x44
 80006ae:	4a3a      	ldr	r2, [pc, #232]	@ (8000798 <HAL_ADC_MspInit+0x114>)
 80006b0:	f443 7380 	orr.w	r3, r3, #256	@ 0x100
 80006b4:	6453      	str	r3, [r2, #68]	@ 0x44
 80006b6:	4b38      	ldr	r3, [pc, #224]	@ (8000798 <HAL_ADC_MspInit+0x114>)
 80006b8:	6c5b      	ldr	r3, [r3, #68]	@ 0x44
 80006ba:	f403 7380 	and.w	r3, r3, #256	@ 0x100
 80006be:	613b      	str	r3, [r7, #16]
 80006c0:	693b      	ldr	r3, [r7, #16]
 80006c2:	2300      	movs	r3, #0
 80006c4:	60fb      	str	r3, [r7, #12]
 80006c6:	4b34      	ldr	r3, [pc, #208]	@ (8000798 <HAL_ADC_MspInit+0x114>)
 80006c8:	6b1b      	ldr	r3, [r3, #48]	@ 0x30
 80006ca:	4a33      	ldr	r2, [pc, #204]	@ (8000798 <HAL_ADC_MspInit+0x114>)
 80006cc:	f043 0304 	orr.w	r3, r3, #4
 80006d0:	6313      	str	r3, [r2, #48]	@ 0x30
 80006d2:	4b31      	ldr	r3, [pc, #196]	@ (8000798 <HAL_ADC_MspInit+0x114>)
 80006d4:	6b1b      	ldr	r3, [r3, #48]	@ 0x30
 80006d6:	f003 0304 	and.w	r3, r3, #4
 80006da:	60fb      	str	r3, [r7, #12]
 80006dc:	68fb      	ldr	r3, [r7, #12]
 80006de:	2300      	movs	r3, #0
 80006e0:	60bb      	str	r3, [r7, #8]
 80006e2:	4b2d      	ldr	r3, [pc, #180]	@ (8000798 <HAL_ADC_MspInit+0x114>)
 80006e4:	6b1b      	ldr	r3, [r3, #48]	@ 0x30
 80006e6:	4a2c      	ldr	r2, [pc, #176]	@ (8000798 <HAL_ADC_MspInit+0x114>)
 80006e8:	f043 0302 	orr.w	r3, r3, #2
 80006ec:	6313      	str	r3, [r2, #48]	@ 0x30
 80006ee:	4b2a      	ldr	r3, [pc, #168]	@ (8000798 <HAL_ADC_MspInit+0x114>)
 80006f0:	6b1b      	ldr	r3, [r3, #48]	@ 0x30
 80006f2:	f003 0302 	and.w	r3, r3, #2
 80006f6:	60bb      	str	r3, [r7, #8]
 80006f8:	68bb      	ldr	r3, [r7, #8]
 80006fa:	2307      	movs	r3, #7
 80006fc:	617b      	str	r3, [r7, #20]
 80006fe:	2303      	movs	r3, #3
 8000700:	61bb      	str	r3, [r7, #24]
 8000702:	2300      	movs	r3, #0
 8000704:	61fb      	str	r3, [r7, #28]
 8000706:	f107 0314 	add.w	r3, r7, #20
 800070a:	4619      	mov	r1, r3
 800070c:	4823      	ldr	r0, [pc, #140]	@ (800079c <HAL_ADC_MspInit+0x118>)
 800070e:	f003 f849 	bl	80037a4 <HAL_GPIO_Init>
 8000712:	2303      	movs	r3, #3
 8000714:	617b      	str	r3, [r7, #20]
 8000716:	2303      	movs	r3, #3
 8000718:	61bb      	str	r3, [r7, #24]
 800071a:	2300      	movs	r3, #0
 800071c:	61fb      	str	r3, [r7, #28]
 800071e:	f107 0314 	add.w	r3, r7, #20
 8000722:	4619      	mov	r1, r3
 8000724:	481e      	ldr	r0, [pc, #120]	@ (80007a0 <HAL_ADC_MspInit+0x11c>)
 8000726:	f003 f83d 	bl	80037a4 <HAL_GPIO_Init>
 800072a:	4b1e      	ldr	r3, [pc, #120]	@ (80007a4 <HAL_ADC_MspInit+0x120>)
 800072c:	4a1e      	ldr	r2, [pc, #120]	@ (80007a8 <HAL_ADC_MspInit+0x124>)
 800072e:	601a      	str	r2, [r3, #0]
 8000730:	4b1c      	ldr	r3, [pc, #112]	@ (80007a4 <HAL_ADC_MspInit+0x120>)
 8000732:	2200      	movs	r2, #0
 8000734:	605a      	str	r2, [r3, #4]
 8000736:	4b1b      	ldr	r3, [pc, #108]	@ (80007a4 <HAL_ADC_MspInit+0x120>)
 8000738:	2200      	movs	r2, #0
 800073a:	609a      	str	r2, [r3, #8]
 800073c:	4b19      	ldr	r3, [pc, #100]	@ (80007a4 <HAL_ADC_MspInit+0x120>)
 800073e:	2200      	movs	r2, #0
 8000740:	60da      	str	r2, [r3, #12]
 8000742:	4b18      	ldr	r3, [pc, #96]	@ (80007a4 <HAL_ADC_MspInit+0x120>)
 8000744:	f44f 6280 	mov.w	r2, #1024	@ 0x400
 8000748:	611a      	str	r2, [r3, #16]
 800074a:	4b16      	ldr	r3, [pc, #88]	@ (80007a4 <HAL_ADC_MspInit+0x120>)
 800074c:	f44f 6200 	mov.w	r2, #2048	@ 0x800
 8000750:	615a      	str	r2, [r3, #20]
 8000752:	4b14      	ldr	r3, [pc, #80]	@ (80007a4 <HAL_ADC_MspInit+0x120>)
 8000754:	f44f 5200 	mov.w	r2, #8192	@ 0x2000
 8000758:	619a      	str	r2, [r3, #24]
 800075a:	4b12      	ldr	r3, [pc, #72]	@ (80007a4 <HAL_ADC_MspInit+0x120>)
 800075c:	f44f 7280 	mov.w	r2, #256	@ 0x100
 8000760:	61da      	str	r2, [r3, #28]
 8000762:	4b10      	ldr	r3, [pc, #64]	@ (80007a4 <HAL_ADC_MspInit+0x120>)
 8000764:	2200      	movs	r2, #0
 8000766:	621a      	str	r2, [r3, #32]
 8000768:	4b0e      	ldr	r3, [pc, #56]	@ (80007a4 <HAL_ADC_MspInit+0x120>)
 800076a:	2200      	movs	r2, #0
 800076c:	625a      	str	r2, [r3, #36]	@ 0x24
 800076e:	480d      	ldr	r0, [pc, #52]	@ (80007a4 <HAL_ADC_MspInit+0x120>)
 8000770:	f002 fc16 	bl	8002fa0 <HAL_DMA_Init>
 8000774:	4603      	mov	r3, r0
 8000776:	2b00      	cmp	r3, #0
 8000778:	d001      	beq.n	800077e <HAL_ADC_MspInit+0xfa>
 800077a:	f001 f880 	bl	800187e <Error_Handler>
 800077e:	687b      	ldr	r3, [r7, #4]
 8000780:	4a08      	ldr	r2, [pc, #32]	@ (80007a4 <HAL_ADC_MspInit+0x120>)
 8000782:	639a      	str	r2, [r3, #56]	@ 0x38
 8000784:	4a07      	ldr	r2, [pc, #28]	@ (80007a4 <HAL_ADC_MspInit+0x120>)
 8000786:	687b      	ldr	r3, [r7, #4]
 8000788:	6393      	str	r3, [r2, #56]	@ 0x38
 800078a:	bf00      	nop
 800078c:	3728      	adds	r7, #40	@ 0x28
 800078e:	46bd      	mov	sp, r7
 8000790:	bd80      	pop	{r7, pc}
 8000792:	bf00      	nop
 8000794:	40012000 	.word	0x40012000
 8000798:	40023800 	.word	0x40023800
 800079c:	40020800 	.word	0x40020800
 80007a0:	40020400 	.word	0x40020400
 80007a4:	200000d4 	.word	0x200000d4
 80007a8:	40026410 	.word	0x40026410

080007ac <button_init>:
 80007ac:	b580      	push	{r7, lr}
 80007ae:	af00      	add	r7, sp, #0
 80007b0:	2201      	movs	r2, #1
 80007b2:	2108      	movs	r1, #8
 80007b4:	4802      	ldr	r0, [pc, #8]	@ (80007c0 <button_init+0x14>)
 80007b6:	f003 f991 	bl	8003adc <HAL_GPIO_WritePin>
 80007ba:	bf00      	nop
 80007bc:	bd80      	pop	{r7, pc}
 80007be:	bf00      	nop
 80007c0:	40020c00 	.word	0x40020c00

080007c4 <MX_DMA_Init>:
 80007c4:	b580      	push	{r7, lr}
 80007c6:	b082      	sub	sp, #8
 80007c8:	af00      	add	r7, sp, #0
 80007ca:	2300      	movs	r3, #0
 80007cc:	607b      	str	r3, [r7, #4]
 80007ce:	4b0c      	ldr	r3, [pc, #48]	@ (8000800 <MX_DMA_Init+0x3c>)
 80007d0:	6b1b      	ldr	r3, [r3, #48]	@ 0x30
 80007d2:	4a0b      	ldr	r2, [pc, #44]	@ (8000800 <MX_DMA_Init+0x3c>)
 80007d4:	f443 0380 	orr.w	r3, r3, #4194304	@ 0x400000
 80007d8:	6313      	str	r3, [r2, #48]	@ 0x30
 80007da:	4b09      	ldr	r3, [pc, #36]	@ (8000800 <MX_DMA_Init+0x3c>)
 80007dc:	6b1b      	ldr	r3, [r3, #48]	@ 0x30
 80007de:	f403 0380 	and.w	r3, r3, #4194304	@ 0x400000
 80007e2:	607b      	str	r3, [r7, #4]
 80007e4:	687b      	ldr	r3, [r7, #4]
 80007e6:	2200      	movs	r2, #0
 80007e8:	2100      	movs	r1, #0
 80007ea:	2038      	movs	r0, #56	@ 0x38
 80007ec:	f002 fba1 	bl	8002f32 <HAL_NVIC_SetPriority>
 80007f0:	2038      	movs	r0, #56	@ 0x38
 80007f2:	f002 fbba 	bl	8002f6a <HAL_NVIC_EnableIRQ>
 80007f6:	bf00      	nop
 80007f8:	3708      	adds	r7, #8
 80007fa:	46bd      	mov	sp, r7
 80007fc:	bd80      	pop	{r7, pc}
 80007fe:	bf00      	nop
 8000800:	40023800 	.word	0x40023800

08000804 <MX_FSMC_Init>:
 8000804:	b580      	push	{r7, lr}
 8000806:	b08e      	sub	sp, #56	@ 0x38
 8000808:	af00      	add	r7, sp, #0
 800080a:	f107 031c 	add.w	r3, r7, #28
 800080e:	2200      	movs	r2, #0
 8000810:	601a      	str	r2, [r3, #0]
 8000812:	605a      	str	r2, [r3, #4]
 8000814:	609a      	str	r2, [r3, #8]
 8000816:	60da      	str	r2, [r3, #12]
 8000818:	611a      	str	r2, [r3, #16]
 800081a:	615a      	str	r2, [r3, #20]
 800081c:	619a      	str	r2, [r3, #24]
 800081e:	463b      	mov	r3, r7
 8000820:	2200      	movs	r2, #0
 8000822:	601a      	str	r2, [r3, #0]
 8000824:	605a      	str	r2, [r3, #4]
 8000826:	609a      	str	r2, [r3, #8]
 8000828:	60da      	str	r2, [r3, #12]
 800082a:	611a      	str	r2, [r3, #16]
 800082c:	615a      	str	r2, [r3, #20]
 800082e:	619a      	str	r2, [r3, #24]
 8000830:	4b2f      	ldr	r3, [pc, #188]	@ (80008f0 <MX_FSMC_Init+0xec>)
 8000832:	f04f 4220 	mov.w	r2, #2684354560	@ 0xa0000000
 8000836:	601a      	str	r2, [r3, #0]
 8000838:	4b2d      	ldr	r3, [pc, #180]	@ (80008f0 <MX_FSMC_Init+0xec>)
 800083a:	4a2e      	ldr	r2, [pc, #184]	@ (80008f4 <MX_FSMC_Init+0xf0>)
 800083c:	605a      	str	r2, [r3, #4]
 800083e:	4b2c      	ldr	r3, [pc, #176]	@ (80008f0 <MX_FSMC_Init+0xec>)
 8000840:	2200      	movs	r2, #0
 8000842:	609a      	str	r2, [r3, #8]
 8000844:	4b2a      	ldr	r3, [pc, #168]	@ (80008f0 <MX_FSMC_Init+0xec>)
 8000846:	2200      	movs	r2, #0
 8000848:	60da      	str	r2, [r3, #12]
 800084a:	4b29      	ldr	r3, [pc, #164]	@ (80008f0 <MX_FSMC_Init+0xec>)
 800084c:	2200      	movs	r2, #0
 800084e:	611a      	str	r2, [r3, #16]
 8000850:	4b27      	ldr	r3, [pc, #156]	@ (80008f0 <MX_FSMC_Init+0xec>)
 8000852:	2210      	movs	r2, #16
 8000854:	615a      	str	r2, [r3, #20]
 8000856:	4b26      	ldr	r3, [pc, #152]	@ (80008f0 <MX_FSMC_Init+0xec>)
 8000858:	2200      	movs	r2, #0
 800085a:	619a      	str	r2, [r3, #24]
 800085c:	4b24      	ldr	r3, [pc, #144]	@ (80008f0 <MX_FSMC_Init+0xec>)
 800085e:	2200      	movs	r2, #0
 8000860:	61da      	str	r2, [r3, #28]
 8000862:	4b23      	ldr	r3, [pc, #140]	@ (80008f0 <MX_FSMC_Init+0xec>)
 8000864:	2200      	movs	r2, #0
 8000866:	621a      	str	r2, [r3, #32]
 8000868:	4b21      	ldr	r3, [pc, #132]	@ (80008f0 <MX_FSMC_Init+0xec>)
 800086a:	2200      	movs	r2, #0
 800086c:	625a      	str	r2, [r3, #36]	@ 0x24
 800086e:	4b20      	ldr	r3, [pc, #128]	@ (80008f0 <MX_FSMC_Init+0xec>)
 8000870:	f44f 5280 	mov.w	r2, #4096	@ 0x1000
 8000874:	629a      	str	r2, [r3, #40]	@ 0x28
 8000876:	4b1e      	ldr	r3, [pc, #120]	@ (80008f0 <MX_FSMC_Init+0xec>)
 8000878:	2200      	movs	r2, #0
 800087a:	62da      	str	r2, [r3, #44]	@ 0x2c
 800087c:	4b1c      	ldr	r3, [pc, #112]	@ (80008f0 <MX_FSMC_Init+0xec>)
 800087e:	f44f 4280 	mov.w	r2, #16384	@ 0x4000
 8000882:	631a      	str	r2, [r3, #48]	@ 0x30
 8000884:	4b1a      	ldr	r3, [pc, #104]	@ (80008f0 <MX_FSMC_Init+0xec>)
 8000886:	2200      	movs	r2, #0
 8000888:	635a      	str	r2, [r3, #52]	@ 0x34
 800088a:	4b19      	ldr	r3, [pc, #100]	@ (80008f0 <MX_FSMC_Init+0xec>)
 800088c:	2200      	movs	r2, #0
 800088e:	639a      	str	r2, [r3, #56]	@ 0x38
 8000890:	4b17      	ldr	r3, [pc, #92]	@ (80008f0 <MX_FSMC_Init+0xec>)
 8000892:	2200      	movs	r2, #0
 8000894:	645a      	str	r2, [r3, #68]	@ 0x44
 8000896:	230f      	movs	r3, #15
 8000898:	61fb      	str	r3, [r7, #28]
 800089a:	230f      	movs	r3, #15
 800089c:	623b      	str	r3, [r7, #32]
 800089e:	233c      	movs	r3, #60	@ 0x3c
 80008a0:	627b      	str	r3, [r7, #36]	@ 0x24
 80008a2:	2300      	movs	r3, #0
 80008a4:	62bb      	str	r3, [r7, #40]	@ 0x28
 80008a6:	2310      	movs	r3, #16
 80008a8:	62fb      	str	r3, [r7, #44]	@ 0x2c
 80008aa:	2311      	movs	r3, #17
 80008ac:	633b      	str	r3, [r7, #48]	@ 0x30
 80008ae:	2300      	movs	r3, #0
 80008b0:	637b      	str	r3, [r7, #52]	@ 0x34
 80008b2:	2308      	movs	r3, #8
 80008b4:	603b      	str	r3, [r7, #0]
 80008b6:	230f      	movs	r3, #15
 80008b8:	607b      	str	r3, [r7, #4]
 80008ba:	2309      	movs	r3, #9
 80008bc:	60bb      	str	r3, [r7, #8]
 80008be:	2300      	movs	r3, #0
 80008c0:	60fb      	str	r3, [r7, #12]
 80008c2:	2310      	movs	r3, #16
 80008c4:	613b      	str	r3, [r7, #16]
 80008c6:	2311      	movs	r3, #17
 80008c8:	617b      	str	r3, [r7, #20]
 80008ca:	2300      	movs	r3, #0
 80008cc:	61bb      	str	r3, [r7, #24]
 80008ce:	463a      	mov	r2, r7
 80008d0:	f107 031c 	add.w	r3, r7, #28
 80008d4:	4619      	mov	r1, r3
 80008d6:	4806      	ldr	r0, [pc, #24]	@ (80008f0 <MX_FSMC_Init+0xec>)
 80008d8:	f004 f9a0 	bl	8004c1c <HAL_SRAM_Init>
 80008dc:	4603      	mov	r3, r0
 80008de:	2b00      	cmp	r3, #0
 80008e0:	d001      	beq.n	80008e6 <MX_FSMC_Init+0xe2>
 80008e2:	f000 ffcc 	bl	800187e <Error_Handler>
 80008e6:	bf00      	nop
 80008e8:	3738      	adds	r7, #56	@ 0x38
 80008ea:	46bd      	mov	sp, r7
 80008ec:	bd80      	pop	{r7, pc}
 80008ee:	bf00      	nop
 80008f0:	20000134 	.word	0x20000134
 80008f4:	a0000104 	.word	0xa0000104

080008f8 <HAL_FSMC_MspInit>:
 80008f8:	b580      	push	{r7, lr}
 80008fa:	b086      	sub	sp, #24
 80008fc:	af00      	add	r7, sp, #0
 80008fe:	1d3b      	adds	r3, r7, #4
 8000900:	2200      	movs	r2, #0
 8000902:	601a      	str	r2, [r3, #0]
 8000904:	605a      	str	r2, [r3, #4]
 8000906:	609a      	str	r2, [r3, #8]
 8000908:	60da      	str	r2, [r3, #12]
 800090a:	611a      	str	r2, [r3, #16]
 800090c:	4b1c      	ldr	r3, [pc, #112]	@ (8000980 <HAL_FSMC_MspInit+0x88>)
 800090e:	681b      	ldr	r3, [r3, #0]
 8000910:	2b00      	cmp	r3, #0
 8000912:	d131      	bne.n	8000978 <HAL_FSMC_MspInit+0x80>
 8000914:	4b1a      	ldr	r3, [pc, #104]	@ (8000980 <HAL_FSMC_MspInit+0x88>)
 8000916:	2201      	movs	r2, #1
 8000918:	601a      	str	r2, [r3, #0]
 800091a:	2300      	movs	r3, #0
 800091c:	603b      	str	r3, [r7, #0]
 800091e:	4b19      	ldr	r3, [pc, #100]	@ (8000984 <HAL_FSMC_MspInit+0x8c>)
 8000920:	6b9b      	ldr	r3, [r3, #56]	@ 0x38
 8000922:	4a18      	ldr	r2, [pc, #96]	@ (8000984 <HAL_FSMC_MspInit+0x8c>)
 8000924:	f043 0301 	orr.w	r3, r3, #1
 8000928:	6393      	str	r3, [r2, #56]	@ 0x38
 800092a:	4b16      	ldr	r3, [pc, #88]	@ (8000984 <HAL_FSMC_MspInit+0x8c>)
 800092c:	6b9b      	ldr	r3, [r3, #56]	@ 0x38
 800092e:	f003 0301 	and.w	r3, r3, #1
 8000932:	603b      	str	r3, [r7, #0]
 8000934:	683b      	ldr	r3, [r7, #0]
 8000936:	f64f 7388 	movw	r3, #65416	@ 0xff88
 800093a:	607b      	str	r3, [r7, #4]
 800093c:	2302      	movs	r3, #2
 800093e:	60bb      	str	r3, [r7, #8]
 8000940:	2300      	movs	r3, #0
 8000942:	60fb      	str	r3, [r7, #12]
 8000944:	2303      	movs	r3, #3
 8000946:	613b      	str	r3, [r7, #16]
 8000948:	230c      	movs	r3, #12
 800094a:	617b      	str	r3, [r7, #20]
 800094c:	1d3b      	adds	r3, r7, #4
 800094e:	4619      	mov	r1, r3
 8000950:	480d      	ldr	r0, [pc, #52]	@ (8000988 <HAL_FSMC_MspInit+0x90>)
 8000952:	f002 ff27 	bl	80037a4 <HAL_GPIO_Init>
 8000956:	f24c 73b3 	movw	r3, #51123	@ 0xc7b3
 800095a:	607b      	str	r3, [r7, #4]
 800095c:	2302      	movs	r3, #2
 800095e:	60bb      	str	r3, [r7, #8]
 8000960:	2300      	movs	r3, #0
 8000962:	60fb      	str	r3, [r7, #12]
 8000964:	2303      	movs	r3, #3
 8000966:	613b      	str	r3, [r7, #16]
 8000968:	230c      	movs	r3, #12
 800096a:	617b      	str	r3, [r7, #20]
 800096c:	1d3b      	adds	r3, r7, #4
 800096e:	4619      	mov	r1, r3
 8000970:	4806      	ldr	r0, [pc, #24]	@ (800098c <HAL_FSMC_MspInit+0x94>)
 8000972:	f002 ff17 	bl	80037a4 <HAL_GPIO_Init>
 8000976:	e000      	b.n	800097a <HAL_FSMC_MspInit+0x82>
 8000978:	bf00      	nop
 800097a:	3718      	adds	r7, #24
 800097c:	46bd      	mov	sp, r7
 800097e:	bd80      	pop	{r7, pc}
 8000980:	20000184 	.word	0x20000184
 8000984:	40023800 	.word	0x40023800
 8000988:	40021000 	.word	0x40021000
 800098c:	40020c00 	.word	0x40020c00

08000990 <HAL_SRAM_MspInit>:
 8000990:	b580      	push	{r7, lr}
 8000992:	b082      	sub	sp, #8
 8000994:	af00      	add	r7, sp, #0
 8000996:	6078      	str	r0, [r7, #4]
 8000998:	f7ff ffae 	bl	80008f8 <HAL_FSMC_MspInit>
 800099c:	bf00      	nop
 800099e:	3708      	adds	r7, #8
 80009a0:	46bd      	mov	sp, r7
 80009a2:	bd80      	pop	{r7, pc}

080009a4 <MX_GPIO_Init>:
 80009a4:	b580      	push	{r7, lr}
 80009a6:	b08e      	sub	sp, #56	@ 0x38
 80009a8:	af00      	add	r7, sp, #0
 80009aa:	f107 0324 	add.w	r3, r7, #36	@ 0x24
 80009ae:	2200      	movs	r2, #0
 80009b0:	601a      	str	r2, [r3, #0]
 80009b2:	605a      	str	r2, [r3, #4]
 80009b4:	609a      	str	r2, [r3, #8]
 80009b6:	60da      	str	r2, [r3, #12]
 80009b8:	611a      	str	r2, [r3, #16]
 80009ba:	2300      	movs	r3, #0
 80009bc:	623b      	str	r3, [r7, #32]
 80009be:	4b8f      	ldr	r3, [pc, #572]	@ (8000bfc <MX_GPIO_Init+0x258>)
 80009c0:	6b1b      	ldr	r3, [r3, #48]	@ 0x30
 80009c2:	4a8e      	ldr	r2, [pc, #568]	@ (8000bfc <MX_GPIO_Init+0x258>)
 80009c4:	f043 0310 	orr.w	r3, r3, #16
 80009c8:	6313      	str	r3, [r2, #48]	@ 0x30
 80009ca:	4b8c      	ldr	r3, [pc, #560]	@ (8000bfc <MX_GPIO_Init+0x258>)
 80009cc:	6b1b      	ldr	r3, [r3, #48]	@ 0x30
 80009ce:	f003 0310 	and.w	r3, r3, #16
 80009d2:	623b      	str	r3, [r7, #32]
 80009d4:	6a3b      	ldr	r3, [r7, #32]
 80009d6:	2300      	movs	r3, #0
 80009d8:	61fb      	str	r3, [r7, #28]
 80009da:	4b88      	ldr	r3, [pc, #544]	@ (8000bfc <MX_GPIO_Init+0x258>)
 80009dc:	6b1b      	ldr	r3, [r3, #48]	@ 0x30
 80009de:	4a87      	ldr	r2, [pc, #540]	@ (8000bfc <MX_GPIO_Init+0x258>)
 80009e0:	f043 0304 	orr.w	r3, r3, #4
 80009e4:	6313      	str	r3, [r2, #48]	@ 0x30
 80009e6:	4b85      	ldr	r3, [pc, #532]	@ (8000bfc <MX_GPIO_Init+0x258>)
 80009e8:	6b1b      	ldr	r3, [r3, #48]	@ 0x30
 80009ea:	f003 0304 	and.w	r3, r3, #4
 80009ee:	61fb      	str	r3, [r7, #28]
 80009f0:	69fb      	ldr	r3, [r7, #28]
 80009f2:	2300      	movs	r3, #0
 80009f4:	61bb      	str	r3, [r7, #24]
 80009f6:	4b81      	ldr	r3, [pc, #516]	@ (8000bfc <MX_GPIO_Init+0x258>)
 80009f8:	6b1b      	ldr	r3, [r3, #48]	@ 0x30
 80009fa:	4a80      	ldr	r2, [pc, #512]	@ (8000bfc <MX_GPIO_Init+0x258>)
 80009fc:	f043 0320 	orr.w	r3, r3, #32
 8000a00:	6313      	str	r3, [r2, #48]	@ 0x30
 8000a02:	4b7e      	ldr	r3, [pc, #504]	@ (8000bfc <MX_GPIO_Init+0x258>)
 8000a04:	6b1b      	ldr	r3, [r3, #48]	@ 0x30
 8000a06:	f003 0320 	and.w	r3, r3, #32
 8000a0a:	61bb      	str	r3, [r7, #24]
 8000a0c:	69bb      	ldr	r3, [r7, #24]
 8000a0e:	2300      	movs	r3, #0
 8000a10:	617b      	str	r3, [r7, #20]
 8000a12:	4b7a      	ldr	r3, [pc, #488]	@ (8000bfc <MX_GPIO_Init+0x258>)
 8000a14:	6b1b      	ldr	r3, [r3, #48]	@ 0x30
 8000a16:	4a79      	ldr	r2, [pc, #484]	@ (8000bfc <MX_GPIO_Init+0x258>)
 8000a18:	f043 0380 	orr.w	r3, r3, #128	@ 0x80
 8000a1c:	6313      	str	r3, [r2, #48]	@ 0x30
 8000a1e:	4b77      	ldr	r3, [pc, #476]	@ (8000bfc <MX_GPIO_Init+0x258>)
 8000a20:	6b1b      	ldr	r3, [r3, #48]	@ 0x30
 8000a22:	f003 0380 	and.w	r3, r3, #128	@ 0x80
 8000a26:	617b      	str	r3, [r7, #20]
 8000a28:	697b      	ldr	r3, [r7, #20]
 8000a2a:	2300      	movs	r3, #0
 8000a2c:	613b      	str	r3, [r7, #16]
 8000a2e:	4b73      	ldr	r3, [pc, #460]	@ (8000bfc <MX_GPIO_Init+0x258>)
 8000a30:	6b1b      	ldr	r3, [r3, #48]	@ 0x30
 8000a32:	4a72      	ldr	r2, [pc, #456]	@ (8000bfc <MX_GPIO_Init+0x258>)
 8000a34:	f043 0301 	orr.w	r3, r3, #1
 8000a38:	6313      	str	r3, [r2, #48]	@ 0x30
 8000a3a:	4b70      	ldr	r3, [pc, #448]	@ (8000bfc <MX_GPIO_Init+0x258>)
 8000a3c:	6b1b      	ldr	r3, [r3, #48]	@ 0x30
 8000a3e:	f003 0301 	and.w	r3, r3, #1
 8000a42:	613b      	str	r3, [r7, #16]
 8000a44:	693b      	ldr	r3, [r7, #16]
 8000a46:	2300      	movs	r3, #0
 8000a48:	60fb      	str	r3, [r7, #12]
 8000a4a:	4b6c      	ldr	r3, [pc, #432]	@ (8000bfc <MX_GPIO_Init+0x258>)
 8000a4c:	6b1b      	ldr	r3, [r3, #48]	@ 0x30
 8000a4e:	4a6b      	ldr	r2, [pc, #428]	@ (8000bfc <MX_GPIO_Init+0x258>)
 8000a50:	f043 0302 	orr.w	r3, r3, #2
 8000a54:	6313      	str	r3, [r2, #48]	@ 0x30
 8000a56:	4b69      	ldr	r3, [pc, #420]	@ (8000bfc <MX_GPIO_Init+0x258>)
 8000a58:	6b1b      	ldr	r3, [r3, #48]	@ 0x30
 8000a5a:	f003 0302 	and.w	r3, r3, #2
 8000a5e:	60fb      	str	r3, [r7, #12]
 8000a60:	68fb      	ldr	r3, [r7, #12]
 8000a62:	2300      	movs	r3, #0
 8000a64:	60bb      	str	r3, [r7, #8]
 8000a66:	4b65      	ldr	r3, [pc, #404]	@ (8000bfc <MX_GPIO_Init+0x258>)
 8000a68:	6b1b      	ldr	r3, [r3, #48]	@ 0x30
 8000a6a:	4a64      	ldr	r2, [pc, #400]	@ (8000bfc <MX_GPIO_Init+0x258>)
 8000a6c:	f043 0308 	orr.w	r3, r3, #8
 8000a70:	6313      	str	r3, [r2, #48]	@ 0x30
 8000a72:	4b62      	ldr	r3, [pc, #392]	@ (8000bfc <MX_GPIO_Init+0x258>)
 8000a74:	6b1b      	ldr	r3, [r3, #48]	@ 0x30
 8000a76:	f003 0308 	and.w	r3, r3, #8
 8000a7a:	60bb      	str	r3, [r7, #8]
 8000a7c:	68bb      	ldr	r3, [r7, #8]
 8000a7e:	2300      	movs	r3, #0
 8000a80:	607b      	str	r3, [r7, #4]
 8000a82:	4b5e      	ldr	r3, [pc, #376]	@ (8000bfc <MX_GPIO_Init+0x258>)
 8000a84:	6b1b      	ldr	r3, [r3, #48]	@ 0x30
 8000a86:	4a5d      	ldr	r2, [pc, #372]	@ (8000bfc <MX_GPIO_Init+0x258>)
 8000a88:	f043 0340 	orr.w	r3, r3, #64	@ 0x40
 8000a8c:	6313      	str	r3, [r2, #48]	@ 0x30
 8000a8e:	4b5b      	ldr	r3, [pc, #364]	@ (8000bfc <MX_GPIO_Init+0x258>)
 8000a90:	6b1b      	ldr	r3, [r3, #48]	@ 0x30
 8000a92:	f003 0340 	and.w	r3, r3, #64	@ 0x40
 8000a96:	607b      	str	r3, [r7, #4]
 8000a98:	687b      	ldr	r3, [r7, #4]
 8000a9a:	2200      	movs	r2, #0
 8000a9c:	2170      	movs	r1, #112	@ 0x70
 8000a9e:	4858      	ldr	r0, [pc, #352]	@ (8000c00 <MX_GPIO_Init+0x25c>)
 8000aa0:	f003 f81c 	bl	8003adc <HAL_GPIO_WritePin>
 8000aa4:	2200      	movs	r2, #0
 8000aa6:	f44f 5108 	mov.w	r1, #8704	@ 0x2200
 8000aaa:	4856      	ldr	r0, [pc, #344]	@ (8000c04 <MX_GPIO_Init+0x260>)
 8000aac:	f003 f816 	bl	8003adc <HAL_GPIO_WritePin>
 8000ab0:	2200      	movs	r2, #0
 8000ab2:	f44f 6180 	mov.w	r1, #1024	@ 0x400
 8000ab6:	4854      	ldr	r0, [pc, #336]	@ (8000c08 <MX_GPIO_Init+0x264>)
 8000ab8:	f003 f810 	bl	8003adc <HAL_GPIO_WritePin>
 8000abc:	2200      	movs	r2, #0
 8000abe:	f44f 71e0 	mov.w	r1, #448	@ 0x1c0
 8000ac2:	4852      	ldr	r0, [pc, #328]	@ (8000c0c <MX_GPIO_Init+0x268>)
 8000ac4:	f003 f80a 	bl	8003adc <HAL_GPIO_WritePin>
 8000ac8:	2200      	movs	r2, #0
 8000aca:	f44f 7180 	mov.w	r1, #256	@ 0x100
 8000ace:	4850      	ldr	r0, [pc, #320]	@ (8000c10 <MX_GPIO_Init+0x26c>)
 8000ad0:	f003 f804 	bl	8003adc <HAL_GPIO_WritePin>
 8000ad4:	2200      	movs	r2, #0
 8000ad6:	2108      	movs	r1, #8
 8000ad8:	484e      	ldr	r0, [pc, #312]	@ (8000c14 <MX_GPIO_Init+0x270>)
 8000ada:	f002 ffff 	bl	8003adc <HAL_GPIO_WritePin>
 8000ade:	2370      	movs	r3, #112	@ 0x70
 8000ae0:	627b      	str	r3, [r7, #36]	@ 0x24
 8000ae2:	2301      	movs	r3, #1
 8000ae4:	62bb      	str	r3, [r7, #40]	@ 0x28
 8000ae6:	2300      	movs	r3, #0
 8000ae8:	62fb      	str	r3, [r7, #44]	@ 0x2c
 8000aea:	2300      	movs	r3, #0
 8000aec:	633b      	str	r3, [r7, #48]	@ 0x30
 8000aee:	f107 0324 	add.w	r3, r7, #36	@ 0x24
 8000af2:	4619      	mov	r1, r3
 8000af4:	4842      	ldr	r0, [pc, #264]	@ (8000c00 <MX_GPIO_Init+0x25c>)
 8000af6:	f002 fe55 	bl	80037a4 <HAL_GPIO_Init>
 8000afa:	f44f 5308 	mov.w	r3, #8704	@ 0x2200
 8000afe:	627b      	str	r3, [r7, #36]	@ 0x24
 8000b00:	2301      	movs	r3, #1
 8000b02:	62bb      	str	r3, [r7, #40]	@ 0x28
 8000b04:	2300      	movs	r3, #0
 8000b06:	62fb      	str	r3, [r7, #44]	@ 0x2c
 8000b08:	2300      	movs	r3, #0
 8000b0a:	633b      	str	r3, [r7, #48]	@ 0x30
 8000b0c:	f107 0324 	add.w	r3, r7, #36	@ 0x24
 8000b10:	4619      	mov	r1, r3
 8000b12:	483c      	ldr	r0, [pc, #240]	@ (8000c04 <MX_GPIO_Init+0x260>)
 8000b14:	f002 fe46 	bl	80037a4 <HAL_GPIO_Init>
 8000b18:	f44f 7300 	mov.w	r3, #512	@ 0x200
 8000b1c:	627b      	str	r3, [r7, #36]	@ 0x24
 8000b1e:	2300      	movs	r3, #0
 8000b20:	62bb      	str	r3, [r7, #40]	@ 0x28
 8000b22:	2300      	movs	r3, #0
 8000b24:	62fb      	str	r3, [r7, #44]	@ 0x2c
 8000b26:	f107 0324 	add.w	r3, r7, #36	@ 0x24
 8000b2a:	4619      	mov	r1, r3
 8000b2c:	4836      	ldr	r0, [pc, #216]	@ (8000c08 <MX_GPIO_Init+0x264>)
 8000b2e:	f002 fe39 	bl	80037a4 <HAL_GPIO_Init>
 8000b32:	f44f 6380 	mov.w	r3, #1024	@ 0x400
 8000b36:	627b      	str	r3, [r7, #36]	@ 0x24
 8000b38:	2301      	movs	r3, #1
 8000b3a:	62bb      	str	r3, [r7, #40]	@ 0x28
 8000b3c:	2300      	movs	r3, #0
 8000b3e:	62fb      	str	r3, [r7, #44]	@ 0x2c
 8000b40:	2300      	movs	r3, #0
 8000b42:	633b      	str	r3, [r7, #48]	@ 0x30
 8000b44:	f107 0324 	add.w	r3, r7, #36	@ 0x24
 8000b48:	4619      	mov	r1, r3
 8000b4a:	482f      	ldr	r0, [pc, #188]	@ (8000c08 <MX_GPIO_Init+0x264>)
 8000b4c:	f002 fe2a 	bl	80037a4 <HAL_GPIO_Init>
 8000b50:	23c0      	movs	r3, #192	@ 0xc0
 8000b52:	627b      	str	r3, [r7, #36]	@ 0x24
 8000b54:	2300      	movs	r3, #0
 8000b56:	62bb      	str	r3, [r7, #40]	@ 0x28
 8000b58:	2300      	movs	r3, #0
 8000b5a:	62fb      	str	r3, [r7, #44]	@ 0x2c
 8000b5c:	f107 0324 	add.w	r3, r7, #36	@ 0x24
 8000b60:	4619      	mov	r1, r3
 8000b62:	482b      	ldr	r0, [pc, #172]	@ (8000c10 <MX_GPIO_Init+0x26c>)
 8000b64:	f002 fe1e 	bl	80037a4 <HAL_GPIO_Init>
 8000b68:	2330      	movs	r3, #48	@ 0x30
 8000b6a:	627b      	str	r3, [r7, #36]	@ 0x24
 8000b6c:	2300      	movs	r3, #0
 8000b6e:	62bb      	str	r3, [r7, #40]	@ 0x28
 8000b70:	2300      	movs	r3, #0
 8000b72:	62fb      	str	r3, [r7, #44]	@ 0x2c
 8000b74:	f107 0324 	add.w	r3, r7, #36	@ 0x24
 8000b78:	4619      	mov	r1, r3
 8000b7a:	4822      	ldr	r0, [pc, #136]	@ (8000c04 <MX_GPIO_Init+0x260>)
 8000b7c:	f002 fe12 	bl	80037a4 <HAL_GPIO_Init>
 8000b80:	f44f 73e0 	mov.w	r3, #448	@ 0x1c0
 8000b84:	627b      	str	r3, [r7, #36]	@ 0x24
 8000b86:	2301      	movs	r3, #1
 8000b88:	62bb      	str	r3, [r7, #40]	@ 0x28
 8000b8a:	2300      	movs	r3, #0
 8000b8c:	62fb      	str	r3, [r7, #44]	@ 0x2c
 8000b8e:	2300      	movs	r3, #0
 8000b90:	633b      	str	r3, [r7, #48]	@ 0x30
 8000b92:	f107 0324 	add.w	r3, r7, #36	@ 0x24
 8000b96:	4619      	mov	r1, r3
 8000b98:	481c      	ldr	r0, [pc, #112]	@ (8000c0c <MX_GPIO_Init+0x268>)
 8000b9a:	f002 fe03 	bl	80037a4 <HAL_GPIO_Init>
 8000b9e:	f44f 5388 	mov.w	r3, #4352	@ 0x1100
 8000ba2:	627b      	str	r3, [r7, #36]	@ 0x24
 8000ba4:	2300      	movs	r3, #0
 8000ba6:	62bb      	str	r3, [r7, #40]	@ 0x28
 8000ba8:	2301      	movs	r3, #1
 8000baa:	62fb      	str	r3, [r7, #44]	@ 0x2c
 8000bac:	f107 0324 	add.w	r3, r7, #36	@ 0x24
 8000bb0:	4619      	mov	r1, r3
 8000bb2:	4814      	ldr	r0, [pc, #80]	@ (8000c04 <MX_GPIO_Init+0x260>)
 8000bb4:	f002 fdf6 	bl	80037a4 <HAL_GPIO_Init>
 8000bb8:	f44f 7380 	mov.w	r3, #256	@ 0x100
 8000bbc:	627b      	str	r3, [r7, #36]	@ 0x24
 8000bbe:	2301      	movs	r3, #1
 8000bc0:	62bb      	str	r3, [r7, #40]	@ 0x28
 8000bc2:	2300      	movs	r3, #0
 8000bc4:	62fb      	str	r3, [r7, #44]	@ 0x2c
 8000bc6:	2300      	movs	r3, #0
 8000bc8:	633b      	str	r3, [r7, #48]	@ 0x30
 8000bca:	f107 0324 	add.w	r3, r7, #36	@ 0x24
 8000bce:	4619      	mov	r1, r3
 8000bd0:	480f      	ldr	r0, [pc, #60]	@ (8000c10 <MX_GPIO_Init+0x26c>)
 8000bd2:	f002 fde7 	bl	80037a4 <HAL_GPIO_Init>
 8000bd6:	2308      	movs	r3, #8
 8000bd8:	627b      	str	r3, [r7, #36]	@ 0x24
 8000bda:	2301      	movs	r3, #1
 8000bdc:	62bb      	str	r3, [r7, #40]	@ 0x28
 8000bde:	2300      	movs	r3, #0
 8000be0:	62fb      	str	r3, [r7, #44]	@ 0x2c
 8000be2:	2300      	movs	r3, #0
 8000be4:	633b      	str	r3, [r7, #48]	@ 0x30
 8000be6:	f107 0324 	add.w	r3, r7, #36	@ 0x24
 8000bea:	4619      	mov	r1, r3
 8000bec:	4809      	ldr	r0, [pc, #36]	@ (8000c14 <MX_GPIO_Init+0x270>)
 8000bee:	f002 fdd9 	bl	80037a4 <HAL_GPIO_Init>
 8000bf2:	bf00      	nop
 8000bf4:	3738      	adds	r7, #56	@ 0x38
 8000bf6:	46bd      	mov	sp, r7
 8000bf8:	bd80      	pop	{r7, pc}
 8000bfa:	bf00      	nop
 8000bfc:	40023800 	.word	0x40023800
 8000c00:	40021000 	.word	0x40021000
 8000c04:	40020800 	.word	0x40020800
 8000c08:	40021400 	.word	0x40021400
 8000c0c:	40021800 	.word	0x40021800
 8000c10:	40020000 	.word	0x40020000
 8000c14:	40020c00 	.word	0x40020c00

08000c18 <MX_I2C1_Init>:
 8000c18:	b580      	push	{r7, lr}
 8000c1a:	af00      	add	r7, sp, #0
 8000c1c:	4b12      	ldr	r3, [pc, #72]	@ (8000c68 <MX_I2C1_Init+0x50>)
 8000c1e:	4a13      	ldr	r2, [pc, #76]	@ (8000c6c <MX_I2C1_Init+0x54>)
 8000c20:	601a      	str	r2, [r3, #0]
 8000c22:	4b11      	ldr	r3, [pc, #68]	@ (8000c68 <MX_I2C1_Init+0x50>)
 8000c24:	4a12      	ldr	r2, [pc, #72]	@ (8000c70 <MX_I2C1_Init+0x58>)
 8000c26:	605a      	str	r2, [r3, #4]
 8000c28:	4b0f      	ldr	r3, [pc, #60]	@ (8000c68 <MX_I2C1_Init+0x50>)
 8000c2a:	2200      	movs	r2, #0
 8000c2c:	609a      	str	r2, [r3, #8]
 8000c2e:	4b0e      	ldr	r3, [pc, #56]	@ (8000c68 <MX_I2C1_Init+0x50>)
 8000c30:	2200      	movs	r2, #0
 8000c32:	60da      	str	r2, [r3, #12]
 8000c34:	4b0c      	ldr	r3, [pc, #48]	@ (8000c68 <MX_I2C1_Init+0x50>)
 8000c36:	f44f 4280 	mov.w	r2, #16384	@ 0x4000
 8000c3a:	611a      	str	r2, [r3, #16]
 8000c3c:	4b0a      	ldr	r3, [pc, #40]	@ (8000c68 <MX_I2C1_Init+0x50>)
 8000c3e:	2200      	movs	r2, #0
 8000c40:	615a      	str	r2, [r3, #20]
 8000c42:	4b09      	ldr	r3, [pc, #36]	@ (8000c68 <MX_I2C1_Init+0x50>)
 8000c44:	2200      	movs	r2, #0
 8000c46:	619a      	str	r2, [r3, #24]
 8000c48:	4b07      	ldr	r3, [pc, #28]	@ (8000c68 <MX_I2C1_Init+0x50>)
 8000c4a:	2200      	movs	r2, #0
 8000c4c:	61da      	str	r2, [r3, #28]
 8000c4e:	4b06      	ldr	r3, [pc, #24]	@ (8000c68 <MX_I2C1_Init+0x50>)
 8000c50:	2200      	movs	r2, #0
 8000c52:	621a      	str	r2, [r3, #32]
 8000c54:	4804      	ldr	r0, [pc, #16]	@ (8000c68 <MX_I2C1_Init+0x50>)
 8000c56:	f002 ff75 	bl	8003b44 <HAL_I2C_Init>
 8000c5a:	4603      	mov	r3, r0
 8000c5c:	2b00      	cmp	r3, #0
 8000c5e:	d001      	beq.n	8000c64 <MX_I2C1_Init+0x4c>
 8000c60:	f000 fe0d 	bl	800187e <Error_Handler>
 8000c64:	bf00      	nop
 8000c66:	bd80      	pop	{r7, pc}
 8000c68:	20000188 	.word	0x20000188
 8000c6c:	40005400 	.word	0x40005400
 8000c70:	000186a0 	.word	0x000186a0

08000c74 <HAL_I2C_MspInit>:
 8000c74:	b580      	push	{r7, lr}
 8000c76:	b08a      	sub	sp, #40	@ 0x28
 8000c78:	af00      	add	r7, sp, #0
 8000c7a:	6078      	str	r0, [r7, #4]
 8000c7c:	f107 0314 	add.w	r3, r7, #20
 8000c80:	2200      	movs	r2, #0
 8000c82:	601a      	str	r2, [r3, #0]
 8000c84:	605a      	str	r2, [r3, #4]
 8000c86:	609a      	str	r2, [r3, #8]
 8000c88:	60da      	str	r2, [r3, #12]
 8000c8a:	611a      	str	r2, [r3, #16]
 8000c8c:	687b      	ldr	r3, [r7, #4]
 8000c8e:	681b      	ldr	r3, [r3, #0]
 8000c90:	4a19      	ldr	r2, [pc, #100]	@ (8000cf8 <HAL_I2C_MspInit+0x84>)
 8000c92:	4293      	cmp	r3, r2
 8000c94:	d12b      	bne.n	8000cee <HAL_I2C_MspInit+0x7a>
 8000c96:	2300      	movs	r3, #0
 8000c98:	613b      	str	r3, [r7, #16]
 8000c9a:	4b18      	ldr	r3, [pc, #96]	@ (8000cfc <HAL_I2C_MspInit+0x88>)
 8000c9c:	6b1b      	ldr	r3, [r3, #48]	@ 0x30
 8000c9e:	4a17      	ldr	r2, [pc, #92]	@ (8000cfc <HAL_I2C_MspInit+0x88>)
 8000ca0:	f043 0302 	orr.w	r3, r3, #2
 8000ca4:	6313      	str	r3, [r2, #48]	@ 0x30
 8000ca6:	4b15      	ldr	r3, [pc, #84]	@ (8000cfc <HAL_I2C_MspInit+0x88>)
 8000ca8:	6b1b      	ldr	r3, [r3, #48]	@ 0x30
 8000caa:	f003 0302 	and.w	r3, r3, #2
 8000cae:	613b      	str	r3, [r7, #16]
 8000cb0:	693b      	ldr	r3, [r7, #16]
 8000cb2:	23c0      	movs	r3, #192	@ 0xc0
 8000cb4:	617b      	str	r3, [r7, #20]
 8000cb6:	2312      	movs	r3, #18
 8000cb8:	61bb      	str	r3, [r7, #24]
 8000cba:	2300      	movs	r3, #0
 8000cbc:	61fb      	str	r3, [r7, #28]
 8000cbe:	2303      	movs	r3, #3
 8000cc0:	623b      	str	r3, [r7, #32]
 8000cc2:	2304      	movs	r3, #4
 8000cc4:	627b      	str	r3, [r7, #36]	@ 0x24
 8000cc6:	f107 0314 	add.w	r3, r7, #20
 8000cca:	4619      	mov	r1, r3
 8000ccc:	480c      	ldr	r0, [pc, #48]	@ (8000d00 <HAL_I2C_MspInit+0x8c>)
 8000cce:	f002 fd69 	bl	80037a4 <HAL_GPIO_Init>
 8000cd2:	2300      	movs	r3, #0
 8000cd4:	60fb      	str	r3, [r7, #12]
 8000cd6:	4b09      	ldr	r3, [pc, #36]	@ (8000cfc <HAL_I2C_MspInit+0x88>)
 8000cd8:	6c1b      	ldr	r3, [r3, #64]	@ 0x40
 8000cda:	4a08      	ldr	r2, [pc, #32]	@ (8000cfc <HAL_I2C_MspInit+0x88>)
 8000cdc:	f443 1300 	orr.w	r3, r3, #2097152	@ 0x200000
 8000ce0:	6413      	str	r3, [r2, #64]	@ 0x40
 8000ce2:	4b06      	ldr	r3, [pc, #24]	@ (8000cfc <HAL_I2C_MspInit+0x88>)
 8000ce4:	6c1b      	ldr	r3, [r3, #64]	@ 0x40
 8000ce6:	f403 1300 	and.w	r3, r3, #2097152	@ 0x200000
 8000cea:	60fb      	str	r3, [r7, #12]
 8000cec:	68fb      	ldr	r3, [r7, #12]
 8000cee:	bf00      	nop
 8000cf0:	3728      	adds	r7, #40	@ 0x28
 8000cf2:	46bd      	mov	sp, r7
 8000cf4:	bd80      	pop	{r7, pc}
 8000cf6:	bf00      	nop
 8000cf8:	40005400 	.word	0x40005400
 8000cfc:	40023800 	.word	0x40023800
 8000d00:	40020400 	.word	0x40020400

08000d04 <LCD_WR_REG>:
 8000d04:	b480      	push	{r7}
 8000d06:	b083      	sub	sp, #12
 8000d08:	af00      	add	r7, sp, #0
 8000d0a:	4603      	mov	r3, r0
 8000d0c:	80fb      	strh	r3, [r7, #6]
 8000d0e:	4a04      	ldr	r2, [pc, #16]	@ (8000d20 <LCD_WR_REG+0x1c>)
 8000d10:	88fb      	ldrh	r3, [r7, #6]
 8000d12:	8013      	strh	r3, [r2, #0]
 8000d14:	bf00      	nop
 8000d16:	370c      	adds	r7, #12
 8000d18:	46bd      	mov	sp, r7
 8000d1a:	f85d 7b04 	ldr.w	r7, [sp], #4
 8000d1e:	4770      	bx	lr
 8000d20:	600ffffe 	.word	0x600ffffe

08000d24 <LCD_WR_DATA>:
 8000d24:	b480      	push	{r7}
 8000d26:	b083      	sub	sp, #12
 8000d28:	af00      	add	r7, sp, #0
 8000d2a:	4603      	mov	r3, r0
 8000d2c:	80fb      	strh	r3, [r7, #6]
 8000d2e:	4a04      	ldr	r2, [pc, #16]	@ (8000d40 <LCD_WR_DATA+0x1c>)
 8000d30:	88fb      	ldrh	r3, [r7, #6]
 8000d32:	8053      	strh	r3, [r2, #2]
 8000d34:	bf00      	nop
 8000d36:	370c      	adds	r7, #12
 8000d38:	46bd      	mov	sp, r7
 8000d3a:	f85d 7b04 	ldr.w	r7, [sp], #4
 8000d3e:	4770      	bx	lr
 8000d40:	600ffffe 	.word	0x600ffffe

08000d44 <LCD_RD_DATA>:
 8000d44:	b480      	push	{r7}
 8000d46:	b083      	sub	sp, #12
 8000d48:	af00      	add	r7, sp, #0
 8000d4a:	4b06      	ldr	r3, [pc, #24]	@ (8000d64 <LCD_RD_DATA+0x20>)
 8000d4c:	885b      	ldrh	r3, [r3, #2]
 8000d4e:	b29b      	uxth	r3, r3
 8000d50:	80fb      	strh	r3, [r7, #6]
 8000d52:	88fb      	ldrh	r3, [r7, #6]
 8000d54:	b29b      	uxth	r3, r3
 8000d56:	4618      	mov	r0, r3
 8000d58:	370c      	adds	r7, #12
 8000d5a:	46bd      	mov	sp, r7
 8000d5c:	f85d 7b04 	ldr.w	r7, [sp], #4
 8000d60:	4770      	bx	lr
 8000d62:	bf00      	nop
 8000d64:	600ffffe 	.word	0x600ffffe

08000d68 <lcd_AddressSet>:
 8000d68:	b590      	push	{r4, r7, lr}
 8000d6a:	b083      	sub	sp, #12
 8000d6c:	af00      	add	r7, sp, #0
 8000d6e:	4604      	mov	r4, r0
 8000d70:	4608      	mov	r0, r1
 8000d72:	4611      	mov	r1, r2
 8000d74:	461a      	mov	r2, r3
 8000d76:	4623      	mov	r3, r4
 8000d78:	80fb      	strh	r3, [r7, #6]
 8000d7a:	4603      	mov	r3, r0
 8000d7c:	80bb      	strh	r3, [r7, #4]
 8000d7e:	460b      	mov	r3, r1
 8000d80:	807b      	strh	r3, [r7, #2]
 8000d82:	4613      	mov	r3, r2
 8000d84:	803b      	strh	r3, [r7, #0]
 8000d86:	202a      	movs	r0, #42	@ 0x2a
 8000d88:	f7ff ffbc 	bl	8000d04 <LCD_WR_REG>
 8000d8c:	88fb      	ldrh	r3, [r7, #6]
 8000d8e:	0a1b      	lsrs	r3, r3, #8
 8000d90:	b29b      	uxth	r3, r3
 8000d92:	4618      	mov	r0, r3
 8000d94:	f7ff ffc6 	bl	8000d24 <LCD_WR_DATA>
 8000d98:	88fb      	ldrh	r3, [r7, #6]
 8000d9a:	b2db      	uxtb	r3, r3
 8000d9c:	b29b      	uxth	r3, r3
 8000d9e:	4618      	mov	r0, r3
 8000da0:	f7ff ffc0 	bl	8000d24 <LCD_WR_DATA>
 8000da4:	887b      	ldrh	r3, [r7, #2]
 8000da6:	0a1b      	lsrs	r3, r3, #8
 8000da8:	b29b      	uxth	r3, r3
 8000daa:	4618      	mov	r0, r3
 8000dac:	f7ff ffba 	bl	8000d24 <LCD_WR_DATA>
 8000db0:	887b      	ldrh	r3, [r7, #2]
 8000db2:	b2db      	uxtb	r3, r3
 8000db4:	b29b      	uxth	r3, r3
 8000db6:	4618      	mov	r0, r3
 8000db8:	f7ff ffb4 	bl	8000d24 <LCD_WR_DATA>
 8000dbc:	202b      	movs	r0, #43	@ 0x2b
 8000dbe:	f7ff ffa1 	bl	8000d04 <LCD_WR_REG>
 8000dc2:	88bb      	ldrh	r3, [r7, #4]
 8000dc4:	0a1b      	lsrs	r3, r3, #8
 8000dc6:	b29b      	uxth	r3, r3
 8000dc8:	4618      	mov	r0, r3
 8000dca:	f7ff ffab 	bl	8000d24 <LCD_WR_DATA>
 8000dce:	88bb      	ldrh	r3, [r7, #4]
 8000dd0:	b2db      	uxtb	r3, r3
 8000dd2:	b29b      	uxth	r3, r3
 8000dd4:	4618      	mov	r0, r3
 8000dd6:	f7ff ffa5 	bl	8000d24 <LCD_WR_DATA>
 8000dda:	883b      	ldrh	r3, [r7, #0]
 8000ddc:	0a1b      	lsrs	r3, r3, #8
 8000dde:	b29b      	uxth	r3, r3
 8000de0:	4618      	mov	r0, r3
 8000de2:	f7ff ff9f 	bl	8000d24 <LCD_WR_DATA>
 8000de6:	883b      	ldrh	r3, [r7, #0]
 8000de8:	b2db      	uxtb	r3, r3
 8000dea:	b29b      	uxth	r3, r3
 8000dec:	4618      	mov	r0, r3
 8000dee:	f7ff ff99 	bl	8000d24 <LCD_WR_DATA>
 8000df2:	202c      	movs	r0, #44	@ 0x2c
 8000df4:	f7ff ff86 	bl	8000d04 <LCD_WR_REG>
 8000df8:	bf00      	nop
 8000dfa:	370c      	adds	r7, #12
 8000dfc:	46bd      	mov	sp, r7
 8000dfe:	bd90      	pop	{r4, r7, pc}

08000e00 <lcd_Clear>:
 8000e00:	b580      	push	{r7, lr}
 8000e02:	b084      	sub	sp, #16
 8000e04:	af00      	add	r7, sp, #0
 8000e06:	4603      	mov	r3, r0
 8000e08:	80fb      	strh	r3, [r7, #6]
 8000e0a:	4b15      	ldr	r3, [pc, #84]	@ (8000e60 <lcd_Clear+0x60>)
 8000e0c:	881b      	ldrh	r3, [r3, #0]
 8000e0e:	3b01      	subs	r3, #1
 8000e10:	b29a      	uxth	r2, r3
 8000e12:	4b13      	ldr	r3, [pc, #76]	@ (8000e60 <lcd_Clear+0x60>)
 8000e14:	885b      	ldrh	r3, [r3, #2]
 8000e16:	3b01      	subs	r3, #1
 8000e18:	b29b      	uxth	r3, r3
 8000e1a:	2100      	movs	r1, #0
 8000e1c:	2000      	movs	r0, #0
 8000e1e:	f7ff ffa3 	bl	8000d68 <lcd_AddressSet>
 8000e22:	2300      	movs	r3, #0
 8000e24:	81fb      	strh	r3, [r7, #14]
 8000e26:	e011      	b.n	8000e4c <lcd_Clear+0x4c>
 8000e28:	2300      	movs	r3, #0
 8000e2a:	81bb      	strh	r3, [r7, #12]
 8000e2c:	e006      	b.n	8000e3c <lcd_Clear+0x3c>
 8000e2e:	88fb      	ldrh	r3, [r7, #6]
 8000e30:	4618      	mov	r0, r3
 8000e32:	f7ff ff77 	bl	8000d24 <LCD_WR_DATA>
 8000e36:	89bb      	ldrh	r3, [r7, #12]
 8000e38:	3301      	adds	r3, #1
 8000e3a:	81bb      	strh	r3, [r7, #12]
 8000e3c:	4b08      	ldr	r3, [pc, #32]	@ (8000e60 <lcd_Clear+0x60>)
 8000e3e:	885b      	ldrh	r3, [r3, #2]
 8000e40:	89ba      	ldrh	r2, [r7, #12]
 8000e42:	429a      	cmp	r2, r3
 8000e44:	d3f3      	bcc.n	8000e2e <lcd_Clear+0x2e>
 8000e46:	89fb      	ldrh	r3, [r7, #14]
 8000e48:	3301      	adds	r3, #1
 8000e4a:	81fb      	strh	r3, [r7, #14]
 8000e4c:	4b04      	ldr	r3, [pc, #16]	@ (8000e60 <lcd_Clear+0x60>)
 8000e4e:	881b      	ldrh	r3, [r3, #0]
 8000e50:	89fa      	ldrh	r2, [r7, #14]
 8000e52:	429a      	cmp	r2, r3
 8000e54:	d3e8      	bcc.n	8000e28 <lcd_Clear+0x28>
 8000e56:	bf00      	nop
 8000e58:	bf00      	nop
 8000e5a:	3710      	adds	r7, #16
 8000e5c:	46bd      	mov	sp, r7
 8000e5e:	bd80      	pop	{r7, pc}
 8000e60:	200001dc 	.word	0x200001dc

08000e64 <lcd_DrawPoint>:
 8000e64:	b580      	push	{r7, lr}
 8000e66:	b082      	sub	sp, #8
 8000e68:	af00      	add	r7, sp, #0
 8000e6a:	4603      	mov	r3, r0
 8000e6c:	80fb      	strh	r3, [r7, #6]
 8000e6e:	460b      	mov	r3, r1
 8000e70:	80bb      	strh	r3, [r7, #4]
 8000e72:	4613      	mov	r3, r2
 8000e74:	807b      	strh	r3, [r7, #2]
 8000e76:	88bb      	ldrh	r3, [r7, #4]
 8000e78:	88fa      	ldrh	r2, [r7, #6]
 8000e7a:	88b9      	ldrh	r1, [r7, #4]
 8000e7c:	88f8      	ldrh	r0, [r7, #6]
 8000e7e:	f7ff ff73 	bl	8000d68 <lcd_AddressSet>
 8000e82:	887b      	ldrh	r3, [r7, #2]
 8000e84:	4618      	mov	r0, r3
 8000e86:	f7ff ff4d 	bl	8000d24 <LCD_WR_DATA>
 8000e8a:	bf00      	nop
 8000e8c:	3708      	adds	r7, #8
 8000e8e:	46bd      	mov	sp, r7
 8000e90:	bd80      	pop	{r7, pc}
	...

08000e94 <lcd_ShowChar>:
 8000e94:	b590      	push	{r4, r7, lr}
 8000e96:	b087      	sub	sp, #28
 8000e98:	af00      	add	r7, sp, #0
 8000e9a:	4604      	mov	r4, r0
 8000e9c:	4608      	mov	r0, r1
 8000e9e:	4611      	mov	r1, r2
 8000ea0:	461a      	mov	r2, r3
 8000ea2:	4623      	mov	r3, r4
 8000ea4:	80fb      	strh	r3, [r7, #6]
 8000ea6:	4603      	mov	r3, r0
 8000ea8:	80bb      	strh	r3, [r7, #4]
 8000eaa:	460b      	mov	r3, r1
 8000eac:	70fb      	strb	r3, [r7, #3]
 8000eae:	4613      	mov	r3, r2
 8000eb0:	803b      	strh	r3, [r7, #0]
 8000eb2:	2300      	movs	r3, #0
 8000eb4:	757b      	strb	r3, [r7, #21]
 8000eb6:	88fb      	ldrh	r3, [r7, #6]
 8000eb8:	823b      	strh	r3, [r7, #16]
 8000eba:	f897 302c 	ldrb.w	r3, [r7, #44]	@ 0x2c
 8000ebe:	085b      	lsrs	r3, r3, #1
 8000ec0:	73fb      	strb	r3, [r7, #15]
 8000ec2:	7bfb      	ldrb	r3, [r7, #15]
 8000ec4:	08db      	lsrs	r3, r3, #3
 8000ec6:	b2db      	uxtb	r3, r3
 8000ec8:	461a      	mov	r2, r3
 8000eca:	7bfb      	ldrb	r3, [r7, #15]
 8000ecc:	f003 0307 	and.w	r3, r3, #7
 8000ed0:	b2db      	uxtb	r3, r3
 8000ed2:	2b00      	cmp	r3, #0
 8000ed4:	bf14      	ite	ne
 8000ed6:	2301      	movne	r3, #1
 8000ed8:	2300      	moveq	r3, #0
 8000eda:	b2db      	uxtb	r3, r3
 8000edc:	4413      	add	r3, r2
 8000ede:	b29a      	uxth	r2, r3
 8000ee0:	f897 302c 	ldrb.w	r3, [r7, #44]	@ 0x2c
 8000ee4:	b29b      	uxth	r3, r3
 8000ee6:	fb12 f303 	smulbb	r3, r2, r3
 8000eea:	81bb      	strh	r3, [r7, #12]
 8000eec:	78fb      	ldrb	r3, [r7, #3]
 8000eee:	3b20      	subs	r3, #32
 8000ef0:	70fb      	strb	r3, [r7, #3]
 8000ef2:	7bfb      	ldrb	r3, [r7, #15]
 8000ef4:	b29a      	uxth	r2, r3
 8000ef6:	88fb      	ldrh	r3, [r7, #6]
 8000ef8:	4413      	add	r3, r2
 8000efa:	b29b      	uxth	r3, r3
 8000efc:	3b01      	subs	r3, #1
 8000efe:	b29c      	uxth	r4, r3
 8000f00:	f897 302c 	ldrb.w	r3, [r7, #44]	@ 0x2c
 8000f04:	b29a      	uxth	r2, r3
 8000f06:	88bb      	ldrh	r3, [r7, #4]
 8000f08:	4413      	add	r3, r2
 8000f0a:	b29b      	uxth	r3, r3
 8000f0c:	3b01      	subs	r3, #1
 8000f0e:	b29b      	uxth	r3, r3
 8000f10:	88b9      	ldrh	r1, [r7, #4]
 8000f12:	88f8      	ldrh	r0, [r7, #6]
 8000f14:	4622      	mov	r2, r4
 8000f16:	f7ff ff27 	bl	8000d68 <lcd_AddressSet>
 8000f1a:	2300      	movs	r3, #0
 8000f1c:	827b      	strh	r3, [r7, #18]
 8000f1e:	e07a      	b.n	8001016 <lcd_ShowChar+0x182>
 8000f20:	f897 302c 	ldrb.w	r3, [r7, #44]	@ 0x2c
 8000f24:	2b0c      	cmp	r3, #12
 8000f26:	d028      	beq.n	8000f7a <lcd_ShowChar+0xe6>
 8000f28:	f897 302c 	ldrb.w	r3, [r7, #44]	@ 0x2c
 8000f2c:	2b10      	cmp	r3, #16
 8000f2e:	d108      	bne.n	8000f42 <lcd_ShowChar+0xae>
 8000f30:	78fa      	ldrb	r2, [r7, #3]
 8000f32:	8a7b      	ldrh	r3, [r7, #18]
 8000f34:	493c      	ldr	r1, [pc, #240]	@ (8001028 <lcd_ShowChar+0x194>)
 8000f36:	0112      	lsls	r2, r2, #4
 8000f38:	440a      	add	r2, r1
 8000f3a:	4413      	add	r3, r2
 8000f3c:	781b      	ldrb	r3, [r3, #0]
 8000f3e:	75fb      	strb	r3, [r7, #23]
 8000f40:	e01b      	b.n	8000f7a <lcd_ShowChar+0xe6>
 8000f42:	f897 302c 	ldrb.w	r3, [r7, #44]	@ 0x2c
 8000f46:	2b18      	cmp	r3, #24
 8000f48:	d10b      	bne.n	8000f62 <lcd_ShowChar+0xce>
 8000f4a:	78fa      	ldrb	r2, [r7, #3]
 8000f4c:	8a79      	ldrh	r1, [r7, #18]
 8000f4e:	4837      	ldr	r0, [pc, #220]	@ (800102c <lcd_ShowChar+0x198>)
 8000f50:	4613      	mov	r3, r2
 8000f52:	005b      	lsls	r3, r3, #1
 8000f54:	4413      	add	r3, r2
 8000f56:	011b      	lsls	r3, r3, #4
 8000f58:	4403      	add	r3, r0
 8000f5a:	440b      	add	r3, r1
 8000f5c:	781b      	ldrb	r3, [r3, #0]
 8000f5e:	75fb      	strb	r3, [r7, #23]
 8000f60:	e00b      	b.n	8000f7a <lcd_ShowChar+0xe6>
 8000f62:	f897 302c 	ldrb.w	r3, [r7, #44]	@ 0x2c
 8000f66:	2b20      	cmp	r3, #32
 8000f68:	d15a      	bne.n	8001020 <lcd_ShowChar+0x18c>
 8000f6a:	78fa      	ldrb	r2, [r7, #3]
 8000f6c:	8a7b      	ldrh	r3, [r7, #18]
 8000f6e:	4930      	ldr	r1, [pc, #192]	@ (8001030 <lcd_ShowChar+0x19c>)
 8000f70:	0192      	lsls	r2, r2, #6
 8000f72:	440a      	add	r2, r1
 8000f74:	4413      	add	r3, r2
 8000f76:	781b      	ldrb	r3, [r3, #0]
 8000f78:	75fb      	strb	r3, [r7, #23]
 8000f7a:	2300      	movs	r3, #0
 8000f7c:	75bb      	strb	r3, [r7, #22]
 8000f7e:	e044      	b.n	800100a <lcd_ShowChar+0x176>
 8000f80:	f897 3030 	ldrb.w	r3, [r7, #48]	@ 0x30
 8000f84:	2b00      	cmp	r3, #0
 8000f86:	d120      	bne.n	8000fca <lcd_ShowChar+0x136>
 8000f88:	7dfa      	ldrb	r2, [r7, #23]
 8000f8a:	7dbb      	ldrb	r3, [r7, #22]
 8000f8c:	fa42 f303 	asr.w	r3, r2, r3
 8000f90:	f003 0301 	and.w	r3, r3, #1
 8000f94:	2b00      	cmp	r3, #0
 8000f96:	d004      	beq.n	8000fa2 <lcd_ShowChar+0x10e>
 8000f98:	883b      	ldrh	r3, [r7, #0]
 8000f9a:	4618      	mov	r0, r3
 8000f9c:	f7ff fec2 	bl	8000d24 <LCD_WR_DATA>
 8000fa0:	e003      	b.n	8000faa <lcd_ShowChar+0x116>
 8000fa2:	8d3b      	ldrh	r3, [r7, #40]	@ 0x28
 8000fa4:	4618      	mov	r0, r3
 8000fa6:	f7ff febd 	bl	8000d24 <LCD_WR_DATA>
 8000faa:	7d7b      	ldrb	r3, [r7, #21]
 8000fac:	3301      	adds	r3, #1
 8000fae:	757b      	strb	r3, [r7, #21]
 8000fb0:	7d7b      	ldrb	r3, [r7, #21]
 8000fb2:	7bfa      	ldrb	r2, [r7, #15]
 8000fb4:	fbb3 f1f2 	udiv	r1, r3, r2
 8000fb8:	fb01 f202 	mul.w	r2, r1, r2
 8000fbc:	1a9b      	subs	r3, r3, r2
 8000fbe:	b2db      	uxtb	r3, r3
 8000fc0:	2b00      	cmp	r3, #0
 8000fc2:	d11f      	bne.n	8001004 <lcd_ShowChar+0x170>
 8000fc4:	2300      	movs	r3, #0
 8000fc6:	757b      	strb	r3, [r7, #21]
 8000fc8:	e022      	b.n	8001010 <lcd_ShowChar+0x17c>
 8000fca:	7dfa      	ldrb	r2, [r7, #23]
 8000fcc:	7dbb      	ldrb	r3, [r7, #22]
 8000fce:	fa42 f303 	asr.w	r3, r2, r3
 8000fd2:	f003 0301 	and.w	r3, r3, #1
 8000fd6:	2b00      	cmp	r3, #0
 8000fd8:	d005      	beq.n	8000fe6 <lcd_ShowChar+0x152>
 8000fda:	883a      	ldrh	r2, [r7, #0]
 8000fdc:	88b9      	ldrh	r1, [r7, #4]
 8000fde:	88fb      	ldrh	r3, [r7, #6]
 8000fe0:	4618      	mov	r0, r3
 8000fe2:	f7ff ff3f 	bl	8000e64 <lcd_DrawPoint>
 8000fe6:	88fb      	ldrh	r3, [r7, #6]
 8000fe8:	3301      	adds	r3, #1
 8000fea:	80fb      	strh	r3, [r7, #6]
 8000fec:	88fa      	ldrh	r2, [r7, #6]
 8000fee:	8a3b      	ldrh	r3, [r7, #16]
 8000ff0:	1ad2      	subs	r2, r2, r3
 8000ff2:	7bfb      	ldrb	r3, [r7, #15]
 8000ff4:	429a      	cmp	r2, r3
 8000ff6:	d105      	bne.n	8001004 <lcd_ShowChar+0x170>
 8000ff8:	8a3b      	ldrh	r3, [r7, #16]
 8000ffa:	80fb      	strh	r3, [r7, #6]
 8000ffc:	88bb      	ldrh	r3, [r7, #4]
 8000ffe:	3301      	adds	r3, #1
 8001000:	80bb      	strh	r3, [r7, #4]
 8001002:	e005      	b.n	8001010 <lcd_ShowChar+0x17c>
 8001004:	7dbb      	ldrb	r3, [r7, #22]
 8001006:	3301      	adds	r3, #1
 8001008:	75bb      	strb	r3, [r7, #22]
 800100a:	7dbb      	ldrb	r3, [r7, #22]
 800100c:	2b07      	cmp	r3, #7
 800100e:	d9b7      	bls.n	8000f80 <lcd_ShowChar+0xec>
 8001010:	8a7b      	ldrh	r3, [r7, #18]
 8001012:	3301      	adds	r3, #1
 8001014:	827b      	strh	r3, [r7, #18]
 8001016:	8a7a      	ldrh	r2, [r7, #18]
 8001018:	89bb      	ldrh	r3, [r7, #12]
 800101a:	429a      	cmp	r2, r3
 800101c:	d380      	bcc.n	8000f20 <lcd_ShowChar+0x8c>
 800101e:	e000      	b.n	8001022 <lcd_ShowChar+0x18e>
 8001020:	bf00      	nop
 8001022:	371c      	adds	r7, #28
 8001024:	46bd      	mov	sp, r7
 8001026:	bd90      	pop	{r4, r7, pc}
 8001028:	0800835c 	.word	0x0800835c
 800102c:	0800894c 	.word	0x0800894c
 8001030:	08009b1c 	.word	0x08009b1c

08001034 <mypow>:
 8001034:	b480      	push	{r7}
 8001036:	b085      	sub	sp, #20
 8001038:	af00      	add	r7, sp, #0
 800103a:	4603      	mov	r3, r0
 800103c:	460a      	mov	r2, r1
 800103e:	71fb      	strb	r3, [r7, #7]
 8001040:	4613      	mov	r3, r2
 8001042:	71bb      	strb	r3, [r7, #6]
 8001044:	2301      	movs	r3, #1
 8001046:	60fb      	str	r3, [r7, #12]
 8001048:	e004      	b.n	8001054 <mypow+0x20>
 800104a:	79fa      	ldrb	r2, [r7, #7]
 800104c:	68fb      	ldr	r3, [r7, #12]
 800104e:	fb02 f303 	mul.w	r3, r2, r3
 8001052:	60fb      	str	r3, [r7, #12]
 8001054:	79bb      	ldrb	r3, [r7, #6]
 8001056:	1e5a      	subs	r2, r3, #1
 8001058:	71ba      	strb	r2, [r7, #6]
 800105a:	2b00      	cmp	r3, #0
 800105c:	d1f5      	bne.n	800104a <mypow+0x16>
 800105e:	68fb      	ldr	r3, [r7, #12]
 8001060:	4618      	mov	r0, r3
 8001062:	3714      	adds	r7, #20
 8001064:	46bd      	mov	sp, r7
 8001066:	f85d 7b04 	ldr.w	r7, [sp], #4
 800106a:	4770      	bx	lr

0800106c <lcd_ShowIntNum>:
 800106c:	b590      	push	{r4, r7, lr}
 800106e:	b089      	sub	sp, #36	@ 0x24
 8001070:	af04      	add	r7, sp, #16
 8001072:	4604      	mov	r4, r0
 8001074:	4608      	mov	r0, r1
 8001076:	4611      	mov	r1, r2
 8001078:	461a      	mov	r2, r3
 800107a:	4623      	mov	r3, r4
 800107c:	80fb      	strh	r3, [r7, #6]
 800107e:	4603      	mov	r3, r0
 8001080:	80bb      	strh	r3, [r7, #4]
 8001082:	460b      	mov	r3, r1
 8001084:	807b      	strh	r3, [r7, #2]
 8001086:	4613      	mov	r3, r2
 8001088:	707b      	strb	r3, [r7, #1]
 800108a:	2300      	movs	r3, #0
 800108c:	73bb      	strb	r3, [r7, #14]
 800108e:	f897 3028 	ldrb.w	r3, [r7, #40]	@ 0x28
 8001092:	085b      	lsrs	r3, r3, #1
 8001094:	737b      	strb	r3, [r7, #13]
 8001096:	2300      	movs	r3, #0
 8001098:	73fb      	strb	r3, [r7, #15]
 800109a:	e059      	b.n	8001150 <lcd_ShowIntNum+0xe4>
 800109c:	887c      	ldrh	r4, [r7, #2]
 800109e:	787a      	ldrb	r2, [r7, #1]
 80010a0:	7bfb      	ldrb	r3, [r7, #15]
 80010a2:	1ad3      	subs	r3, r2, r3
 80010a4:	b2db      	uxtb	r3, r3
 80010a6:	3b01      	subs	r3, #1
 80010a8:	b2db      	uxtb	r3, r3
 80010aa:	4619      	mov	r1, r3
 80010ac:	200a      	movs	r0, #10
 80010ae:	f7ff ffc1 	bl	8001034 <mypow>
 80010b2:	4603      	mov	r3, r0
 80010b4:	fbb4 f1f3 	udiv	r1, r4, r3
 80010b8:	4b2a      	ldr	r3, [pc, #168]	@ (8001164 <lcd_ShowIntNum+0xf8>)
 80010ba:	fba3 2301 	umull	r2, r3, r3, r1
 80010be:	08da      	lsrs	r2, r3, #3
 80010c0:	4613      	mov	r3, r2
 80010c2:	009b      	lsls	r3, r3, #2
 80010c4:	4413      	add	r3, r2
 80010c6:	005b      	lsls	r3, r3, #1
 80010c8:	1aca      	subs	r2, r1, r3
 80010ca:	4613      	mov	r3, r2
 80010cc:	733b      	strb	r3, [r7, #12]
 80010ce:	7bbb      	ldrb	r3, [r7, #14]
 80010d0:	2b00      	cmp	r3, #0
 80010d2:	d121      	bne.n	8001118 <lcd_ShowIntNum+0xac>
 80010d4:	7bfa      	ldrb	r2, [r7, #15]
 80010d6:	787b      	ldrb	r3, [r7, #1]
 80010d8:	3b01      	subs	r3, #1
 80010da:	429a      	cmp	r2, r3
 80010dc:	da1c      	bge.n	8001118 <lcd_ShowIntNum+0xac>
 80010de:	7b3b      	ldrb	r3, [r7, #12]
 80010e0:	2b00      	cmp	r3, #0
 80010e2:	d117      	bne.n	8001114 <lcd_ShowIntNum+0xa8>
 80010e4:	7bfb      	ldrb	r3, [r7, #15]
 80010e6:	b29a      	uxth	r2, r3
 80010e8:	7b7b      	ldrb	r3, [r7, #13]
 80010ea:	b29b      	uxth	r3, r3
 80010ec:	fb12 f303 	smulbb	r3, r2, r3
 80010f0:	b29a      	uxth	r2, r3
 80010f2:	88fb      	ldrh	r3, [r7, #6]
 80010f4:	4413      	add	r3, r2
 80010f6:	b298      	uxth	r0, r3
 80010f8:	8c3a      	ldrh	r2, [r7, #32]
 80010fa:	88b9      	ldrh	r1, [r7, #4]
 80010fc:	2300      	movs	r3, #0
 80010fe:	9302      	str	r3, [sp, #8]
 8001100:	f897 3028 	ldrb.w	r3, [r7, #40]	@ 0x28
 8001104:	9301      	str	r3, [sp, #4]
 8001106:	8cbb      	ldrh	r3, [r7, #36]	@ 0x24
 8001108:	9300      	str	r3, [sp, #0]
 800110a:	4613      	mov	r3, r2
 800110c:	2220      	movs	r2, #32
 800110e:	f7ff fec1 	bl	8000e94 <lcd_ShowChar>
 8001112:	e01a      	b.n	800114a <lcd_ShowIntNum+0xde>
 8001114:	2301      	movs	r3, #1
 8001116:	73bb      	strb	r3, [r7, #14]
 8001118:	7bfb      	ldrb	r3, [r7, #15]
 800111a:	b29a      	uxth	r2, r3
 800111c:	7b7b      	ldrb	r3, [r7, #13]
 800111e:	b29b      	uxth	r3, r3
 8001120:	fb12 f303 	smulbb	r3, r2, r3
 8001124:	b29a      	uxth	r2, r3
 8001126:	88fb      	ldrh	r3, [r7, #6]
 8001128:	4413      	add	r3, r2
 800112a:	b298      	uxth	r0, r3
 800112c:	7b3b      	ldrb	r3, [r7, #12]
 800112e:	3330      	adds	r3, #48	@ 0x30
 8001130:	b2da      	uxtb	r2, r3
 8001132:	8c3c      	ldrh	r4, [r7, #32]
 8001134:	88b9      	ldrh	r1, [r7, #4]
 8001136:	2300      	movs	r3, #0
 8001138:	9302      	str	r3, [sp, #8]
 800113a:	f897 3028 	ldrb.w	r3, [r7, #40]	@ 0x28
 800113e:	9301      	str	r3, [sp, #4]
 8001140:	8cbb      	ldrh	r3, [r7, #36]	@ 0x24
 8001142:	9300      	str	r3, [sp, #0]
 8001144:	4623      	mov	r3, r4
 8001146:	f7ff fea5 	bl	8000e94 <lcd_ShowChar>
 800114a:	7bfb      	ldrb	r3, [r7, #15]
 800114c:	3301      	adds	r3, #1
 800114e:	73fb      	strb	r3, [r7, #15]
 8001150:	7bfa      	ldrb	r2, [r7, #15]
 8001152:	787b      	ldrb	r3, [r7, #1]
 8001154:	429a      	cmp	r2, r3
 8001156:	d3a1      	bcc.n	800109c <lcd_ShowIntNum+0x30>
 8001158:	bf00      	nop
 800115a:	bf00      	nop
 800115c:	3714      	adds	r7, #20
 800115e:	46bd      	mov	sp, r7
 8001160:	bd90      	pop	{r4, r7, pc}
 8001162:	bf00      	nop
 8001164:	cccccccd 	.word	0xcccccccd

08001168 <lcd_ShowFloatNum>:
 8001168:	b590      	push	{r4, r7, lr}
 800116a:	b08b      	sub	sp, #44	@ 0x2c
 800116c:	af04      	add	r7, sp, #16
 800116e:	4604      	mov	r4, r0
 8001170:	4608      	mov	r0, r1
 8001172:	ed87 0a02 	vstr	s0, [r7, #8]
 8001176:	4611      	mov	r1, r2
 8001178:	461a      	mov	r2, r3
 800117a:	4623      	mov	r3, r4
 800117c:	81fb      	strh	r3, [r7, #14]
 800117e:	4603      	mov	r3, r0
 8001180:	81bb      	strh	r3, [r7, #12]
 8001182:	460b      	mov	r3, r1
 8001184:	71fb      	strb	r3, [r7, #7]
 8001186:	4613      	mov	r3, r2
 8001188:	80bb      	strh	r3, [r7, #4]
 800118a:	f897 302c 	ldrb.w	r3, [r7, #44]	@ 0x2c
 800118e:	085b      	lsrs	r3, r3, #1
 8001190:	75bb      	strb	r3, [r7, #22]
 8001192:	edd7 7a02 	vldr	s15, [r7, #8]
 8001196:	ed9f 7a36 	vldr	s14, [pc, #216]	@ 8001270 <lcd_ShowFloatNum+0x108>
 800119a:	ee67 7a87 	vmul.f32	s15, s15, s14
 800119e:	eefc 7ae7 	vcvt.u32.f32	s15, s15
 80011a2:	ee17 3a90 	vmov	r3, s15
 80011a6:	82bb      	strh	r3, [r7, #20]
 80011a8:	2300      	movs	r3, #0
 80011aa:	75fb      	strb	r3, [r7, #23]
 80011ac:	e057      	b.n	800125e <lcd_ShowFloatNum+0xf6>
 80011ae:	8abc      	ldrh	r4, [r7, #20]
 80011b0:	79fa      	ldrb	r2, [r7, #7]
 80011b2:	7dfb      	ldrb	r3, [r7, #23]
 80011b4:	1ad3      	subs	r3, r2, r3
 80011b6:	b2db      	uxtb	r3, r3
 80011b8:	3b01      	subs	r3, #1
 80011ba:	b2db      	uxtb	r3, r3
 80011bc:	4619      	mov	r1, r3
 80011be:	200a      	movs	r0, #10
 80011c0:	f7ff ff38 	bl	8001034 <mypow>
 80011c4:	4603      	mov	r3, r0
 80011c6:	fbb4 f1f3 	udiv	r1, r4, r3
 80011ca:	4b2a      	ldr	r3, [pc, #168]	@ (8001274 <lcd_ShowFloatNum+0x10c>)
 80011cc:	fba3 2301 	umull	r2, r3, r3, r1
 80011d0:	08da      	lsrs	r2, r3, #3
 80011d2:	4613      	mov	r3, r2
 80011d4:	009b      	lsls	r3, r3, #2
 80011d6:	4413      	add	r3, r2
 80011d8:	005b      	lsls	r3, r3, #1
 80011da:	1aca      	subs	r2, r1, r3
 80011dc:	4613      	mov	r3, r2
 80011de:	74fb      	strb	r3, [r7, #19]
 80011e0:	7dfa      	ldrb	r2, [r7, #23]
 80011e2:	79fb      	ldrb	r3, [r7, #7]
 80011e4:	3b02      	subs	r3, #2
 80011e6:	429a      	cmp	r2, r3
 80011e8:	d11d      	bne.n	8001226 <lcd_ShowFloatNum+0xbe>
 80011ea:	79fb      	ldrb	r3, [r7, #7]
 80011ec:	3b02      	subs	r3, #2
 80011ee:	b29a      	uxth	r2, r3
 80011f0:	7dbb      	ldrb	r3, [r7, #22]
 80011f2:	b29b      	uxth	r3, r3
 80011f4:	fb12 f303 	smulbb	r3, r2, r3
 80011f8:	b29a      	uxth	r2, r3
 80011fa:	89fb      	ldrh	r3, [r7, #14]
 80011fc:	4413      	add	r3, r2
 80011fe:	b298      	uxth	r0, r3
 8001200:	88ba      	ldrh	r2, [r7, #4]
 8001202:	89b9      	ldrh	r1, [r7, #12]
 8001204:	2300      	movs	r3, #0
 8001206:	9302      	str	r3, [sp, #8]
 8001208:	f897 302c 	ldrb.w	r3, [r7, #44]	@ 0x2c
 800120c:	9301      	str	r3, [sp, #4]
 800120e:	8d3b      	ldrh	r3, [r7, #40]	@ 0x28
 8001210:	9300      	str	r3, [sp, #0]
 8001212:	4613      	mov	r3, r2
 8001214:	222e      	movs	r2, #46	@ 0x2e
 8001216:	f7ff fe3d 	bl	8000e94 <lcd_ShowChar>
 800121a:	7dfb      	ldrb	r3, [r7, #23]
 800121c:	3301      	adds	r3, #1
 800121e:	75fb      	strb	r3, [r7, #23]
 8001220:	79fb      	ldrb	r3, [r7, #7]
 8001222:	3301      	adds	r3, #1
 8001224:	71fb      	strb	r3, [r7, #7]
 8001226:	7dfb      	ldrb	r3, [r7, #23]
 8001228:	b29a      	uxth	r2, r3
 800122a:	7dbb      	ldrb	r3, [r7, #22]
 800122c:	b29b      	uxth	r3, r3
 800122e:	fb12 f303 	smulbb	r3, r2, r3
 8001232:	b29a      	uxth	r2, r3
 8001234:	89fb      	ldrh	r3, [r7, #14]
 8001236:	4413      	add	r3, r2
 8001238:	b298      	uxth	r0, r3
 800123a:	7cfb      	ldrb	r3, [r7, #19]
 800123c:	3330      	adds	r3, #48	@ 0x30
 800123e:	b2da      	uxtb	r2, r3
 8001240:	88bc      	ldrh	r4, [r7, #4]
 8001242:	89b9      	ldrh	r1, [r7, #12]
 8001244:	2300      	movs	r3, #0
 8001246:	9302      	str	r3, [sp, #8]
 8001248:	f897 302c 	ldrb.w	r3, [r7, #44]	@ 0x2c
 800124c:	9301      	str	r3, [sp, #4]
 800124e:	8d3b      	ldrh	r3, [r7, #40]	@ 0x28
 8001250:	9300      	str	r3, [sp, #0]
 8001252:	4623      	mov	r3, r4
 8001254:	f7ff fe1e 	bl	8000e94 <lcd_ShowChar>
 8001258:	7dfb      	ldrb	r3, [r7, #23]
 800125a:	3301      	adds	r3, #1
 800125c:	75fb      	strb	r3, [r7, #23]
 800125e:	7dfa      	ldrb	r2, [r7, #23]
 8001260:	79fb      	ldrb	r3, [r7, #7]
 8001262:	429a      	cmp	r2, r3
 8001264:	d3a3      	bcc.n	80011ae <lcd_ShowFloatNum+0x46>
 8001266:	bf00      	nop
 8001268:	bf00      	nop
 800126a:	371c      	adds	r7, #28
 800126c:	46bd      	mov	sp, r7
 800126e:	bd90      	pop	{r4, r7, pc}
 8001270:	42c80000 	.word	0x42c80000
 8001274:	cccccccd 	.word	0xcccccccd

08001278 <lcd_SetDir>:
 8001278:	b480      	push	{r7}
 800127a:	b083      	sub	sp, #12
 800127c:	af00      	add	r7, sp, #0
 800127e:	4603      	mov	r3, r0
 8001280:	71fb      	strb	r3, [r7, #7]
 8001282:	79fb      	ldrb	r3, [r7, #7]
 8001284:	091b      	lsrs	r3, r3, #4
 8001286:	b2db      	uxtb	r3, r3
 8001288:	f003 0303 	and.w	r3, r3, #3
 800128c:	b2db      	uxtb	r3, r3
 800128e:	2b00      	cmp	r3, #0
 8001290:	d007      	beq.n	80012a2 <lcd_SetDir+0x2a>
 8001292:	4b0a      	ldr	r3, [pc, #40]	@ (80012bc <lcd_SetDir+0x44>)
 8001294:	f44f 72a0 	mov.w	r2, #320	@ 0x140
 8001298:	801a      	strh	r2, [r3, #0]
 800129a:	4b08      	ldr	r3, [pc, #32]	@ (80012bc <lcd_SetDir+0x44>)
 800129c:	22f0      	movs	r2, #240	@ 0xf0
 800129e:	805a      	strh	r2, [r3, #2]
 80012a0:	e006      	b.n	80012b0 <lcd_SetDir+0x38>
 80012a2:	4b06      	ldr	r3, [pc, #24]	@ (80012bc <lcd_SetDir+0x44>)
 80012a4:	22f0      	movs	r2, #240	@ 0xf0
 80012a6:	801a      	strh	r2, [r3, #0]
 80012a8:	4b04      	ldr	r3, [pc, #16]	@ (80012bc <lcd_SetDir+0x44>)
 80012aa:	f44f 72a0 	mov.w	r2, #320	@ 0x140
 80012ae:	805a      	strh	r2, [r3, #2]
 80012b0:	bf00      	nop
 80012b2:	370c      	adds	r7, #12
 80012b4:	46bd      	mov	sp, r7
 80012b6:	f85d 7b04 	ldr.w	r7, [sp], #4
 80012ba:	4770      	bx	lr
 80012bc:	200001dc 	.word	0x200001dc

080012c0 <lcd_init>:
 80012c0:	b580      	push	{r7, lr}
 80012c2:	af00      	add	r7, sp, #0
 80012c4:	2200      	movs	r2, #0
 80012c6:	f44f 5100 	mov.w	r1, #8192	@ 0x2000
 80012ca:	48aa      	ldr	r0, [pc, #680]	@ (8001574 <lcd_init+0x2b4>)
 80012cc:	f002 fc06 	bl	8003adc <HAL_GPIO_WritePin>
 80012d0:	f44f 70fa 	mov.w	r0, #500	@ 0x1f4
 80012d4:	f001 f91c 	bl	8002510 <HAL_Delay>
 80012d8:	2201      	movs	r2, #1
 80012da:	f44f 5100 	mov.w	r1, #8192	@ 0x2000
 80012de:	48a5      	ldr	r0, [pc, #660]	@ (8001574 <lcd_init+0x2b4>)
 80012e0:	f002 fbfc 	bl	8003adc <HAL_GPIO_WritePin>
 80012e4:	f44f 70fa 	mov.w	r0, #500	@ 0x1f4
 80012e8:	f001 f912 	bl	8002510 <HAL_Delay>
 80012ec:	2000      	movs	r0, #0
 80012ee:	f7ff ffc3 	bl	8001278 <lcd_SetDir>
 80012f2:	20d3      	movs	r0, #211	@ 0xd3
 80012f4:	f7ff fd06 	bl	8000d04 <LCD_WR_REG>
 80012f8:	f7ff fd24 	bl	8000d44 <LCD_RD_DATA>
 80012fc:	4603      	mov	r3, r0
 80012fe:	461a      	mov	r2, r3
 8001300:	4b9d      	ldr	r3, [pc, #628]	@ (8001578 <lcd_init+0x2b8>)
 8001302:	809a      	strh	r2, [r3, #4]
 8001304:	f7ff fd1e 	bl	8000d44 <LCD_RD_DATA>
 8001308:	4603      	mov	r3, r0
 800130a:	461a      	mov	r2, r3
 800130c:	4b9a      	ldr	r3, [pc, #616]	@ (8001578 <lcd_init+0x2b8>)
 800130e:	809a      	strh	r2, [r3, #4]
 8001310:	f7ff fd18 	bl	8000d44 <LCD_RD_DATA>
 8001314:	4603      	mov	r3, r0
 8001316:	461a      	mov	r2, r3
 8001318:	4b97      	ldr	r3, [pc, #604]	@ (8001578 <lcd_init+0x2b8>)
 800131a:	809a      	strh	r2, [r3, #4]
 800131c:	4b96      	ldr	r3, [pc, #600]	@ (8001578 <lcd_init+0x2b8>)
 800131e:	889b      	ldrh	r3, [r3, #4]
 8001320:	021b      	lsls	r3, r3, #8
 8001322:	b29a      	uxth	r2, r3
 8001324:	4b94      	ldr	r3, [pc, #592]	@ (8001578 <lcd_init+0x2b8>)
 8001326:	809a      	strh	r2, [r3, #4]
 8001328:	f7ff fd0c 	bl	8000d44 <LCD_RD_DATA>
 800132c:	4603      	mov	r3, r0
 800132e:	461a      	mov	r2, r3
 8001330:	4b91      	ldr	r3, [pc, #580]	@ (8001578 <lcd_init+0x2b8>)
 8001332:	889b      	ldrh	r3, [r3, #4]
 8001334:	4313      	orrs	r3, r2
 8001336:	b29a      	uxth	r2, r3
 8001338:	4b8f      	ldr	r3, [pc, #572]	@ (8001578 <lcd_init+0x2b8>)
 800133a:	809a      	strh	r2, [r3, #4]
 800133c:	20cf      	movs	r0, #207	@ 0xcf
 800133e:	f7ff fce1 	bl	8000d04 <LCD_WR_REG>
 8001342:	2000      	movs	r0, #0
 8001344:	f7ff fcee 	bl	8000d24 <LCD_WR_DATA>
 8001348:	20c1      	movs	r0, #193	@ 0xc1
 800134a:	f7ff fceb 	bl	8000d24 <LCD_WR_DATA>
 800134e:	2030      	movs	r0, #48	@ 0x30
 8001350:	f7ff fce8 	bl	8000d24 <LCD_WR_DATA>
 8001354:	20ed      	movs	r0, #237	@ 0xed
 8001356:	f7ff fcd5 	bl	8000d04 <LCD_WR_REG>
 800135a:	2064      	movs	r0, #100	@ 0x64
 800135c:	f7ff fce2 	bl	8000d24 <LCD_WR_DATA>
 8001360:	2003      	movs	r0, #3
 8001362:	f7ff fcdf 	bl	8000d24 <LCD_WR_DATA>
 8001366:	2012      	movs	r0, #18
 8001368:	f7ff fcdc 	bl	8000d24 <LCD_WR_DATA>
 800136c:	2081      	movs	r0, #129	@ 0x81
 800136e:	f7ff fcd9 	bl	8000d24 <LCD_WR_DATA>
 8001372:	20e8      	movs	r0, #232	@ 0xe8
 8001374:	f7ff fcc6 	bl	8000d04 <LCD_WR_REG>
 8001378:	2085      	movs	r0, #133	@ 0x85
 800137a:	f7ff fcd3 	bl	8000d24 <LCD_WR_DATA>
 800137e:	2010      	movs	r0, #16
 8001380:	f7ff fcd0 	bl	8000d24 <LCD_WR_DATA>
 8001384:	207a      	movs	r0, #122	@ 0x7a
 8001386:	f7ff fccd 	bl	8000d24 <LCD_WR_DATA>
 800138a:	20cb      	movs	r0, #203	@ 0xcb
 800138c:	f7ff fcba 	bl	8000d04 <LCD_WR_REG>
 8001390:	2039      	movs	r0, #57	@ 0x39
 8001392:	f7ff fcc7 	bl	8000d24 <LCD_WR_DATA>
 8001396:	202c      	movs	r0, #44	@ 0x2c
 8001398:	f7ff fcc4 	bl	8000d24 <LCD_WR_DATA>
 800139c:	2000      	movs	r0, #0
 800139e:	f7ff fcc1 	bl	8000d24 <LCD_WR_DATA>
 80013a2:	2034      	movs	r0, #52	@ 0x34
 80013a4:	f7ff fcbe 	bl	8000d24 <LCD_WR_DATA>
 80013a8:	2002      	movs	r0, #2
 80013aa:	f7ff fcbb 	bl	8000d24 <LCD_WR_DATA>
 80013ae:	20f7      	movs	r0, #247	@ 0xf7
 80013b0:	f7ff fca8 	bl	8000d04 <LCD_WR_REG>
 80013b4:	2020      	movs	r0, #32
 80013b6:	f7ff fcb5 	bl	8000d24 <LCD_WR_DATA>
 80013ba:	20ea      	movs	r0, #234	@ 0xea
 80013bc:	f7ff fca2 	bl	8000d04 <LCD_WR_REG>
 80013c0:	2000      	movs	r0, #0
 80013c2:	f7ff fcaf 	bl	8000d24 <LCD_WR_DATA>
 80013c6:	2000      	movs	r0, #0
 80013c8:	f7ff fcac 	bl	8000d24 <LCD_WR_DATA>
 80013cc:	20c0      	movs	r0, #192	@ 0xc0
 80013ce:	f7ff fc99 	bl	8000d04 <LCD_WR_REG>
 80013d2:	201b      	movs	r0, #27
 80013d4:	f7ff fca6 	bl	8000d24 <LCD_WR_DATA>
 80013d8:	20c1      	movs	r0, #193	@ 0xc1
 80013da:	f7ff fc93 	bl	8000d04 <LCD_WR_REG>
 80013de:	2001      	movs	r0, #1
 80013e0:	f7ff fca0 	bl	8000d24 <LCD_WR_DATA>
 80013e4:	20c5      	movs	r0, #197	@ 0xc5
 80013e6:	f7ff fc8d 	bl	8000d04 <LCD_WR_REG>
 80013ea:	2030      	movs	r0, #48	@ 0x30
 80013ec:	f7ff fc9a 	bl	8000d24 <LCD_WR_DATA>
 80013f0:	2030      	movs	r0, #48	@ 0x30
 80013f2:	f7ff fc97 	bl	8000d24 <LCD_WR_DATA>
 80013f6:	20c7      	movs	r0, #199	@ 0xc7
 80013f8:	f7ff fc84 	bl	8000d04 <LCD_WR_REG>
 80013fc:	20b7      	movs	r0, #183	@ 0xb7
 80013fe:	f7ff fc91 	bl	8000d24 <LCD_WR_DATA>
 8001402:	2036      	movs	r0, #54	@ 0x36
 8001404:	f7ff fc7e 	bl	8000d04 <LCD_WR_REG>
 8001408:	2008      	movs	r0, #8
 800140a:	f7ff fc8b 	bl	8000d24 <LCD_WR_DATA>
 800140e:	203a      	movs	r0, #58	@ 0x3a
 8001410:	f7ff fc78 	bl	8000d04 <LCD_WR_REG>
 8001414:	2055      	movs	r0, #85	@ 0x55
 8001416:	f7ff fc85 	bl	8000d24 <LCD_WR_DATA>
 800141a:	20b1      	movs	r0, #177	@ 0xb1
 800141c:	f7ff fc72 	bl	8000d04 <LCD_WR_REG>
 8001420:	2000      	movs	r0, #0
 8001422:	f7ff fc7f 	bl	8000d24 <LCD_WR_DATA>
 8001426:	201a      	movs	r0, #26
 8001428:	f7ff fc7c 	bl	8000d24 <LCD_WR_DATA>
 800142c:	20b6      	movs	r0, #182	@ 0xb6
 800142e:	f7ff fc69 	bl	8000d04 <LCD_WR_REG>
 8001432:	200a      	movs	r0, #10
 8001434:	f7ff fc76 	bl	8000d24 <LCD_WR_DATA>
 8001438:	20a2      	movs	r0, #162	@ 0xa2
 800143a:	f7ff fc73 	bl	8000d24 <LCD_WR_DATA>
 800143e:	20f2      	movs	r0, #242	@ 0xf2
 8001440:	f7ff fc60 	bl	8000d04 <LCD_WR_REG>
 8001444:	2000      	movs	r0, #0
 8001446:	f7ff fc6d 	bl	8000d24 <LCD_WR_DATA>
 800144a:	2026      	movs	r0, #38	@ 0x26
 800144c:	f7ff fc5a 	bl	8000d04 <LCD_WR_REG>
 8001450:	2001      	movs	r0, #1
 8001452:	f7ff fc67 	bl	8000d24 <LCD_WR_DATA>
 8001456:	20e0      	movs	r0, #224	@ 0xe0
 8001458:	f7ff fc54 	bl	8000d04 <LCD_WR_REG>
 800145c:	200f      	movs	r0, #15
 800145e:	f7ff fc61 	bl	8000d24 <LCD_WR_DATA>
 8001462:	202a      	movs	r0, #42	@ 0x2a
 8001464:	f7ff fc5e 	bl	8000d24 <LCD_WR_DATA>
 8001468:	2028      	movs	r0, #40	@ 0x28
 800146a:	f7ff fc5b 	bl	8000d24 <LCD_WR_DATA>
 800146e:	2008      	movs	r0, #8
 8001470:	f7ff fc58 	bl	8000d24 <LCD_WR_DATA>
 8001474:	200e      	movs	r0, #14
 8001476:	f7ff fc55 	bl	8000d24 <LCD_WR_DATA>
 800147a:	2008      	movs	r0, #8
 800147c:	f7ff fc52 	bl	8000d24 <LCD_WR_DATA>
 8001480:	2054      	movs	r0, #84	@ 0x54
 8001482:	f7ff fc4f 	bl	8000d24 <LCD_WR_DATA>
 8001486:	20a9      	movs	r0, #169	@ 0xa9
 8001488:	f7ff fc4c 	bl	8000d24 <LCD_WR_DATA>
 800148c:	2043      	movs	r0, #67	@ 0x43
 800148e:	f7ff fc49 	bl	8000d24 <LCD_WR_DATA>
 8001492:	200a      	movs	r0, #10
 8001494:	f7ff fc46 	bl	8000d24 <LCD_WR_DATA>
 8001498:	200f      	movs	r0, #15
 800149a:	f7ff fc43 	bl	8000d24 <LCD_WR_DATA>
 800149e:	2000      	movs	r0, #0
 80014a0:	f7ff fc40 	bl	8000d24 <LCD_WR_DATA>
 80014a4:	2000      	movs	r0, #0
 80014a6:	f7ff fc3d 	bl	8000d24 <LCD_WR_DATA>
 80014aa:	2000      	movs	r0, #0
 80014ac:	f7ff fc3a 	bl	8000d24 <LCD_WR_DATA>
 80014b0:	2000      	movs	r0, #0
 80014b2:	f7ff fc37 	bl	8000d24 <LCD_WR_DATA>
 80014b6:	20e1      	movs	r0, #225	@ 0xe1
 80014b8:	f7ff fc24 	bl	8000d04 <LCD_WR_REG>
 80014bc:	2000      	movs	r0, #0
 80014be:	f7ff fc31 	bl	8000d24 <LCD_WR_DATA>
 80014c2:	2015      	movs	r0, #21
 80014c4:	f7ff fc2e 	bl	8000d24 <LCD_WR_DATA>
 80014c8:	2017      	movs	r0, #23
 80014ca:	f7ff fc2b 	bl	8000d24 <LCD_WR_DATA>
 80014ce:	2007      	movs	r0, #7
 80014d0:	f7ff fc28 	bl	8000d24 <LCD_WR_DATA>
 80014d4:	2011      	movs	r0, #17
 80014d6:	f7ff fc25 	bl	8000d24 <LCD_WR_DATA>
 80014da:	2006      	movs	r0, #6
 80014dc:	f7ff fc22 	bl	8000d24 <LCD_WR_DATA>
 80014e0:	202b      	movs	r0, #43	@ 0x2b
 80014e2:	f7ff fc1f 	bl	8000d24 <LCD_WR_DATA>
 80014e6:	2056      	movs	r0, #86	@ 0x56
 80014e8:	f7ff fc1c 	bl	8000d24 <LCD_WR_DATA>
 80014ec:	203c      	movs	r0, #60	@ 0x3c
 80014ee:	f7ff fc19 	bl	8000d24 <LCD_WR_DATA>
 80014f2:	2005      	movs	r0, #5
 80014f4:	f7ff fc16 	bl	8000d24 <LCD_WR_DATA>
 80014f8:	2010      	movs	r0, #16
 80014fa:	f7ff fc13 	bl	8000d24 <LCD_WR_DATA>
 80014fe:	200f      	movs	r0, #15
 8001500:	f7ff fc10 	bl	8000d24 <LCD_WR_DATA>
 8001504:	203f      	movs	r0, #63	@ 0x3f
 8001506:	f7ff fc0d 	bl	8000d24 <LCD_WR_DATA>
 800150a:	203f      	movs	r0, #63	@ 0x3f
 800150c:	f7ff fc0a 	bl	8000d24 <LCD_WR_DATA>
 8001510:	200f      	movs	r0, #15
 8001512:	f7ff fc07 	bl	8000d24 <LCD_WR_DATA>
 8001516:	202b      	movs	r0, #43	@ 0x2b
 8001518:	f7ff fbf4 	bl	8000d04 <LCD_WR_REG>
 800151c:	2000      	movs	r0, #0
 800151e:	f7ff fc01 	bl	8000d24 <LCD_WR_DATA>
 8001522:	2000      	movs	r0, #0
 8001524:	f7ff fbfe 	bl	8000d24 <LCD_WR_DATA>
 8001528:	2001      	movs	r0, #1
 800152a:	f7ff fbfb 	bl	8000d24 <LCD_WR_DATA>
 800152e:	203f      	movs	r0, #63	@ 0x3f
 8001530:	f7ff fbf8 	bl	8000d24 <LCD_WR_DATA>
 8001534:	202a      	movs	r0, #42	@ 0x2a
 8001536:	f7ff fbe5 	bl	8000d04 <LCD_WR_REG>
 800153a:	2000      	movs	r0, #0
 800153c:	f7ff fbf2 	bl	8000d24 <LCD_WR_DATA>
 8001540:	2000      	movs	r0, #0
 8001542:	f7ff fbef 	bl	8000d24 <LCD_WR_DATA>
 8001546:	2000      	movs	r0, #0
 8001548:	f7ff fbec 	bl	8000d24 <LCD_WR_DATA>
 800154c:	20ef      	movs	r0, #239	@ 0xef
 800154e:	f7ff fbe9 	bl	8000d24 <LCD_WR_DATA>
 8001552:	2011      	movs	r0, #17
 8001554:	f7ff fbd6 	bl	8000d04 <LCD_WR_REG>
 8001558:	2078      	movs	r0, #120	@ 0x78
 800155a:	f000 ffd9 	bl	8002510 <HAL_Delay>
 800155e:	2029      	movs	r0, #41	@ 0x29
 8001560:	f7ff fbd0 	bl	8000d04 <LCD_WR_REG>
 8001564:	2201      	movs	r2, #1
 8001566:	f44f 7180 	mov.w	r1, #256	@ 0x100
 800156a:	4804      	ldr	r0, [pc, #16]	@ (800157c <lcd_init+0x2bc>)
 800156c:	f002 fab6 	bl	8003adc <HAL_GPIO_WritePin>
 8001570:	bf00      	nop
 8001572:	bd80      	pop	{r7, pc}
 8001574:	40020800 	.word	0x40020800
 8001578:	200001dc 	.word	0x200001dc
 800157c:	40020000 	.word	0x40020000

08001580 <led7_Scan>:
 8001580:	b580      	push	{r7, lr}
 8001582:	af00      	add	r7, sp, #0
 8001584:	4b3f      	ldr	r3, [pc, #252]	@ (8001684 <led7_Scan+0x104>)
 8001586:	881b      	ldrh	r3, [r3, #0]
 8001588:	b2db      	uxtb	r3, r3
 800158a:	b29a      	uxth	r2, r3
 800158c:	4b3d      	ldr	r3, [pc, #244]	@ (8001684 <led7_Scan+0x104>)
 800158e:	801a      	strh	r2, [r3, #0]
 8001590:	4b3d      	ldr	r3, [pc, #244]	@ (8001688 <led7_Scan+0x108>)
 8001592:	681b      	ldr	r3, [r3, #0]
 8001594:	4a3d      	ldr	r2, [pc, #244]	@ (800168c <led7_Scan+0x10c>)
 8001596:	5cd3      	ldrb	r3, [r2, r3]
 8001598:	021b      	lsls	r3, r3, #8
 800159a:	b21a      	sxth	r2, r3
 800159c:	4b39      	ldr	r3, [pc, #228]	@ (8001684 <led7_Scan+0x104>)
 800159e:	881b      	ldrh	r3, [r3, #0]
 80015a0:	b21b      	sxth	r3, r3
 80015a2:	4313      	orrs	r3, r2
 80015a4:	b21b      	sxth	r3, r3
 80015a6:	b29a      	uxth	r2, r3
 80015a8:	4b36      	ldr	r3, [pc, #216]	@ (8001684 <led7_Scan+0x104>)
 80015aa:	801a      	strh	r2, [r3, #0]
 80015ac:	4b36      	ldr	r3, [pc, #216]	@ (8001688 <led7_Scan+0x108>)
 80015ae:	681b      	ldr	r3, [r3, #0]
 80015b0:	2b03      	cmp	r3, #3
 80015b2:	d847      	bhi.n	8001644 <led7_Scan+0xc4>
 80015b4:	a201      	add	r2, pc, #4	@ (adr r2, 80015bc <led7_Scan+0x3c>)
 80015b6:	f852 f023 	ldr.w	pc, [r2, r3, lsl #2]
 80015ba:	bf00      	nop
 80015bc:	080015cd 	.word	0x080015cd
 80015c0:	080015eb 	.word	0x080015eb
 80015c4:	08001609 	.word	0x08001609
 80015c8:	08001627 	.word	0x08001627
 80015cc:	4b2d      	ldr	r3, [pc, #180]	@ (8001684 <led7_Scan+0x104>)
 80015ce:	881b      	ldrh	r3, [r3, #0]
 80015d0:	f043 03b0 	orr.w	r3, r3, #176	@ 0xb0
 80015d4:	b29a      	uxth	r2, r3
 80015d6:	4b2b      	ldr	r3, [pc, #172]	@ (8001684 <led7_Scan+0x104>)
 80015d8:	801a      	strh	r2, [r3, #0]
 80015da:	4b2a      	ldr	r3, [pc, #168]	@ (8001684 <led7_Scan+0x104>)
 80015dc:	881b      	ldrh	r3, [r3, #0]
 80015de:	f023 0340 	bic.w	r3, r3, #64	@ 0x40
 80015e2:	b29a      	uxth	r2, r3
 80015e4:	4b27      	ldr	r3, [pc, #156]	@ (8001684 <led7_Scan+0x104>)
 80015e6:	801a      	strh	r2, [r3, #0]
 80015e8:	e02d      	b.n	8001646 <led7_Scan+0xc6>
 80015ea:	4b26      	ldr	r3, [pc, #152]	@ (8001684 <led7_Scan+0x104>)
 80015ec:	881b      	ldrh	r3, [r3, #0]
 80015ee:	f043 03d0 	orr.w	r3, r3, #208	@ 0xd0
 80015f2:	b29a      	uxth	r2, r3
 80015f4:	4b23      	ldr	r3, [pc, #140]	@ (8001684 <led7_Scan+0x104>)
 80015f6:	801a      	strh	r2, [r3, #0]
 80015f8:	4b22      	ldr	r3, [pc, #136]	@ (8001684 <led7_Scan+0x104>)
 80015fa:	881b      	ldrh	r3, [r3, #0]
 80015fc:	f023 0320 	bic.w	r3, r3, #32
 8001600:	b29a      	uxth	r2, r3
 8001602:	4b20      	ldr	r3, [pc, #128]	@ (8001684 <led7_Scan+0x104>)
 8001604:	801a      	strh	r2, [r3, #0]
 8001606:	e01e      	b.n	8001646 <led7_Scan+0xc6>
 8001608:	4b1e      	ldr	r3, [pc, #120]	@ (8001684 <led7_Scan+0x104>)
 800160a:	881b      	ldrh	r3, [r3, #0]
 800160c:	f043 03e0 	orr.w	r3, r3, #224	@ 0xe0
 8001610:	b29a      	uxth	r2, r3
 8001612:	4b1c      	ldr	r3, [pc, #112]	@ (8001684 <led7_Scan+0x104>)
 8001614:	801a      	strh	r2, [r3, #0]
 8001616:	4b1b      	ldr	r3, [pc, #108]	@ (8001684 <led7_Scan+0x104>)
 8001618:	881b      	ldrh	r3, [r3, #0]
 800161a:	f023 0310 	bic.w	r3, r3, #16
 800161e:	b29a      	uxth	r2, r3
 8001620:	4b18      	ldr	r3, [pc, #96]	@ (8001684 <led7_Scan+0x104>)
 8001622:	801a      	strh	r2, [r3, #0]
 8001624:	e00f      	b.n	8001646 <led7_Scan+0xc6>
 8001626:	4b17      	ldr	r3, [pc, #92]	@ (8001684 <led7_Scan+0x104>)
 8001628:	881b      	ldrh	r3, [r3, #0]
 800162a:	f043 0370 	orr.w	r3, r3, #112	@ 0x70
 800162e:	b29a      	uxth	r2, r3
 8001630:	4b14      	ldr	r3, [pc, #80]	@ (8001684 <led7_Scan+0x104>)
 8001632:	801a      	strh	r2, [r3, #0]
 8001634:	4b13      	ldr	r3, [pc, #76]	@ (8001684 <led7_Scan+0x104>)
 8001636:	881b      	ldrh	r3, [r3, #0]
 8001638:	f023 0380 	bic.w	r3, r3, #128	@ 0x80
 800163c:	b29a      	uxth	r2, r3
 800163e:	4b11      	ldr	r3, [pc, #68]	@ (8001684 <led7_Scan+0x104>)
 8001640:	801a      	strh	r2, [r3, #0]
 8001642:	e000      	b.n	8001646 <led7_Scan+0xc6>
 8001644:	bf00      	nop
 8001646:	4b10      	ldr	r3, [pc, #64]	@ (8001688 <led7_Scan+0x108>)
 8001648:	681b      	ldr	r3, [r3, #0]
 800164a:	3301      	adds	r3, #1
 800164c:	425a      	negs	r2, r3
 800164e:	f003 0303 	and.w	r3, r3, #3
 8001652:	f002 0203 	and.w	r2, r2, #3
 8001656:	bf58      	it	pl
 8001658:	4253      	negpl	r3, r2
 800165a:	4a0b      	ldr	r2, [pc, #44]	@ (8001688 <led7_Scan+0x108>)
 800165c:	6013      	str	r3, [r2, #0]
 800165e:	2200      	movs	r2, #0
 8001660:	2140      	movs	r1, #64	@ 0x40
 8001662:	480b      	ldr	r0, [pc, #44]	@ (8001690 <led7_Scan+0x110>)
 8001664:	f002 fa3a 	bl	8003adc <HAL_GPIO_WritePin>
 8001668:	2301      	movs	r3, #1
 800166a:	2202      	movs	r2, #2
 800166c:	4905      	ldr	r1, [pc, #20]	@ (8001684 <led7_Scan+0x104>)
 800166e:	4809      	ldr	r0, [pc, #36]	@ (8001694 <led7_Scan+0x114>)
 8001670:	f003 f8cd 	bl	800480e <HAL_SPI_Transmit>
 8001674:	2201      	movs	r2, #1
 8001676:	2140      	movs	r1, #64	@ 0x40
 8001678:	4805      	ldr	r0, [pc, #20]	@ (8001690 <led7_Scan+0x110>)
 800167a:	f002 fa2f 	bl	8003adc <HAL_GPIO_WritePin>
 800167e:	bf00      	nop
 8001680:	bd80      	pop	{r7, pc}
 8001682:	bf00      	nop
 8001684:	20000004 	.word	0x20000004
 8001688:	200001e4 	.word	0x200001e4
 800168c:	20000000 	.word	0x20000000
 8001690:	40021800 	.word	0x40021800
 8001694:	20000204 	.word	0x20000204

08001698 <main>:
/**
  * @brief  The application entry point.
  * @retval int
  */
int main(void)
{
 8001698:	b580      	push	{r7, lr}
 800169a:	b086      	sub	sp, #24
 800169c:	af04      	add	r7, sp, #16
  /* USER CODE END 1 */

  /* MCU Configuration--------------------------------------------------------*/

  /* Reset of all peripherals, Initializes the Flash interface and the Systick. */
  HAL_Init();
 800169e:	f000 fec5 	bl	800242c <HAL_Init>
  /* USER CODE BEGIN Init */

  /* USER CODE END Init */

  /* Configure the system clock */
  SystemClock_Config();
 80016a2:	f000 f873 	bl	800178c <SystemClock_Config>
  /* USER CODE BEGIN SysInit */

  /* USER CODE END SysInit */

  /* Initialize all configured peripherals */
  MX_GPIO_Init();
 80016a6:	f7ff f97d 	bl	80009a4 <MX_GPIO_Init>
  MX_TIM2_Init();
 80016aa:	f000 fbed 	bl	8001e88 <MX_TIM2_Init>
  MX_SPI1_Init();
 80016ae:	f000 f9c5 	bl	8001a3c <MX_SPI1_Init>
  MX_FSMC_Init();
 80016b2:	f7ff f8a7 	bl	8000804 <MX_FSMC_Init>
  MX_I2C1_Init();
 80016b6:	f7ff faaf 	bl	8000c18 <MX_I2C1_Init>
  MX_TIM13_Init();
 80016ba:	f000 fc31 	bl	8001f20 <MX_TIM13_Init>
  MX_DMA_Init();
 80016be:	f7ff f881 	bl	80007c4 <MX_DMA_Init>
  MX_ADC1_Init();
 80016c2:	f7fe ff55 	bl	8000570 <MX_ADC1_Init>
  MX_TIM1_Init();
 80016c6:	f000 fb8f 	bl	8001de8 <MX_TIM1_Init>
  MX_USART2_UART_Init();
 80016ca:	f000 fdcf 	bl	800226c <MX_USART2_UART_Init>
  MX_USART1_UART_Init();
 80016ce:	f000 fda3 	bl	8002218 <MX_USART1_UART_Init>
  /* USER CODE BEGIN 2 */
  system_init();
 80016d2:	f000 f8c5 	bl	8001860 <system_init>
  /* USER CODE END 2 */

  /* Infinite loop */
  /* USER CODE BEGIN WHILE */
 lcd_Clear(WHITE);
 80016d6:	f64f 70ff 	movw	r0, #65535	@ 0xffff
 80016da:	f7ff fb91 	bl	8000e00 <lcd_Clear>
 setTimerSendTemp(30000);
 80016de:	f247 5030 	movw	r0, #30000	@ 0x7530
 80016e2:	f000 f937 	bl	8001954 <setTimerSendTemp>
 sensor_init();
 80016e6:	f000 f8d1 	bl	800188c <sensor_init>
 srand((unsigned int) time(NULL));
 80016ea:	2000      	movs	r0, #0
 80016ec:	f005 fd9e 	bl	800722c <time>
 80016f0:	4602      	mov	r2, r0
 80016f2:	460b      	mov	r3, r1
 80016f4:	4613      	mov	r3, r2
 80016f6:	4618      	mov	r0, r3
 80016f8:	f005 fbce 	bl	8006e98 <srand>
 uint16_t randomValue = (rand() % 4) + 31;
 80016fc:	f005 fbfa 	bl	8006ef4 <rand>
 8001700:	4603      	mov	r3, r0
 8001702:	425a      	negs	r2, r3
 8001704:	f003 0303 	and.w	r3, r3, #3
 8001708:	f002 0203 	and.w	r2, r2, #3
 800170c:	bf58      	it	pl
 800170e:	4253      	negpl	r3, r2
 8001710:	b29b      	uxth	r3, r3
 8001712:	331f      	adds	r3, #31
 8001714:	80fb      	strh	r3, [r7, #6]
 uint16_t tempValue = 0;
 8001716:	2300      	movs	r3, #0
 8001718:	80bb      	strh	r3, [r7, #4]
//		  button_Scan();
//		  test_Esp();
//		  lightProcess();
//		  test_LedDebug();
//	  }
	 if(isFlagSendTemp() == 1)
 800171a:	f000 f937 	bl	800198c <isFlagSendTemp>
 800171e:	4603      	mov	r3, r0
 8001720:	2b01      	cmp	r3, #1
 8001722:	d1fa      	bne.n	800171a <main+0x82>
	 {
		 sensor_Read();
 8001724:	f000 f8c0 	bl	80018a8 <sensor_Read>
//		 randomValue = (rand() % 4) + 31;
		 tempValue = (uint16_t)sensor_GetTemperature();
 8001728:	f000 f8cc 	bl	80018c4 <sensor_GetTemperature>
 800172c:	eef0 7a40 	vmov.f32	s15, s0
 8001730:	eefc 7ae7 	vcvt.u32.f32	s15, s15
 8001734:	ee17 3a90 	vmov	r3, s15
 8001738:	80bb      	strh	r3, [r7, #4]
		 lcd_ShowIntNum(40, 100, tempValue, 3, RED, BLACK, 24);
 800173a:	88ba      	ldrh	r2, [r7, #4]
 800173c:	2318      	movs	r3, #24
 800173e:	9302      	str	r3, [sp, #8]
 8001740:	2300      	movs	r3, #0
 8001742:	9301      	str	r3, [sp, #4]
 8001744:	f44f 4378 	mov.w	r3, #63488	@ 0xf800
 8001748:	9300      	str	r3, [sp, #0]
 800174a:	2303      	movs	r3, #3
 800174c:	2164      	movs	r1, #100	@ 0x64
 800174e:	2028      	movs	r0, #40	@ 0x28
 8001750:	f7ff fc8c 	bl	800106c <lcd_ShowIntNum>
		 uartSendSensor(tempValue);
 8001754:	88bb      	ldrh	r3, [r7, #4]
 8001756:	4618      	mov	r0, r3
 8001758:	f000 fd46 	bl	80021e8 <uartSendSensor>
		 // DEBUG
		 lcd_ShowFloatNum(40, 40, sensor_GetTemperature(), 7, RED, BLACK, 24);
 800175c:	f000 f8b2 	bl	80018c4 <sensor_GetTemperature>
 8001760:	eef0 7a40 	vmov.f32	s15, s0
 8001764:	2318      	movs	r3, #24
 8001766:	9301      	str	r3, [sp, #4]
 8001768:	2300      	movs	r3, #0
 800176a:	9300      	str	r3, [sp, #0]
 800176c:	f44f 4378 	mov.w	r3, #63488	@ 0xf800
 8001770:	2207      	movs	r2, #7
 8001772:	eeb0 0a67 	vmov.f32	s0, s15
 8001776:	2128      	movs	r1, #40	@ 0x28
 8001778:	2028      	movs	r0, #40	@ 0x28
 800177a:	f7ff fcf5 	bl	8001168 <lcd_ShowFloatNum>
//		 lcd_ShowStr(40, 80, str1, RED, BLACK, 24, 0);
		 HAL_GPIO_TogglePin(DEBUG_LED_GPIO_Port, DEBUG_LED_Pin);
 800177e:	2110      	movs	r1, #16
 8001780:	4801      	ldr	r0, [pc, #4]	@ (8001788 <main+0xf0>)
 8001782:	f002 f9c4 	bl	8003b0e <HAL_GPIO_TogglePin>
	 if(isFlagSendTemp() == 1)
 8001786:	e7c8      	b.n	800171a <main+0x82>
 8001788:	40021000 	.word	0x40021000

0800178c <SystemClock_Config>:
/**
  * @brief System Clock Configuration
  * @retval None
  */
void SystemClock_Config(void)
{
 800178c:	b580      	push	{r7, lr}
 800178e:	b094      	sub	sp, #80	@ 0x50
 8001790:	af00      	add	r7, sp, #0
  RCC_OscInitTypeDef RCC_OscInitStruct = {0};
 8001792:	f107 0320 	add.w	r3, r7, #32
 8001796:	2230      	movs	r2, #48	@ 0x30
 8001798:	2100      	movs	r1, #0
 800179a:	4618      	mov	r0, r3
 800179c:	f005 fd21 	bl	80071e2 <memset>
  RCC_ClkInitTypeDef RCC_ClkInitStruct = {0};
 80017a0:	f107 030c 	add.w	r3, r7, #12
 80017a4:	2200      	movs	r2, #0
 80017a6:	601a      	str	r2, [r3, #0]
 80017a8:	605a      	str	r2, [r3, #4]
 80017aa:	609a      	str	r2, [r3, #8]
 80017ac:	60da      	str	r2, [r3, #12]
 80017ae:	611a      	str	r2, [r3, #16]

  /** Configure the main internal regulator output voltage
  */
  __HAL_RCC_PWR_CLK_ENABLE();
 80017b0:	2300      	movs	r3, #0
 80017b2:	60bb      	str	r3, [r7, #8]
 80017b4:	4b28      	ldr	r3, [pc, #160]	@ (8001858 <SystemClock_Config+0xcc>)
 80017b6:	6c1b      	ldr	r3, [r3, #64]	@ 0x40
 80017b8:	4a27      	ldr	r2, [pc, #156]	@ (8001858 <SystemClock_Config+0xcc>)
 80017ba:	f043 5380 	orr.w	r3, r3, #268435456	@ 0x10000000
 80017be:	6413      	str	r3, [r2, #64]	@ 0x40
 80017c0:	4b25      	ldr	r3, [pc, #148]	@ (8001858 <SystemClock_Config+0xcc>)
 80017c2:	6c1b      	ldr	r3, [r3, #64]	@ 0x40
 80017c4:	f003 5380 	and.w	r3, r3, #268435456	@ 0x10000000
 80017c8:	60bb      	str	r3, [r7, #8]
 80017ca:	68bb      	ldr	r3, [r7, #8]
  __HAL_PWR_VOLTAGESCALING_CONFIG(PWR_REGULATOR_VOLTAGE_SCALE1);
 80017cc:	2300      	movs	r3, #0
 80017ce:	607b      	str	r3, [r7, #4]
 80017d0:	4b22      	ldr	r3, [pc, #136]	@ (800185c <SystemClock_Config+0xd0>)
 80017d2:	681b      	ldr	r3, [r3, #0]
 80017d4:	4a21      	ldr	r2, [pc, #132]	@ (800185c <SystemClock_Config+0xd0>)
 80017d6:	f443 4380 	orr.w	r3, r3, #16384	@ 0x4000
 80017da:	6013      	str	r3, [r2, #0]
 80017dc:	4b1f      	ldr	r3, [pc, #124]	@ (800185c <SystemClock_Config+0xd0>)
 80017de:	681b      	ldr	r3, [r3, #0]
 80017e0:	f403 4380 	and.w	r3, r3, #16384	@ 0x4000
 80017e4:	607b      	str	r3, [r7, #4]
 80017e6:	687b      	ldr	r3, [r7, #4]
  /** Initializes the RCC Oscillators according to the specified parameters
  * in the RCC_OscInitTypeDef structure.
  */
  RCC_OscInitStruct.OscillatorType = RCC_OSCILLATORTYPE_HSI;
 80017e8:	2302      	movs	r3, #2
 80017ea:	623b      	str	r3, [r7, #32]
  RCC_OscInitStruct.HSIState = RCC_HSI_ON;
 80017ec:	2301      	movs	r3, #1
 80017ee:	62fb      	str	r3, [r7, #44]	@ 0x2c
  RCC_OscInitStruct.HSICalibrationValue = RCC_HSICALIBRATION_DEFAULT;
 80017f0:	2310      	movs	r3, #16
 80017f2:	633b      	str	r3, [r7, #48]	@ 0x30
  RCC_OscInitStruct.PLL.PLLState = RCC_PLL_ON;
 80017f4:	2302      	movs	r3, #2
 80017f6:	63bb      	str	r3, [r7, #56]	@ 0x38
  RCC_OscInitStruct.PLL.PLLSource = RCC_PLLSOURCE_HSI;
 80017f8:	2300      	movs	r3, #0
 80017fa:	63fb      	str	r3, [r7, #60]	@ 0x3c
  RCC_OscInitStruct.PLL.PLLM = 8;
 80017fc:	2308      	movs	r3, #8
 80017fe:	643b      	str	r3, [r7, #64]	@ 0x40
  RCC_OscInitStruct.PLL.PLLN = 168;
 8001800:	23a8      	movs	r3, #168	@ 0xa8
 8001802:	647b      	str	r3, [r7, #68]	@ 0x44
  RCC_OscInitStruct.PLL.PLLP = RCC_PLLP_DIV2;
 8001804:	2302      	movs	r3, #2
 8001806:	64bb      	str	r3, [r7, #72]	@ 0x48
  RCC_OscInitStruct.PLL.PLLQ = 4;
 8001808:	2304      	movs	r3, #4
 800180a:	64fb      	str	r3, [r7, #76]	@ 0x4c
  if (HAL_RCC_OscConfig(&RCC_OscInitStruct) != HAL_OK)
 800180c:	f107 0320 	add.w	r3, r7, #32
 8001810:	4618      	mov	r0, r3
 8001812:	f002 fadb 	bl	8003dcc <HAL_RCC_OscConfig>
 8001816:	4603      	mov	r3, r0
 8001818:	2b00      	cmp	r3, #0
 800181a:	d001      	beq.n	8001820 <SystemClock_Config+0x94>
  {
    Error_Handler();
 800181c:	f000 f82f 	bl	800187e <Error_Handler>
  }
  /** Initializes the CPU, AHB and APB buses clocks
  */
  RCC_ClkInitStruct.ClockType = RCC_CLOCKTYPE_HCLK|RCC_CLOCKTYPE_SYSCLK
 8001820:	230f      	movs	r3, #15
 8001822:	60fb      	str	r3, [r7, #12]
                              |RCC_CLOCKTYPE_PCLK1|RCC_CLOCKTYPE_PCLK2;
  RCC_ClkInitStruct.SYSCLKSource = RCC_SYSCLKSOURCE_PLLCLK;
 8001824:	2302      	movs	r3, #2
 8001826:	613b      	str	r3, [r7, #16]
  RCC_ClkInitStruct.AHBCLKDivider = RCC_SYSCLK_DIV1;
 8001828:	2300      	movs	r3, #0
 800182a:	617b      	str	r3, [r7, #20]
  RCC_ClkInitStruct.APB1CLKDivider = RCC_HCLK_DIV4;
 800182c:	f44f 53a0 	mov.w	r3, #5120	@ 0x1400
 8001830:	61bb      	str	r3, [r7, #24]
  RCC_ClkInitStruct.APB2CLKDivider = RCC_HCLK_DIV4;
 8001832:	f44f 53a0 	mov.w	r3, #5120	@ 0x1400
 8001836:	61fb      	str	r3, [r7, #28]

  if (HAL_RCC_ClockConfig(&RCC_ClkInitStruct, FLASH_LATENCY_5) != HAL_OK)
 8001838:	f107 030c 	add.w	r3, r7, #12
 800183c:	2105      	movs	r1, #5
 800183e:	4618      	mov	r0, r3
 8001840:	f002 fd3c 	bl	80042bc <HAL_RCC_ClockConfig>
 8001844:	4603      	mov	r3, r0
 8001846:	2b00      	cmp	r3, #0
 8001848:	d001      	beq.n	800184e <SystemClock_Config+0xc2>
  {
    Error_Handler();
 800184a:	f000 f818 	bl	800187e <Error_Handler>
  }
}
 800184e:	bf00      	nop
 8001850:	3750      	adds	r7, #80	@ 0x50
 8001852:	46bd      	mov	sp, r7
 8001854:	bd80      	pop	{r7, pc}
 8001856:	bf00      	nop
 8001858:	40023800 	.word	0x40023800
 800185c:	40007000 	.word	0x40007000

08001860 <system_init>:

/* USER CODE BEGIN 4 */
void system_init(){
 8001860:	b580      	push	{r7, lr}
 8001862:	af00      	add	r7, sp, #0
	  timer_init();
 8001864:	f000 f84c 	bl	8001900 <timer_init>
	  button_init();
 8001868:	f7fe ffa0 	bl	80007ac <button_init>
	  lcd_init();
 800186c:	f7ff fd28 	bl	80012c0 <lcd_init>
	  uart_init_esp();
 8001870:	f000 fc30 	bl	80020d4 <uart_init_esp>
	  setTimer2(50);
 8001874:	2032      	movs	r0, #50	@ 0x32
 8001876:	f000 f851 	bl	800191c <setTimer2>
}
 800187a:	bf00      	nop
 800187c:	bd80      	pop	{r7, pc}

0800187e <Error_Handler>:
/**
  * @brief  This function is executed in case of error occurrence.
  * @retval None
  */
void Error_Handler(void)
{
 800187e:	b480      	push	{r7}
 8001880:	af00      	add	r7, sp, #0
  \details Disables IRQ interrupts by setting the I-bit in the CPSR.
           Can only be executed in Privileged modes.
 */
__STATIC_FORCEINLINE void __disable_irq(void)
{
  __ASM volatile ("cpsid i" : : : "memory");
 8001882:	b672      	cpsid	i
}
 8001884:	bf00      	nop
  /* USER CODE BEGIN Error_Handler_Debug */
  /* User can add his own implementation to report the HAL error return state */
  __disable_irq();
  while (1)
 8001886:	bf00      	nop
 8001888:	e7fd      	b.n	8001886 <Error_Handler+0x8>
	...

0800188c <sensor_init>:
 800188c:	b580      	push	{r7, lr}
 800188e:	af00      	add	r7, sp, #0
 8001890:	2205      	movs	r2, #5
 8001892:	4903      	ldr	r1, [pc, #12]	@ (80018a0 <sensor_init+0x14>)
 8001894:	4803      	ldr	r0, [pc, #12]	@ (80018a4 <sensor_init+0x18>)
 8001896:	f000 fea3 	bl	80025e0 <HAL_ADC_Start_DMA>
 800189a:	bf00      	nop
 800189c:	bd80      	pop	{r7, pc}
 800189e:	bf00      	nop
 80018a0:	200001ec 	.word	0x200001ec
 80018a4:	2000008c 	.word	0x2000008c

080018a8 <sensor_Read>:
 80018a8:	b580      	push	{r7, lr}
 80018aa:	af00      	add	r7, sp, #0
 80018ac:	2205      	movs	r2, #5
 80018ae:	4903      	ldr	r1, [pc, #12]	@ (80018bc <sensor_Read+0x14>)
 80018b0:	4803      	ldr	r0, [pc, #12]	@ (80018c0 <sensor_Read+0x18>)
 80018b2:	f000 fe95 	bl	80025e0 <HAL_ADC_Start_DMA>
 80018b6:	bf00      	nop
 80018b8:	bd80      	pop	{r7, pc}
 80018ba:	bf00      	nop
 80018bc:	200001ec 	.word	0x200001ec
 80018c0:	2000008c 	.word	0x2000008c

080018c4 <sensor_GetTemperature>:
 80018c4:	b480      	push	{r7}
 80018c6:	af00      	add	r7, sp, #0
 80018c8:	4b0a      	ldr	r3, [pc, #40]	@ (80018f4 <sensor_GetTemperature+0x30>)
 80018ca:	891b      	ldrh	r3, [r3, #8]
 80018cc:	ee07 3a90 	vmov	s15, r3
 80018d0:	eef8 7a67 	vcvt.f32.u32	s15, s15
 80018d4:	ed9f 7a08 	vldr	s14, [pc, #32]	@ 80018f8 <sensor_GetTemperature+0x34>
 80018d8:	ee67 7a87 	vmul.f32	s15, s15, s14
 80018dc:	ed9f 7a07 	vldr	s14, [pc, #28]	@ 80018fc <sensor_GetTemperature+0x38>
 80018e0:	eec7 6a87 	vdiv.f32	s13, s15, s14
 80018e4:	eef0 7a66 	vmov.f32	s15, s13
 80018e8:	eeb0 0a67 	vmov.f32	s0, s15
 80018ec:	46bd      	mov	sp, r7
 80018ee:	f85d 7b04 	ldr.w	r7, [sp], #4
 80018f2:	4770      	bx	lr
 80018f4:	200001ec 	.word	0x200001ec
 80018f8:	43a50000 	.word	0x43a50000
 80018fc:	457ff000 	.word	0x457ff000

08001900 <timer_init>:

uint16_t flag_timerSendTemp = 0;
uint16_t timerSendTemp_counter = 0;
uint16_t timerSendTemp_MUL = 0;

void timer_init(){
 8001900:	b580      	push	{r7, lr}
 8001902:	af00      	add	r7, sp, #0
	HAL_TIM_Base_Start_IT(&htim2);
 8001904:	4803      	ldr	r0, [pc, #12]	@ (8001914 <timer_init+0x14>)
 8001906:	f003 fa85 	bl	8004e14 <HAL_TIM_Base_Start_IT>
	HAL_TIM_Base_Start(&htim1);
 800190a:	4803      	ldr	r0, [pc, #12]	@ (8001918 <timer_init+0x18>)
 800190c:	f003 fa1a 	bl	8004d44 <HAL_TIM_Base_Start>
}
 8001910:	bf00      	nop
 8001912:	bd80      	pop	{r7, pc}
 8001914:	200002a8 	.word	0x200002a8
 8001918:	20000260 	.word	0x20000260

0800191c <setTimer2>:

void timer_EnableDelayUs(){
	HAL_TIM_Base_Start(&htim1);
}

void setTimer2(uint16_t duration){
 800191c:	b480      	push	{r7}
 800191e:	b083      	sub	sp, #12
 8001920:	af00      	add	r7, sp, #0
 8001922:	4603      	mov	r3, r0
 8001924:	80fb      	strh	r3, [r7, #6]
	timer2_MUL = duration/TIMER_CYCLE_2;
 8001926:	4a08      	ldr	r2, [pc, #32]	@ (8001948 <setTimer2+0x2c>)
 8001928:	88fb      	ldrh	r3, [r7, #6]
 800192a:	8013      	strh	r3, [r2, #0]
	timer2_counter = timer2_MUL;
 800192c:	4b06      	ldr	r3, [pc, #24]	@ (8001948 <setTimer2+0x2c>)
 800192e:	881a      	ldrh	r2, [r3, #0]
 8001930:	4b06      	ldr	r3, [pc, #24]	@ (800194c <setTimer2+0x30>)
 8001932:	801a      	strh	r2, [r3, #0]
	flag_timer2 = 0;
 8001934:	4b06      	ldr	r3, [pc, #24]	@ (8001950 <setTimer2+0x34>)
 8001936:	2200      	movs	r2, #0
 8001938:	801a      	strh	r2, [r3, #0]
}
 800193a:	bf00      	nop
 800193c:	370c      	adds	r7, #12
 800193e:	46bd      	mov	sp, r7
 8001940:	f85d 7b04 	ldr.w	r7, [sp], #4
 8001944:	4770      	bx	lr
 8001946:	bf00      	nop
 8001948:	200001fa 	.word	0x200001fa
 800194c:	200001f8 	.word	0x200001f8
 8001950:	200001f6 	.word	0x200001f6

08001954 <setTimerSendTemp>:

// LAB 8
void setTimerSendTemp(uint16_t duration){
 8001954:	b480      	push	{r7}
 8001956:	b083      	sub	sp, #12
 8001958:	af00      	add	r7, sp, #0
 800195a:	4603      	mov	r3, r0
 800195c:	80fb      	strh	r3, [r7, #6]
	timerSendTemp_MUL = duration/TIMER_CYCLE_2;
 800195e:	4a08      	ldr	r2, [pc, #32]	@ (8001980 <setTimerSendTemp+0x2c>)
 8001960:	88fb      	ldrh	r3, [r7, #6]
 8001962:	8013      	strh	r3, [r2, #0]
	timerSendTemp_counter = timerSendTemp_MUL;
 8001964:	4b06      	ldr	r3, [pc, #24]	@ (8001980 <setTimerSendTemp+0x2c>)
 8001966:	881a      	ldrh	r2, [r3, #0]
 8001968:	4b06      	ldr	r3, [pc, #24]	@ (8001984 <setTimerSendTemp+0x30>)
 800196a:	801a      	strh	r2, [r3, #0]
	flag_timerSendTemp = 0;
 800196c:	4b06      	ldr	r3, [pc, #24]	@ (8001988 <setTimerSendTemp+0x34>)
 800196e:	2200      	movs	r2, #0
 8001970:	801a      	strh	r2, [r3, #0]
}
 8001972:	bf00      	nop
 8001974:	370c      	adds	r7, #12
 8001976:	46bd      	mov	sp, r7
 8001978:	f85d 7b04 	ldr.w	r7, [sp], #4
 800197c:	4770      	bx	lr
 800197e:	bf00      	nop
 8001980:	20000200 	.word	0x20000200
 8001984:	200001fe 	.word	0x200001fe
 8001988:	200001fc 	.word	0x200001fc

0800198c <isFlagSendTemp>:

uint16_t isFlagSendTemp()
{
 800198c:	b480      	push	{r7}
 800198e:	af00      	add	r7, sp, #0
	if(flag_timerSendTemp == 1)
 8001990:	4b07      	ldr	r3, [pc, #28]	@ (80019b0 <isFlagSendTemp+0x24>)
 8001992:	881b      	ldrh	r3, [r3, #0]
 8001994:	2b01      	cmp	r3, #1
 8001996:	d104      	bne.n	80019a2 <isFlagSendTemp+0x16>
	{
		flag_timerSendTemp = 0;
 8001998:	4b05      	ldr	r3, [pc, #20]	@ (80019b0 <isFlagSendTemp+0x24>)
 800199a:	2200      	movs	r2, #0
 800199c:	801a      	strh	r2, [r3, #0]
		return 1;
 800199e:	2301      	movs	r3, #1
 80019a0:	e000      	b.n	80019a4 <isFlagSendTemp+0x18>
	}
	return 0;
 80019a2:	2300      	movs	r3, #0
}
 80019a4:	4618      	mov	r0, r3
 80019a6:	46bd      	mov	sp, r7
 80019a8:	f85d 7b04 	ldr.w	r7, [sp], #4
 80019ac:	4770      	bx	lr
 80019ae:	bf00      	nop
 80019b0:	200001fc 	.word	0x200001fc

080019b4 <HAL_TIM_PeriodElapsedCallback>:

void HAL_TIM_PeriodElapsedCallback(TIM_HandleTypeDef *htim){
 80019b4:	b580      	push	{r7, lr}
 80019b6:	b082      	sub	sp, #8
 80019b8:	af00      	add	r7, sp, #0
 80019ba:	6078      	str	r0, [r7, #4]
	if(htim->Instance == TIM2){
 80019bc:	687b      	ldr	r3, [r7, #4]
 80019be:	681b      	ldr	r3, [r3, #0]
 80019c0:	f1b3 4f80 	cmp.w	r3, #1073741824	@ 0x40000000
 80019c4:	d12b      	bne.n	8001a1e <HAL_TIM_PeriodElapsedCallback+0x6a>
		if(timer2_counter > 0){
 80019c6:	4b18      	ldr	r3, [pc, #96]	@ (8001a28 <HAL_TIM_PeriodElapsedCallback+0x74>)
 80019c8:	881b      	ldrh	r3, [r3, #0]
 80019ca:	2b00      	cmp	r3, #0
 80019cc:	d010      	beq.n	80019f0 <HAL_TIM_PeriodElapsedCallback+0x3c>
			timer2_counter--;
 80019ce:	4b16      	ldr	r3, [pc, #88]	@ (8001a28 <HAL_TIM_PeriodElapsedCallback+0x74>)
 80019d0:	881b      	ldrh	r3, [r3, #0]
 80019d2:	3b01      	subs	r3, #1
 80019d4:	b29a      	uxth	r2, r3
 80019d6:	4b14      	ldr	r3, [pc, #80]	@ (8001a28 <HAL_TIM_PeriodElapsedCallback+0x74>)
 80019d8:	801a      	strh	r2, [r3, #0]
			if(timer2_counter == 0) {
 80019da:	4b13      	ldr	r3, [pc, #76]	@ (8001a28 <HAL_TIM_PeriodElapsedCallback+0x74>)
 80019dc:	881b      	ldrh	r3, [r3, #0]
 80019de:	2b00      	cmp	r3, #0
 80019e0:	d106      	bne.n	80019f0 <HAL_TIM_PeriodElapsedCallback+0x3c>
				flag_timer2 = 1;
 80019e2:	4b12      	ldr	r3, [pc, #72]	@ (8001a2c <HAL_TIM_PeriodElapsedCallback+0x78>)
 80019e4:	2201      	movs	r2, #1
 80019e6:	801a      	strh	r2, [r3, #0]
				timer2_counter = timer2_MUL;
 80019e8:	4b11      	ldr	r3, [pc, #68]	@ (8001a30 <HAL_TIM_PeriodElapsedCallback+0x7c>)
 80019ea:	881a      	ldrh	r2, [r3, #0]
 80019ec:	4b0e      	ldr	r3, [pc, #56]	@ (8001a28 <HAL_TIM_PeriodElapsedCallback+0x74>)
 80019ee:	801a      	strh	r2, [r3, #0]
			}
		}
		if(timerSendTemp_counter > 0){
 80019f0:	4b10      	ldr	r3, [pc, #64]	@ (8001a34 <HAL_TIM_PeriodElapsedCallback+0x80>)
 80019f2:	881b      	ldrh	r3, [r3, #0]
 80019f4:	2b00      	cmp	r3, #0
 80019f6:	d010      	beq.n	8001a1a <HAL_TIM_PeriodElapsedCallback+0x66>
			timerSendTemp_counter--;
 80019f8:	4b0e      	ldr	r3, [pc, #56]	@ (8001a34 <HAL_TIM_PeriodElapsedCallback+0x80>)
 80019fa:	881b      	ldrh	r3, [r3, #0]
 80019fc:	3b01      	subs	r3, #1
 80019fe:	b29a      	uxth	r2, r3
 8001a00:	4b0c      	ldr	r3, [pc, #48]	@ (8001a34 <HAL_TIM_PeriodElapsedCallback+0x80>)
 8001a02:	801a      	strh	r2, [r3, #0]
			if(timerSendTemp_counter == 0) {
 8001a04:	4b0b      	ldr	r3, [pc, #44]	@ (8001a34 <HAL_TIM_PeriodElapsedCallback+0x80>)
 8001a06:	881b      	ldrh	r3, [r3, #0]
 8001a08:	2b00      	cmp	r3, #0
 8001a0a:	d106      	bne.n	8001a1a <HAL_TIM_PeriodElapsedCallback+0x66>
				flag_timerSendTemp = 1;
 8001a0c:	4b0a      	ldr	r3, [pc, #40]	@ (8001a38 <HAL_TIM_PeriodElapsedCallback+0x84>)
 8001a0e:	2201      	movs	r2, #1
 8001a10:	801a      	strh	r2, [r3, #0]
				timerSendTemp_counter = 30000;
 8001a12:	4b08      	ldr	r3, [pc, #32]	@ (8001a34 <HAL_TIM_PeriodElapsedCallback+0x80>)
 8001a14:	f247 5230 	movw	r2, #30000	@ 0x7530
 8001a18:	801a      	strh	r2, [r3, #0]
			}
		}
		led7_Scan();
 8001a1a:	f7ff fdb1 	bl	8001580 <led7_Scan>
	}
}
 8001a1e:	bf00      	nop
 8001a20:	3708      	adds	r7, #8
 8001a22:	46bd      	mov	sp, r7
 8001a24:	bd80      	pop	{r7, pc}
 8001a26:	bf00      	nop
 8001a28:	200001f8 	.word	0x200001f8
 8001a2c:	200001f6 	.word	0x200001f6
 8001a30:	200001fa 	.word	0x200001fa
 8001a34:	200001fe 	.word	0x200001fe
 8001a38:	200001fc 	.word	0x200001fc

08001a3c <MX_SPI1_Init>:
 8001a3c:	b580      	push	{r7, lr}
 8001a3e:	af00      	add	r7, sp, #0
 8001a40:	4b17      	ldr	r3, [pc, #92]	@ (8001aa0 <MX_SPI1_Init+0x64>)
 8001a42:	4a18      	ldr	r2, [pc, #96]	@ (8001aa4 <MX_SPI1_Init+0x68>)
 8001a44:	601a      	str	r2, [r3, #0]
 8001a46:	4b16      	ldr	r3, [pc, #88]	@ (8001aa0 <MX_SPI1_Init+0x64>)
 8001a48:	f44f 7282 	mov.w	r2, #260	@ 0x104
 8001a4c:	605a      	str	r2, [r3, #4]
 8001a4e:	4b14      	ldr	r3, [pc, #80]	@ (8001aa0 <MX_SPI1_Init+0x64>)
 8001a50:	2200      	movs	r2, #0
 8001a52:	609a      	str	r2, [r3, #8]
 8001a54:	4b12      	ldr	r3, [pc, #72]	@ (8001aa0 <MX_SPI1_Init+0x64>)
 8001a56:	2200      	movs	r2, #0
 8001a58:	60da      	str	r2, [r3, #12]
 8001a5a:	4b11      	ldr	r3, [pc, #68]	@ (8001aa0 <MX_SPI1_Init+0x64>)
 8001a5c:	2200      	movs	r2, #0
 8001a5e:	611a      	str	r2, [r3, #16]
 8001a60:	4b0f      	ldr	r3, [pc, #60]	@ (8001aa0 <MX_SPI1_Init+0x64>)
 8001a62:	2200      	movs	r2, #0
 8001a64:	615a      	str	r2, [r3, #20]
 8001a66:	4b0e      	ldr	r3, [pc, #56]	@ (8001aa0 <MX_SPI1_Init+0x64>)
 8001a68:	f44f 7200 	mov.w	r2, #512	@ 0x200
 8001a6c:	619a      	str	r2, [r3, #24]
 8001a6e:	4b0c      	ldr	r3, [pc, #48]	@ (8001aa0 <MX_SPI1_Init+0x64>)
 8001a70:	2200      	movs	r2, #0
 8001a72:	61da      	str	r2, [r3, #28]
 8001a74:	4b0a      	ldr	r3, [pc, #40]	@ (8001aa0 <MX_SPI1_Init+0x64>)
 8001a76:	2200      	movs	r2, #0
 8001a78:	621a      	str	r2, [r3, #32]
 8001a7a:	4b09      	ldr	r3, [pc, #36]	@ (8001aa0 <MX_SPI1_Init+0x64>)
 8001a7c:	2200      	movs	r2, #0
 8001a7e:	625a      	str	r2, [r3, #36]	@ 0x24
 8001a80:	4b07      	ldr	r3, [pc, #28]	@ (8001aa0 <MX_SPI1_Init+0x64>)
 8001a82:	2200      	movs	r2, #0
 8001a84:	629a      	str	r2, [r3, #40]	@ 0x28
 8001a86:	4b06      	ldr	r3, [pc, #24]	@ (8001aa0 <MX_SPI1_Init+0x64>)
 8001a88:	220a      	movs	r2, #10
 8001a8a:	62da      	str	r2, [r3, #44]	@ 0x2c
 8001a8c:	4804      	ldr	r0, [pc, #16]	@ (8001aa0 <MX_SPI1_Init+0x64>)
 8001a8e:	f002 fe35 	bl	80046fc <HAL_SPI_Init>
 8001a92:	4603      	mov	r3, r0
 8001a94:	2b00      	cmp	r3, #0
 8001a96:	d001      	beq.n	8001a9c <MX_SPI1_Init+0x60>
 8001a98:	f7ff fef1 	bl	800187e <Error_Handler>
 8001a9c:	bf00      	nop
 8001a9e:	bd80      	pop	{r7, pc}
 8001aa0:	20000204 	.word	0x20000204
 8001aa4:	40013000 	.word	0x40013000

08001aa8 <HAL_SPI_MspInit>:
 8001aa8:	b580      	push	{r7, lr}
 8001aaa:	b08a      	sub	sp, #40	@ 0x28
 8001aac:	af00      	add	r7, sp, #0
 8001aae:	6078      	str	r0, [r7, #4]
 8001ab0:	f107 0314 	add.w	r3, r7, #20
 8001ab4:	2200      	movs	r2, #0
 8001ab6:	601a      	str	r2, [r3, #0]
 8001ab8:	605a      	str	r2, [r3, #4]
 8001aba:	609a      	str	r2, [r3, #8]
 8001abc:	60da      	str	r2, [r3, #12]
 8001abe:	611a      	str	r2, [r3, #16]
 8001ac0:	687b      	ldr	r3, [r7, #4]
 8001ac2:	681b      	ldr	r3, [r3, #0]
 8001ac4:	4a19      	ldr	r2, [pc, #100]	@ (8001b2c <HAL_SPI_MspInit+0x84>)
 8001ac6:	4293      	cmp	r3, r2
 8001ac8:	d12b      	bne.n	8001b22 <HAL_SPI_MspInit+0x7a>
 8001aca:	2300      	movs	r3, #0
 8001acc:	613b      	str	r3, [r7, #16]
 8001ace:	4b18      	ldr	r3, [pc, #96]	@ (8001b30 <HAL_SPI_MspInit+0x88>)
 8001ad0:	6c5b      	ldr	r3, [r3, #68]	@ 0x44
 8001ad2:	4a17      	ldr	r2, [pc, #92]	@ (8001b30 <HAL_SPI_MspInit+0x88>)
 8001ad4:	f443 5380 	orr.w	r3, r3, #4096	@ 0x1000
 8001ad8:	6453      	str	r3, [r2, #68]	@ 0x44
 8001ada:	4b15      	ldr	r3, [pc, #84]	@ (8001b30 <HAL_SPI_MspInit+0x88>)
 8001adc:	6c5b      	ldr	r3, [r3, #68]	@ 0x44
 8001ade:	f403 5380 	and.w	r3, r3, #4096	@ 0x1000
 8001ae2:	613b      	str	r3, [r7, #16]
 8001ae4:	693b      	ldr	r3, [r7, #16]
 8001ae6:	2300      	movs	r3, #0
 8001ae8:	60fb      	str	r3, [r7, #12]
 8001aea:	4b11      	ldr	r3, [pc, #68]	@ (8001b30 <HAL_SPI_MspInit+0x88>)
 8001aec:	6b1b      	ldr	r3, [r3, #48]	@ 0x30
 8001aee:	4a10      	ldr	r2, [pc, #64]	@ (8001b30 <HAL_SPI_MspInit+0x88>)
 8001af0:	f043 0302 	orr.w	r3, r3, #2
 8001af4:	6313      	str	r3, [r2, #48]	@ 0x30
 8001af6:	4b0e      	ldr	r3, [pc, #56]	@ (8001b30 <HAL_SPI_MspInit+0x88>)
 8001af8:	6b1b      	ldr	r3, [r3, #48]	@ 0x30
 8001afa:	f003 0302 	and.w	r3, r3, #2
 8001afe:	60fb      	str	r3, [r7, #12]
 8001b00:	68fb      	ldr	r3, [r7, #12]
 8001b02:	2338      	movs	r3, #56	@ 0x38
 8001b04:	617b      	str	r3, [r7, #20]
 8001b06:	2302      	movs	r3, #2
 8001b08:	61bb      	str	r3, [r7, #24]
 8001b0a:	2300      	movs	r3, #0
 8001b0c:	61fb      	str	r3, [r7, #28]
 8001b0e:	2303      	movs	r3, #3
 8001b10:	623b      	str	r3, [r7, #32]
 8001b12:	2305      	movs	r3, #5
 8001b14:	627b      	str	r3, [r7, #36]	@ 0x24
 8001b16:	f107 0314 	add.w	r3, r7, #20
 8001b1a:	4619      	mov	r1, r3
 8001b1c:	4805      	ldr	r0, [pc, #20]	@ (8001b34 <HAL_SPI_MspInit+0x8c>)
 8001b1e:	f001 fe41 	bl	80037a4 <HAL_GPIO_Init>
 8001b22:	bf00      	nop
 8001b24:	3728      	adds	r7, #40	@ 0x28
 8001b26:	46bd      	mov	sp, r7
 8001b28:	bd80      	pop	{r7, pc}
 8001b2a:	bf00      	nop
 8001b2c:	40013000 	.word	0x40013000
 8001b30:	40023800 	.word	0x40023800
 8001b34:	40020400 	.word	0x40020400

08001b38 <HAL_MspInit>:
 8001b38:	b480      	push	{r7}
 8001b3a:	b083      	sub	sp, #12
 8001b3c:	af00      	add	r7, sp, #0
 8001b3e:	2300      	movs	r3, #0
 8001b40:	607b      	str	r3, [r7, #4]
 8001b42:	4b10      	ldr	r3, [pc, #64]	@ (8001b84 <HAL_MspInit+0x4c>)
 8001b44:	6c5b      	ldr	r3, [r3, #68]	@ 0x44
 8001b46:	4a0f      	ldr	r2, [pc, #60]	@ (8001b84 <HAL_MspInit+0x4c>)
 8001b48:	f443 4380 	orr.w	r3, r3, #16384	@ 0x4000
 8001b4c:	6453      	str	r3, [r2, #68]	@ 0x44
 8001b4e:	4b0d      	ldr	r3, [pc, #52]	@ (8001b84 <HAL_MspInit+0x4c>)
 8001b50:	6c5b      	ldr	r3, [r3, #68]	@ 0x44
 8001b52:	f403 4380 	and.w	r3, r3, #16384	@ 0x4000
 8001b56:	607b      	str	r3, [r7, #4]
 8001b58:	687b      	ldr	r3, [r7, #4]
 8001b5a:	2300      	movs	r3, #0
 8001b5c:	603b      	str	r3, [r7, #0]
 8001b5e:	4b09      	ldr	r3, [pc, #36]	@ (8001b84 <HAL_MspInit+0x4c>)
 8001b60:	6c1b      	ldr	r3, [r3, #64]	@ 0x40
 8001b62:	4a08      	ldr	r2, [pc, #32]	@ (8001b84 <HAL_MspInit+0x4c>)
 8001b64:	f043 5380 	orr.w	r3, r3, #268435456	@ 0x10000000
 8001b68:	6413      	str	r3, [r2, #64]	@ 0x40
 8001b6a:	4b06      	ldr	r3, [pc, #24]	@ (8001b84 <HAL_MspInit+0x4c>)
 8001b6c:	6c1b      	ldr	r3, [r3, #64]	@ 0x40
 8001b6e:	f003 5380 	and.w	r3, r3, #268435456	@ 0x10000000
 8001b72:	603b      	str	r3, [r7, #0]
 8001b74:	683b      	ldr	r3, [r7, #0]
 8001b76:	bf00      	nop
 8001b78:	370c      	adds	r7, #12
 8001b7a:	46bd      	mov	sp, r7
 8001b7c:	f85d 7b04 	ldr.w	r7, [sp], #4
 8001b80:	4770      	bx	lr
 8001b82:	bf00      	nop
 8001b84:	40023800 	.word	0x40023800

08001b88 <NMI_Handler>:
 8001b88:	b480      	push	{r7}
 8001b8a:	af00      	add	r7, sp, #0
 8001b8c:	bf00      	nop
 8001b8e:	e7fd      	b.n	8001b8c <NMI_Handler+0x4>

08001b90 <HardFault_Handler>:
 8001b90:	b480      	push	{r7}
 8001b92:	af00      	add	r7, sp, #0
 8001b94:	bf00      	nop
 8001b96:	e7fd      	b.n	8001b94 <HardFault_Handler+0x4>

08001b98 <MemManage_Handler>:
 8001b98:	b480      	push	{r7}
 8001b9a:	af00      	add	r7, sp, #0
 8001b9c:	bf00      	nop
 8001b9e:	e7fd      	b.n	8001b9c <MemManage_Handler+0x4>

08001ba0 <BusFault_Handler>:
 8001ba0:	b480      	push	{r7}
 8001ba2:	af00      	add	r7, sp, #0
 8001ba4:	bf00      	nop
 8001ba6:	e7fd      	b.n	8001ba4 <BusFault_Handler+0x4>

08001ba8 <UsageFault_Handler>:
 8001ba8:	b480      	push	{r7}
 8001baa:	af00      	add	r7, sp, #0
 8001bac:	bf00      	nop
 8001bae:	e7fd      	b.n	8001bac <UsageFault_Handler+0x4>

08001bb0 <SVC_Handler>:
 8001bb0:	b480      	push	{r7}
 8001bb2:	af00      	add	r7, sp, #0
 8001bb4:	bf00      	nop
 8001bb6:	46bd      	mov	sp, r7
 8001bb8:	f85d 7b04 	ldr.w	r7, [sp], #4
 8001bbc:	4770      	bx	lr

08001bbe <DebugMon_Handler>:
 8001bbe:	b480      	push	{r7}
 8001bc0:	af00      	add	r7, sp, #0
 8001bc2:	bf00      	nop
 8001bc4:	46bd      	mov	sp, r7
 8001bc6:	f85d 7b04 	ldr.w	r7, [sp], #4
 8001bca:	4770      	bx	lr

08001bcc <PendSV_Handler>:
 8001bcc:	b480      	push	{r7}
 8001bce:	af00      	add	r7, sp, #0
 8001bd0:	bf00      	nop
 8001bd2:	46bd      	mov	sp, r7
 8001bd4:	f85d 7b04 	ldr.w	r7, [sp], #4
 8001bd8:	4770      	bx	lr

08001bda <SysTick_Handler>:
 8001bda:	b580      	push	{r7, lr}
 8001bdc:	af00      	add	r7, sp, #0
 8001bde:	f000 fc77 	bl	80024d0 <HAL_IncTick>
 8001be2:	bf00      	nop
 8001be4:	bd80      	pop	{r7, pc}
	...

08001be8 <TIM2_IRQHandler>:
 8001be8:	b580      	push	{r7, lr}
 8001bea:	af00      	add	r7, sp, #0
 8001bec:	4802      	ldr	r0, [pc, #8]	@ (8001bf8 <TIM2_IRQHandler+0x10>)
 8001bee:	f003 f9da 	bl	8004fa6 <HAL_TIM_IRQHandler>
 8001bf2:	bf00      	nop
 8001bf4:	bd80      	pop	{r7, pc}
 8001bf6:	bf00      	nop
 8001bf8:	200002a8 	.word	0x200002a8

08001bfc <USART1_IRQHandler>:
 8001bfc:	b580      	push	{r7, lr}
 8001bfe:	af00      	add	r7, sp, #0
 8001c00:	4802      	ldr	r0, [pc, #8]	@ (8001c0c <USART1_IRQHandler+0x10>)
 8001c02:	f004 f915 	bl	8005e30 <HAL_UART_IRQHandler>
 8001c06:	bf00      	nop
 8001c08:	bd80      	pop	{r7, pc}
 8001c0a:	bf00      	nop
 8001c0c:	2000033c 	.word	0x2000033c

08001c10 <USART2_IRQHandler>:
 8001c10:	b580      	push	{r7, lr}
 8001c12:	af00      	add	r7, sp, #0
 8001c14:	4802      	ldr	r0, [pc, #8]	@ (8001c20 <USART2_IRQHandler+0x10>)
 8001c16:	f004 f90b 	bl	8005e30 <HAL_UART_IRQHandler>
 8001c1a:	bf00      	nop
 8001c1c:	bd80      	pop	{r7, pc}
 8001c1e:	bf00      	nop
 8001c20:	20000380 	.word	0x20000380

08001c24 <DMA2_Stream0_IRQHandler>:
 8001c24:	b580      	push	{r7, lr}
 8001c26:	af00      	add	r7, sp, #0
 8001c28:	4802      	ldr	r0, [pc, #8]	@ (8001c34 <DMA2_Stream0_IRQHandler+0x10>)
 8001c2a:	f001 fb51 	bl	80032d0 <HAL_DMA_IRQHandler>
 8001c2e:	bf00      	nop
 8001c30:	bd80      	pop	{r7, pc}
 8001c32:	bf00      	nop
 8001c34:	200000d4 	.word	0x200000d4

08001c38 <_getpid>:
 8001c38:	b480      	push	{r7}
 8001c3a:	af00      	add	r7, sp, #0
 8001c3c:	2301      	movs	r3, #1
 8001c3e:	4618      	mov	r0, r3
 8001c40:	46bd      	mov	sp, r7
 8001c42:	f85d 7b04 	ldr.w	r7, [sp], #4
 8001c46:	4770      	bx	lr

08001c48 <_kill>:
 8001c48:	b580      	push	{r7, lr}
 8001c4a:	b082      	sub	sp, #8
 8001c4c:	af00      	add	r7, sp, #0
 8001c4e:	6078      	str	r0, [r7, #4]
 8001c50:	6039      	str	r1, [r7, #0]
 8001c52:	f005 fb5f 	bl	8007314 <__errno>
 8001c56:	4603      	mov	r3, r0
 8001c58:	2216      	movs	r2, #22
 8001c5a:	601a      	str	r2, [r3, #0]
 8001c5c:	f04f 33ff 	mov.w	r3, #4294967295
 8001c60:	4618      	mov	r0, r3
 8001c62:	3708      	adds	r7, #8
 8001c64:	46bd      	mov	sp, r7
 8001c66:	bd80      	pop	{r7, pc}

08001c68 <_exit>:
 8001c68:	b580      	push	{r7, lr}
 8001c6a:	b082      	sub	sp, #8
 8001c6c:	af00      	add	r7, sp, #0
 8001c6e:	6078      	str	r0, [r7, #4]
 8001c70:	f04f 31ff 	mov.w	r1, #4294967295
 8001c74:	6878      	ldr	r0, [r7, #4]
 8001c76:	f7ff ffe7 	bl	8001c48 <_kill>
 8001c7a:	bf00      	nop
 8001c7c:	e7fd      	b.n	8001c7a <_exit+0x12>

08001c7e <_read>:
 8001c7e:	b580      	push	{r7, lr}
 8001c80:	b086      	sub	sp, #24
 8001c82:	af00      	add	r7, sp, #0
 8001c84:	60f8      	str	r0, [r7, #12]
 8001c86:	60b9      	str	r1, [r7, #8]
 8001c88:	607a      	str	r2, [r7, #4]
 8001c8a:	2300      	movs	r3, #0
 8001c8c:	617b      	str	r3, [r7, #20]
 8001c8e:	e00a      	b.n	8001ca6 <_read+0x28>
 8001c90:	f3af 8000 	nop.w
 8001c94:	4601      	mov	r1, r0
 8001c96:	68bb      	ldr	r3, [r7, #8]
 8001c98:	1c5a      	adds	r2, r3, #1
 8001c9a:	60ba      	str	r2, [r7, #8]
 8001c9c:	b2ca      	uxtb	r2, r1
 8001c9e:	701a      	strb	r2, [r3, #0]
 8001ca0:	697b      	ldr	r3, [r7, #20]
 8001ca2:	3301      	adds	r3, #1
 8001ca4:	617b      	str	r3, [r7, #20]
 8001ca6:	697a      	ldr	r2, [r7, #20]
 8001ca8:	687b      	ldr	r3, [r7, #4]
 8001caa:	429a      	cmp	r2, r3
 8001cac:	dbf0      	blt.n	8001c90 <_read+0x12>
 8001cae:	687b      	ldr	r3, [r7, #4]
 8001cb0:	4618      	mov	r0, r3
 8001cb2:	3718      	adds	r7, #24
 8001cb4:	46bd      	mov	sp, r7
 8001cb6:	bd80      	pop	{r7, pc}

08001cb8 <_write>:
 8001cb8:	b580      	push	{r7, lr}
 8001cba:	b086      	sub	sp, #24
 8001cbc:	af00      	add	r7, sp, #0
 8001cbe:	60f8      	str	r0, [r7, #12]
 8001cc0:	60b9      	str	r1, [r7, #8]
 8001cc2:	607a      	str	r2, [r7, #4]
 8001cc4:	2300      	movs	r3, #0
 8001cc6:	617b      	str	r3, [r7, #20]
 8001cc8:	e009      	b.n	8001cde <_write+0x26>
 8001cca:	68bb      	ldr	r3, [r7, #8]
 8001ccc:	1c5a      	adds	r2, r3, #1
 8001cce:	60ba      	str	r2, [r7, #8]
 8001cd0:	781b      	ldrb	r3, [r3, #0]
 8001cd2:	4618      	mov	r0, r3
 8001cd4:	f3af 8000 	nop.w
 8001cd8:	697b      	ldr	r3, [r7, #20]
 8001cda:	3301      	adds	r3, #1
 8001cdc:	617b      	str	r3, [r7, #20]
 8001cde:	697a      	ldr	r2, [r7, #20]
 8001ce0:	687b      	ldr	r3, [r7, #4]
 8001ce2:	429a      	cmp	r2, r3
 8001ce4:	dbf1      	blt.n	8001cca <_write+0x12>
 8001ce6:	687b      	ldr	r3, [r7, #4]
 8001ce8:	4618      	mov	r0, r3
 8001cea:	3718      	adds	r7, #24
 8001cec:	46bd      	mov	sp, r7
 8001cee:	bd80      	pop	{r7, pc}

08001cf0 <_close>:
 8001cf0:	b480      	push	{r7}
 8001cf2:	b083      	sub	sp, #12
 8001cf4:	af00      	add	r7, sp, #0
 8001cf6:	6078      	str	r0, [r7, #4]
 8001cf8:	f04f 33ff 	mov.w	r3, #4294967295
 8001cfc:	4618      	mov	r0, r3
 8001cfe:	370c      	adds	r7, #12
 8001d00:	46bd      	mov	sp, r7
 8001d02:	f85d 7b04 	ldr.w	r7, [sp], #4
 8001d06:	4770      	bx	lr

08001d08 <_fstat>:
 8001d08:	b480      	push	{r7}
 8001d0a:	b083      	sub	sp, #12
 8001d0c:	af00      	add	r7, sp, #0
 8001d0e:	6078      	str	r0, [r7, #4]
 8001d10:	6039      	str	r1, [r7, #0]
 8001d12:	683b      	ldr	r3, [r7, #0]
 8001d14:	f44f 5200 	mov.w	r2, #8192	@ 0x2000
 8001d18:	605a      	str	r2, [r3, #4]
 8001d1a:	2300      	movs	r3, #0
 8001d1c:	4618      	mov	r0, r3
 8001d1e:	370c      	adds	r7, #12
 8001d20:	46bd      	mov	sp, r7
 8001d22:	f85d 7b04 	ldr.w	r7, [sp], #4
 8001d26:	4770      	bx	lr

08001d28 <_isatty>:
 8001d28:	b480      	push	{r7}
 8001d2a:	b083      	sub	sp, #12
 8001d2c:	af00      	add	r7, sp, #0
 8001d2e:	6078      	str	r0, [r7, #4]
 8001d30:	2301      	movs	r3, #1
 8001d32:	4618      	mov	r0, r3
 8001d34:	370c      	adds	r7, #12
 8001d36:	46bd      	mov	sp, r7
 8001d38:	f85d 7b04 	ldr.w	r7, [sp], #4
 8001d3c:	4770      	bx	lr

08001d3e <_lseek>:
 8001d3e:	b480      	push	{r7}
 8001d40:	b085      	sub	sp, #20
 8001d42:	af00      	add	r7, sp, #0
 8001d44:	60f8      	str	r0, [r7, #12]
 8001d46:	60b9      	str	r1, [r7, #8]
 8001d48:	607a      	str	r2, [r7, #4]
 8001d4a:	2300      	movs	r3, #0
 8001d4c:	4618      	mov	r0, r3
 8001d4e:	3714      	adds	r7, #20
 8001d50:	46bd      	mov	sp, r7
 8001d52:	f85d 7b04 	ldr.w	r7, [sp], #4
 8001d56:	4770      	bx	lr

08001d58 <_sbrk>:
 8001d58:	b580      	push	{r7, lr}
 8001d5a:	b086      	sub	sp, #24
 8001d5c:	af00      	add	r7, sp, #0
 8001d5e:	6078      	str	r0, [r7, #4]
 8001d60:	4a14      	ldr	r2, [pc, #80]	@ (8001db4 <_sbrk+0x5c>)
 8001d62:	4b15      	ldr	r3, [pc, #84]	@ (8001db8 <_sbrk+0x60>)
 8001d64:	1ad3      	subs	r3, r2, r3
 8001d66:	617b      	str	r3, [r7, #20]
 8001d68:	697b      	ldr	r3, [r7, #20]
 8001d6a:	613b      	str	r3, [r7, #16]
 8001d6c:	4b13      	ldr	r3, [pc, #76]	@ (8001dbc <_sbrk+0x64>)
 8001d6e:	681b      	ldr	r3, [r3, #0]
 8001d70:	2b00      	cmp	r3, #0
 8001d72:	d102      	bne.n	8001d7a <_sbrk+0x22>
 8001d74:	4b11      	ldr	r3, [pc, #68]	@ (8001dbc <_sbrk+0x64>)
 8001d76:	4a12      	ldr	r2, [pc, #72]	@ (8001dc0 <_sbrk+0x68>)
 8001d78:	601a      	str	r2, [r3, #0]
 8001d7a:	4b10      	ldr	r3, [pc, #64]	@ (8001dbc <_sbrk+0x64>)
 8001d7c:	681a      	ldr	r2, [r3, #0]
 8001d7e:	687b      	ldr	r3, [r7, #4]
 8001d80:	4413      	add	r3, r2
 8001d82:	693a      	ldr	r2, [r7, #16]
 8001d84:	429a      	cmp	r2, r3
 8001d86:	d207      	bcs.n	8001d98 <_sbrk+0x40>
 8001d88:	f005 fac4 	bl	8007314 <__errno>
 8001d8c:	4603      	mov	r3, r0
 8001d8e:	220c      	movs	r2, #12
 8001d90:	601a      	str	r2, [r3, #0]
 8001d92:	f04f 33ff 	mov.w	r3, #4294967295
 8001d96:	e009      	b.n	8001dac <_sbrk+0x54>
 8001d98:	4b08      	ldr	r3, [pc, #32]	@ (8001dbc <_sbrk+0x64>)
 8001d9a:	681b      	ldr	r3, [r3, #0]
 8001d9c:	60fb      	str	r3, [r7, #12]
 8001d9e:	4b07      	ldr	r3, [pc, #28]	@ (8001dbc <_sbrk+0x64>)
 8001da0:	681a      	ldr	r2, [r3, #0]
 8001da2:	687b      	ldr	r3, [r7, #4]
 8001da4:	4413      	add	r3, r2
 8001da6:	4a05      	ldr	r2, [pc, #20]	@ (8001dbc <_sbrk+0x64>)
 8001da8:	6013      	str	r3, [r2, #0]
 8001daa:	68fb      	ldr	r3, [r7, #12]
 8001dac:	4618      	mov	r0, r3
 8001dae:	3718      	adds	r7, #24
 8001db0:	46bd      	mov	sp, r7
 8001db2:	bd80      	pop	{r7, pc}
 8001db4:	20020000 	.word	0x20020000
 8001db8:	00000400 	.word	0x00000400
 8001dbc:	2000025c 	.word	0x2000025c
 8001dc0:	20000518 	.word	0x20000518

08001dc4 <SystemInit>:
 8001dc4:	b480      	push	{r7}
 8001dc6:	af00      	add	r7, sp, #0
 8001dc8:	4b06      	ldr	r3, [pc, #24]	@ (8001de4 <SystemInit+0x20>)
 8001dca:	f8d3 3088 	ldr.w	r3, [r3, #136]	@ 0x88
 8001dce:	4a05      	ldr	r2, [pc, #20]	@ (8001de4 <SystemInit+0x20>)
 8001dd0:	f443 0370 	orr.w	r3, r3, #15728640	@ 0xf00000
 8001dd4:	f8c2 3088 	str.w	r3, [r2, #136]	@ 0x88
 8001dd8:	bf00      	nop
 8001dda:	46bd      	mov	sp, r7
 8001ddc:	f85d 7b04 	ldr.w	r7, [sp], #4
 8001de0:	4770      	bx	lr
 8001de2:	bf00      	nop
 8001de4:	e000ed00 	.word	0xe000ed00

08001de8 <MX_TIM1_Init>:
 8001de8:	b580      	push	{r7, lr}
 8001dea:	b086      	sub	sp, #24
 8001dec:	af00      	add	r7, sp, #0
 8001dee:	f107 0308 	add.w	r3, r7, #8
 8001df2:	2200      	movs	r2, #0
 8001df4:	601a      	str	r2, [r3, #0]
 8001df6:	605a      	str	r2, [r3, #4]
 8001df8:	609a      	str	r2, [r3, #8]
 8001dfa:	60da      	str	r2, [r3, #12]
 8001dfc:	463b      	mov	r3, r7
 8001dfe:	2200      	movs	r2, #0
 8001e00:	601a      	str	r2, [r3, #0]
 8001e02:	605a      	str	r2, [r3, #4]
 8001e04:	4b1e      	ldr	r3, [pc, #120]	@ (8001e80 <MX_TIM1_Init+0x98>)
 8001e06:	4a1f      	ldr	r2, [pc, #124]	@ (8001e84 <MX_TIM1_Init+0x9c>)
 8001e08:	601a      	str	r2, [r3, #0]
 8001e0a:	4b1d      	ldr	r3, [pc, #116]	@ (8001e80 <MX_TIM1_Init+0x98>)
 8001e0c:	2253      	movs	r2, #83	@ 0x53
 8001e0e:	605a      	str	r2, [r3, #4]
 8001e10:	4b1b      	ldr	r3, [pc, #108]	@ (8001e80 <MX_TIM1_Init+0x98>)
 8001e12:	2200      	movs	r2, #0
 8001e14:	609a      	str	r2, [r3, #8]
 8001e16:	4b1a      	ldr	r3, [pc, #104]	@ (8001e80 <MX_TIM1_Init+0x98>)
 8001e18:	f64f 72ff 	movw	r2, #65535	@ 0xffff
 8001e1c:	60da      	str	r2, [r3, #12]
 8001e1e:	4b18      	ldr	r3, [pc, #96]	@ (8001e80 <MX_TIM1_Init+0x98>)
 8001e20:	2200      	movs	r2, #0
 8001e22:	611a      	str	r2, [r3, #16]
 8001e24:	4b16      	ldr	r3, [pc, #88]	@ (8001e80 <MX_TIM1_Init+0x98>)
 8001e26:	2200      	movs	r2, #0
 8001e28:	615a      	str	r2, [r3, #20]
 8001e2a:	4b15      	ldr	r3, [pc, #84]	@ (8001e80 <MX_TIM1_Init+0x98>)
 8001e2c:	2200      	movs	r2, #0
 8001e2e:	619a      	str	r2, [r3, #24]
 8001e30:	4813      	ldr	r0, [pc, #76]	@ (8001e80 <MX_TIM1_Init+0x98>)
 8001e32:	f002 ff37 	bl	8004ca4 <HAL_TIM_Base_Init>
 8001e36:	4603      	mov	r3, r0
 8001e38:	2b00      	cmp	r3, #0
 8001e3a:	d001      	beq.n	8001e40 <MX_TIM1_Init+0x58>
 8001e3c:	f7ff fd1f 	bl	800187e <Error_Handler>
 8001e40:	f44f 5380 	mov.w	r3, #4096	@ 0x1000
 8001e44:	60bb      	str	r3, [r7, #8]
 8001e46:	f107 0308 	add.w	r3, r7, #8
 8001e4a:	4619      	mov	r1, r3
 8001e4c:	480c      	ldr	r0, [pc, #48]	@ (8001e80 <MX_TIM1_Init+0x98>)
 8001e4e:	f003 fa75 	bl	800533c <HAL_TIM_ConfigClockSource>
 8001e52:	4603      	mov	r3, r0
 8001e54:	2b00      	cmp	r3, #0
 8001e56:	d001      	beq.n	8001e5c <MX_TIM1_Init+0x74>
 8001e58:	f7ff fd11 	bl	800187e <Error_Handler>
 8001e5c:	2300      	movs	r3, #0
 8001e5e:	603b      	str	r3, [r7, #0]
 8001e60:	2300      	movs	r3, #0
 8001e62:	607b      	str	r3, [r7, #4]
 8001e64:	463b      	mov	r3, r7
 8001e66:	4619      	mov	r1, r3
 8001e68:	4805      	ldr	r0, [pc, #20]	@ (8001e80 <MX_TIM1_Init+0x98>)
 8001e6a:	f003 fe41 	bl	8005af0 <HAL_TIMEx_MasterConfigSynchronization>
 8001e6e:	4603      	mov	r3, r0
 8001e70:	2b00      	cmp	r3, #0
 8001e72:	d001      	beq.n	8001e78 <MX_TIM1_Init+0x90>
 8001e74:	f7ff fd03 	bl	800187e <Error_Handler>
 8001e78:	bf00      	nop
 8001e7a:	3718      	adds	r7, #24
 8001e7c:	46bd      	mov	sp, r7
 8001e7e:	bd80      	pop	{r7, pc}
 8001e80:	20000260 	.word	0x20000260
 8001e84:	40010000 	.word	0x40010000

08001e88 <MX_TIM2_Init>:
 8001e88:	b580      	push	{r7, lr}
 8001e8a:	b086      	sub	sp, #24
 8001e8c:	af00      	add	r7, sp, #0
 8001e8e:	f107 0308 	add.w	r3, r7, #8
 8001e92:	2200      	movs	r2, #0
 8001e94:	601a      	str	r2, [r3, #0]
 8001e96:	605a      	str	r2, [r3, #4]
 8001e98:	609a      	str	r2, [r3, #8]
 8001e9a:	60da      	str	r2, [r3, #12]
 8001e9c:	463b      	mov	r3, r7
 8001e9e:	2200      	movs	r2, #0
 8001ea0:	601a      	str	r2, [r3, #0]
 8001ea2:	605a      	str	r2, [r3, #4]
 8001ea4:	4b1d      	ldr	r3, [pc, #116]	@ (8001f1c <MX_TIM2_Init+0x94>)
 8001ea6:	f04f 4280 	mov.w	r2, #1073741824	@ 0x40000000
 8001eaa:	601a      	str	r2, [r3, #0]
 8001eac:	4b1b      	ldr	r3, [pc, #108]	@ (8001f1c <MX_TIM2_Init+0x94>)
 8001eae:	f240 3247 	movw	r2, #839	@ 0x347
 8001eb2:	605a      	str	r2, [r3, #4]
 8001eb4:	4b19      	ldr	r3, [pc, #100]	@ (8001f1c <MX_TIM2_Init+0x94>)
 8001eb6:	2200      	movs	r2, #0
 8001eb8:	609a      	str	r2, [r3, #8]
 8001eba:	4b18      	ldr	r3, [pc, #96]	@ (8001f1c <MX_TIM2_Init+0x94>)
 8001ebc:	2263      	movs	r2, #99	@ 0x63
 8001ebe:	60da      	str	r2, [r3, #12]
 8001ec0:	4b16      	ldr	r3, [pc, #88]	@ (8001f1c <MX_TIM2_Init+0x94>)
 8001ec2:	2200      	movs	r2, #0
 8001ec4:	611a      	str	r2, [r3, #16]
 8001ec6:	4b15      	ldr	r3, [pc, #84]	@ (8001f1c <MX_TIM2_Init+0x94>)
 8001ec8:	2200      	movs	r2, #0
 8001eca:	619a      	str	r2, [r3, #24]
 8001ecc:	4813      	ldr	r0, [pc, #76]	@ (8001f1c <MX_TIM2_Init+0x94>)
 8001ece:	f002 fee9 	bl	8004ca4 <HAL_TIM_Base_Init>
 8001ed2:	4603      	mov	r3, r0
 8001ed4:	2b00      	cmp	r3, #0
 8001ed6:	d001      	beq.n	8001edc <MX_TIM2_Init+0x54>
 8001ed8:	f7ff fcd1 	bl	800187e <Error_Handler>
 8001edc:	f44f 5380 	mov.w	r3, #4096	@ 0x1000
 8001ee0:	60bb      	str	r3, [r7, #8]
 8001ee2:	f107 0308 	add.w	r3, r7, #8
 8001ee6:	4619      	mov	r1, r3
 8001ee8:	480c      	ldr	r0, [pc, #48]	@ (8001f1c <MX_TIM2_Init+0x94>)
 8001eea:	f003 fa27 	bl	800533c <HAL_TIM_ConfigClockSource>
 8001eee:	4603      	mov	r3, r0
 8001ef0:	2b00      	cmp	r3, #0
 8001ef2:	d001      	beq.n	8001ef8 <MX_TIM2_Init+0x70>
 8001ef4:	f7ff fcc3 	bl	800187e <Error_Handler>
 8001ef8:	2300      	movs	r3, #0
 8001efa:	603b      	str	r3, [r7, #0]
 8001efc:	2300      	movs	r3, #0
 8001efe:	607b      	str	r3, [r7, #4]
 8001f00:	463b      	mov	r3, r7
 8001f02:	4619      	mov	r1, r3
 8001f04:	4805      	ldr	r0, [pc, #20]	@ (8001f1c <MX_TIM2_Init+0x94>)
 8001f06:	f003 fdf3 	bl	8005af0 <HAL_TIMEx_MasterConfigSynchronization>
 8001f0a:	4603      	mov	r3, r0
 8001f0c:	2b00      	cmp	r3, #0
 8001f0e:	d001      	beq.n	8001f14 <MX_TIM2_Init+0x8c>
 8001f10:	f7ff fcb5 	bl	800187e <Error_Handler>
 8001f14:	bf00      	nop
 8001f16:	3718      	adds	r7, #24
 8001f18:	46bd      	mov	sp, r7
 8001f1a:	bd80      	pop	{r7, pc}
 8001f1c:	200002a8 	.word	0x200002a8

08001f20 <MX_TIM13_Init>:
 8001f20:	b580      	push	{r7, lr}
 8001f22:	b088      	sub	sp, #32
 8001f24:	af00      	add	r7, sp, #0
 8001f26:	1d3b      	adds	r3, r7, #4
 8001f28:	2200      	movs	r2, #0
 8001f2a:	601a      	str	r2, [r3, #0]
 8001f2c:	605a      	str	r2, [r3, #4]
 8001f2e:	609a      	str	r2, [r3, #8]
 8001f30:	60da      	str	r2, [r3, #12]
 8001f32:	611a      	str	r2, [r3, #16]
 8001f34:	615a      	str	r2, [r3, #20]
 8001f36:	619a      	str	r2, [r3, #24]
 8001f38:	4b1e      	ldr	r3, [pc, #120]	@ (8001fb4 <MX_TIM13_Init+0x94>)
 8001f3a:	4a1f      	ldr	r2, [pc, #124]	@ (8001fb8 <MX_TIM13_Init+0x98>)
 8001f3c:	601a      	str	r2, [r3, #0]
 8001f3e:	4b1d      	ldr	r3, [pc, #116]	@ (8001fb4 <MX_TIM13_Init+0x94>)
 8001f40:	f240 3247 	movw	r2, #839	@ 0x347
 8001f44:	605a      	str	r2, [r3, #4]
 8001f46:	4b1b      	ldr	r3, [pc, #108]	@ (8001fb4 <MX_TIM13_Init+0x94>)
 8001f48:	2200      	movs	r2, #0
 8001f4a:	609a      	str	r2, [r3, #8]
 8001f4c:	4b19      	ldr	r3, [pc, #100]	@ (8001fb4 <MX_TIM13_Init+0x94>)
 8001f4e:	2263      	movs	r2, #99	@ 0x63
 8001f50:	60da      	str	r2, [r3, #12]
 8001f52:	4b18      	ldr	r3, [pc, #96]	@ (8001fb4 <MX_TIM13_Init+0x94>)
 8001f54:	2200      	movs	r2, #0
 8001f56:	611a      	str	r2, [r3, #16]
 8001f58:	4b16      	ldr	r3, [pc, #88]	@ (8001fb4 <MX_TIM13_Init+0x94>)
 8001f5a:	2200      	movs	r2, #0
 8001f5c:	619a      	str	r2, [r3, #24]
 8001f5e:	4815      	ldr	r0, [pc, #84]	@ (8001fb4 <MX_TIM13_Init+0x94>)
 8001f60:	f002 fea0 	bl	8004ca4 <HAL_TIM_Base_Init>
 8001f64:	4603      	mov	r3, r0
 8001f66:	2b00      	cmp	r3, #0
 8001f68:	d001      	beq.n	8001f6e <MX_TIM13_Init+0x4e>
 8001f6a:	f7ff fc88 	bl	800187e <Error_Handler>
 8001f6e:	4811      	ldr	r0, [pc, #68]	@ (8001fb4 <MX_TIM13_Init+0x94>)
 8001f70:	f002 ffc0 	bl	8004ef4 <HAL_TIM_PWM_Init>
 8001f74:	4603      	mov	r3, r0
 8001f76:	2b00      	cmp	r3, #0
 8001f78:	d001      	beq.n	8001f7e <MX_TIM13_Init+0x5e>
 8001f7a:	f7ff fc80 	bl	800187e <Error_Handler>
 8001f7e:	2360      	movs	r3, #96	@ 0x60
 8001f80:	607b      	str	r3, [r7, #4]
 8001f82:	2300      	movs	r3, #0
 8001f84:	60bb      	str	r3, [r7, #8]
 8001f86:	2300      	movs	r3, #0
 8001f88:	60fb      	str	r3, [r7, #12]
 8001f8a:	2300      	movs	r3, #0
 8001f8c:	617b      	str	r3, [r7, #20]
 8001f8e:	1d3b      	adds	r3, r7, #4
 8001f90:	2200      	movs	r2, #0
 8001f92:	4619      	mov	r1, r3
 8001f94:	4807      	ldr	r0, [pc, #28]	@ (8001fb4 <MX_TIM13_Init+0x94>)
 8001f96:	f003 f90f 	bl	80051b8 <HAL_TIM_PWM_ConfigChannel>
 8001f9a:	4603      	mov	r3, r0
 8001f9c:	2b00      	cmp	r3, #0
 8001f9e:	d001      	beq.n	8001fa4 <MX_TIM13_Init+0x84>
 8001fa0:	f7ff fc6d 	bl	800187e <Error_Handler>
 8001fa4:	4803      	ldr	r0, [pc, #12]	@ (8001fb4 <MX_TIM13_Init+0x94>)
 8001fa6:	f000 f85b 	bl	8002060 <HAL_TIM_MspPostInit>
 8001faa:	bf00      	nop
 8001fac:	3720      	adds	r7, #32
 8001fae:	46bd      	mov	sp, r7
 8001fb0:	bd80      	pop	{r7, pc}
 8001fb2:	bf00      	nop
 8001fb4:	200002f0 	.word	0x200002f0
 8001fb8:	40001c00 	.word	0x40001c00

08001fbc <HAL_TIM_Base_MspInit>:
 8001fbc:	b580      	push	{r7, lr}
 8001fbe:	b086      	sub	sp, #24
 8001fc0:	af00      	add	r7, sp, #0
 8001fc2:	6078      	str	r0, [r7, #4]
 8001fc4:	687b      	ldr	r3, [r7, #4]
 8001fc6:	681b      	ldr	r3, [r3, #0]
 8001fc8:	4a22      	ldr	r2, [pc, #136]	@ (8002054 <HAL_TIM_Base_MspInit+0x98>)
 8001fca:	4293      	cmp	r3, r2
 8001fcc:	d10e      	bne.n	8001fec <HAL_TIM_Base_MspInit+0x30>
 8001fce:	2300      	movs	r3, #0
 8001fd0:	617b      	str	r3, [r7, #20]
 8001fd2:	4b21      	ldr	r3, [pc, #132]	@ (8002058 <HAL_TIM_Base_MspInit+0x9c>)
 8001fd4:	6c5b      	ldr	r3, [r3, #68]	@ 0x44
 8001fd6:	4a20      	ldr	r2, [pc, #128]	@ (8002058 <HAL_TIM_Base_MspInit+0x9c>)
 8001fd8:	f043 0301 	orr.w	r3, r3, #1
 8001fdc:	6453      	str	r3, [r2, #68]	@ 0x44
 8001fde:	4b1e      	ldr	r3, [pc, #120]	@ (8002058 <HAL_TIM_Base_MspInit+0x9c>)
 8001fe0:	6c5b      	ldr	r3, [r3, #68]	@ 0x44
 8001fe2:	f003 0301 	and.w	r3, r3, #1
 8001fe6:	617b      	str	r3, [r7, #20]
 8001fe8:	697b      	ldr	r3, [r7, #20]
 8001fea:	e02e      	b.n	800204a <HAL_TIM_Base_MspInit+0x8e>
 8001fec:	687b      	ldr	r3, [r7, #4]
 8001fee:	681b      	ldr	r3, [r3, #0]
 8001ff0:	f1b3 4f80 	cmp.w	r3, #1073741824	@ 0x40000000
 8001ff4:	d116      	bne.n	8002024 <HAL_TIM_Base_MspInit+0x68>
 8001ff6:	2300      	movs	r3, #0
 8001ff8:	613b      	str	r3, [r7, #16]
 8001ffa:	4b17      	ldr	r3, [pc, #92]	@ (8002058 <HAL_TIM_Base_MspInit+0x9c>)
 8001ffc:	6c1b      	ldr	r3, [r3, #64]	@ 0x40
 8001ffe:	4a16      	ldr	r2, [pc, #88]	@ (8002058 <HAL_TIM_Base_MspInit+0x9c>)
 8002000:	f043 0301 	orr.w	r3, r3, #1
 8002004:	6413      	str	r3, [r2, #64]	@ 0x40
 8002006:	4b14      	ldr	r3, [pc, #80]	@ (8002058 <HAL_TIM_Base_MspInit+0x9c>)
 8002008:	6c1b      	ldr	r3, [r3, #64]	@ 0x40
 800200a:	f003 0301 	and.w	r3, r3, #1
 800200e:	613b      	str	r3, [r7, #16]
 8002010:	693b      	ldr	r3, [r7, #16]
 8002012:	2200      	movs	r2, #0
 8002014:	2100      	movs	r1, #0
 8002016:	201c      	movs	r0, #28
 8002018:	f000 ff8b 	bl	8002f32 <HAL_NVIC_SetPriority>
 800201c:	201c      	movs	r0, #28
 800201e:	f000 ffa4 	bl	8002f6a <HAL_NVIC_EnableIRQ>
 8002022:	e012      	b.n	800204a <HAL_TIM_Base_MspInit+0x8e>
 8002024:	687b      	ldr	r3, [r7, #4]
 8002026:	681b      	ldr	r3, [r3, #0]
 8002028:	4a0c      	ldr	r2, [pc, #48]	@ (800205c <HAL_TIM_Base_MspInit+0xa0>)
 800202a:	4293      	cmp	r3, r2
 800202c:	d10d      	bne.n	800204a <HAL_TIM_Base_MspInit+0x8e>
 800202e:	2300      	movs	r3, #0
 8002030:	60fb      	str	r3, [r7, #12]
 8002032:	4b09      	ldr	r3, [pc, #36]	@ (8002058 <HAL_TIM_Base_MspInit+0x9c>)
 8002034:	6c1b      	ldr	r3, [r3, #64]	@ 0x40
 8002036:	4a08      	ldr	r2, [pc, #32]	@ (8002058 <HAL_TIM_Base_MspInit+0x9c>)
 8002038:	f043 0380 	orr.w	r3, r3, #128	@ 0x80
 800203c:	6413      	str	r3, [r2, #64]	@ 0x40
 800203e:	4b06      	ldr	r3, [pc, #24]	@ (8002058 <HAL_TIM_Base_MspInit+0x9c>)
 8002040:	6c1b      	ldr	r3, [r3, #64]	@ 0x40
 8002042:	f003 0380 	and.w	r3, r3, #128	@ 0x80
 8002046:	60fb      	str	r3, [r7, #12]
 8002048:	68fb      	ldr	r3, [r7, #12]
 800204a:	bf00      	nop
 800204c:	3718      	adds	r7, #24
 800204e:	46bd      	mov	sp, r7
 8002050:	bd80      	pop	{r7, pc}
 8002052:	bf00      	nop
 8002054:	40010000 	.word	0x40010000
 8002058:	40023800 	.word	0x40023800
 800205c:	40001c00 	.word	0x40001c00

08002060 <HAL_TIM_MspPostInit>:
 8002060:	b580      	push	{r7, lr}
 8002062:	b088      	sub	sp, #32
 8002064:	af00      	add	r7, sp, #0
 8002066:	6078      	str	r0, [r7, #4]
 8002068:	f107 030c 	add.w	r3, r7, #12
 800206c:	2200      	movs	r2, #0
 800206e:	601a      	str	r2, [r3, #0]
 8002070:	605a      	str	r2, [r3, #4]
 8002072:	609a      	str	r2, [r3, #8]
 8002074:	60da      	str	r2, [r3, #12]
 8002076:	611a      	str	r2, [r3, #16]
 8002078:	687b      	ldr	r3, [r7, #4]
 800207a:	681b      	ldr	r3, [r3, #0]
 800207c:	4a12      	ldr	r2, [pc, #72]	@ (80020c8 <HAL_TIM_MspPostInit+0x68>)
 800207e:	4293      	cmp	r3, r2
 8002080:	d11e      	bne.n	80020c0 <HAL_TIM_MspPostInit+0x60>
 8002082:	2300      	movs	r3, #0
 8002084:	60bb      	str	r3, [r7, #8]
 8002086:	4b11      	ldr	r3, [pc, #68]	@ (80020cc <HAL_TIM_MspPostInit+0x6c>)
 8002088:	6b1b      	ldr	r3, [r3, #48]	@ 0x30
 800208a:	4a10      	ldr	r2, [pc, #64]	@ (80020cc <HAL_TIM_MspPostInit+0x6c>)
 800208c:	f043 0320 	orr.w	r3, r3, #32
 8002090:	6313      	str	r3, [r2, #48]	@ 0x30
 8002092:	4b0e      	ldr	r3, [pc, #56]	@ (80020cc <HAL_TIM_MspPostInit+0x6c>)
 8002094:	6b1b      	ldr	r3, [r3, #48]	@ 0x30
 8002096:	f003 0320 	and.w	r3, r3, #32
 800209a:	60bb      	str	r3, [r7, #8]
 800209c:	68bb      	ldr	r3, [r7, #8]
 800209e:	f44f 7380 	mov.w	r3, #256	@ 0x100
 80020a2:	60fb      	str	r3, [r7, #12]
 80020a4:	2302      	movs	r3, #2
 80020a6:	613b      	str	r3, [r7, #16]
 80020a8:	2300      	movs	r3, #0
 80020aa:	617b      	str	r3, [r7, #20]
 80020ac:	2300      	movs	r3, #0
 80020ae:	61bb      	str	r3, [r7, #24]
 80020b0:	2309      	movs	r3, #9
 80020b2:	61fb      	str	r3, [r7, #28]
 80020b4:	f107 030c 	add.w	r3, r7, #12
 80020b8:	4619      	mov	r1, r3
 80020ba:	4805      	ldr	r0, [pc, #20]	@ (80020d0 <HAL_TIM_MspPostInit+0x70>)
 80020bc:	f001 fb72 	bl	80037a4 <HAL_GPIO_Init>
 80020c0:	bf00      	nop
 80020c2:	3720      	adds	r7, #32
 80020c4:	46bd      	mov	sp, r7
 80020c6:	bd80      	pop	{r7, pc}
 80020c8:	40001c00 	.word	0x40001c00
 80020cc:	40023800 	.word	0x40023800
 80020d0:	40021400 	.word	0x40021400

080020d4 <uart_init_esp>:
	uart_EspSendString(".");
    sprintf((void*)msg,"%ld#",num%100);
    uart_EspSendString(msg);
}

void uart_init_esp(){
 80020d4:	b580      	push	{r7, lr}
 80020d6:	af00      	add	r7, sp, #0
	HAL_UART_Receive_IT(&huart2, &receive_buffer2, 1);
 80020d8:	2201      	movs	r2, #1
 80020da:	4906      	ldr	r1, [pc, #24]	@ (80020f4 <uart_init_esp+0x20>)
 80020dc:	4806      	ldr	r0, [pc, #24]	@ (80020f8 <uart_init_esp+0x24>)
 80020de:	f003 fe76 	bl	8005dce <HAL_UART_Receive_IT>
	HAL_GPIO_WritePin(ESP12_PWR_GPIO_Port, ESP12_PWR_Pin, 1);
 80020e2:	2201      	movs	r2, #1
 80020e4:	f44f 6180 	mov.w	r1, #1024	@ 0x400
 80020e8:	4804      	ldr	r0, [pc, #16]	@ (80020fc <uart_init_esp+0x28>)
 80020ea:	f001 fcf7 	bl	8003adc <HAL_GPIO_WritePin>
}
 80020ee:	bf00      	nop
 80020f0:	bd80      	pop	{r7, pc}
 80020f2:	bf00      	nop
 80020f4:	20000339 	.word	0x20000339
 80020f8:	20000380 	.word	0x20000380
 80020fc:	40021400 	.word	0x40021400

08002100 <uart_EspSendBytes>:

void uart_EspSendBytes(uint8_t* bytes, uint16_t size){
 8002100:	b580      	push	{r7, lr}
 8002102:	b082      	sub	sp, #8
 8002104:	af00      	add	r7, sp, #0
 8002106:	6078      	str	r0, [r7, #4]
 8002108:	460b      	mov	r3, r1
 800210a:	807b      	strh	r3, [r7, #2]
	HAL_UART_Transmit(&huart2, bytes, size, 10);
 800210c:	887a      	ldrh	r2, [r7, #2]
 800210e:	230a      	movs	r3, #10
 8002110:	6879      	ldr	r1, [r7, #4]
 8002112:	4803      	ldr	r0, [pc, #12]	@ (8002120 <uart_EspSendBytes+0x20>)
 8002114:	f003 fdc9 	bl	8005caa <HAL_UART_Transmit>
}
 8002118:	bf00      	nop
 800211a:	3708      	adds	r7, #8
 800211c:	46bd      	mov	sp, r7
 800211e:	bd80      	pop	{r7, pc}
 8002120:	20000380 	.word	0x20000380

08002124 <HAL_UART_RxCpltCallback>:

void HAL_UART_RxCpltCallback(UART_HandleTypeDef *huart){
 8002124:	b580      	push	{r7, lr}
 8002126:	b082      	sub	sp, #8
 8002128:	af00      	add	r7, sp, #0
 800212a:	6078      	str	r0, [r7, #4]
	if(huart->Instance == USART1){
 800212c:	687b      	ldr	r3, [r7, #4]
 800212e:	681b      	ldr	r3, [r3, #0]
 8002130:	4a19      	ldr	r2, [pc, #100]	@ (8002198 <HAL_UART_RxCpltCallback+0x74>)
 8002132:	4293      	cmp	r3, r2
 8002134:	d10a      	bne.n	800214c <HAL_UART_RxCpltCallback+0x28>
		// rs232 isr
		// can be modified
		HAL_UART_Transmit(&huart1, &receive_buffer1, 1, 10);
 8002136:	230a      	movs	r3, #10
 8002138:	2201      	movs	r2, #1
 800213a:	4918      	ldr	r1, [pc, #96]	@ (800219c <HAL_UART_RxCpltCallback+0x78>)
 800213c:	4818      	ldr	r0, [pc, #96]	@ (80021a0 <HAL_UART_RxCpltCallback+0x7c>)
 800213e:	f003 fdb4 	bl	8005caa <HAL_UART_Transmit>

		// turn on the receive interrupt
		HAL_UART_Receive_IT(&huart1, &receive_buffer1, 1);
 8002142:	2201      	movs	r2, #1
 8002144:	4915      	ldr	r1, [pc, #84]	@ (800219c <HAL_UART_RxCpltCallback+0x78>)
 8002146:	4816      	ldr	r0, [pc, #88]	@ (80021a0 <HAL_UART_RxCpltCallback+0x7c>)
 8002148:	f003 fe41 	bl	8005dce <HAL_UART_Receive_IT>
	}

	if(huart->Instance == USART2){
 800214c:	687b      	ldr	r3, [r7, #4]
 800214e:	681b      	ldr	r3, [r3, #0]
 8002150:	4a14      	ldr	r2, [pc, #80]	@ (80021a4 <HAL_UART_RxCpltCallback+0x80>)
 8002152:	4293      	cmp	r3, r2
 8002154:	d11b      	bne.n	800218e <HAL_UART_RxCpltCallback+0x6a>
		if(receive_buffer2 == 'O') check_esp = 1;
 8002156:	4b14      	ldr	r3, [pc, #80]	@ (80021a8 <HAL_UART_RxCpltCallback+0x84>)
 8002158:	781b      	ldrb	r3, [r3, #0]
 800215a:	2b4f      	cmp	r3, #79	@ 0x4f
 800215c:	d103      	bne.n	8002166 <HAL_UART_RxCpltCallback+0x42>
 800215e:	4b13      	ldr	r3, [pc, #76]	@ (80021ac <HAL_UART_RxCpltCallback+0x88>)
 8002160:	2201      	movs	r2, #1
 8002162:	701a      	strb	r2, [r3, #0]
 8002164:	e00e      	b.n	8002184 <HAL_UART_RxCpltCallback+0x60>
		else if(receive_buffer2 == 'a') light_status = 0;
 8002166:	4b10      	ldr	r3, [pc, #64]	@ (80021a8 <HAL_UART_RxCpltCallback+0x84>)
 8002168:	781b      	ldrb	r3, [r3, #0]
 800216a:	2b61      	cmp	r3, #97	@ 0x61
 800216c:	d103      	bne.n	8002176 <HAL_UART_RxCpltCallback+0x52>
 800216e:	4b10      	ldr	r3, [pc, #64]	@ (80021b0 <HAL_UART_RxCpltCallback+0x8c>)
 8002170:	2200      	movs	r2, #0
 8002172:	701a      	strb	r2, [r3, #0]
 8002174:	e006      	b.n	8002184 <HAL_UART_RxCpltCallback+0x60>
		else if(receive_buffer2 == 'A') light_status = 1;
 8002176:	4b0c      	ldr	r3, [pc, #48]	@ (80021a8 <HAL_UART_RxCpltCallback+0x84>)
 8002178:	781b      	ldrb	r3, [r3, #0]
 800217a:	2b41      	cmp	r3, #65	@ 0x41
 800217c:	d102      	bne.n	8002184 <HAL_UART_RxCpltCallback+0x60>
 800217e:	4b0c      	ldr	r3, [pc, #48]	@ (80021b0 <HAL_UART_RxCpltCallback+0x8c>)
 8002180:	2201      	movs	r2, #1
 8002182:	701a      	strb	r2, [r3, #0]
		HAL_UART_Receive_IT(&huart2, &receive_buffer2, 1);
 8002184:	2201      	movs	r2, #1
 8002186:	4908      	ldr	r1, [pc, #32]	@ (80021a8 <HAL_UART_RxCpltCallback+0x84>)
 8002188:	480a      	ldr	r0, [pc, #40]	@ (80021b4 <HAL_UART_RxCpltCallback+0x90>)
 800218a:	f003 fe20 	bl	8005dce <HAL_UART_Receive_IT>
	}
}
 800218e:	bf00      	nop
 8002190:	3708      	adds	r7, #8
 8002192:	46bd      	mov	sp, r7
 8002194:	bd80      	pop	{r7, pc}
 8002196:	bf00      	nop
 8002198:	40011000 	.word	0x40011000
 800219c:	20000338 	.word	0x20000338
 80021a0:	2000033c 	.word	0x2000033c
 80021a4:	40004400 	.word	0x40004400
 80021a8:	20000339 	.word	0x20000339
 80021ac:	2000033a 	.word	0x2000033a
 80021b0:	200001e8 	.word	0x200001e8
 80021b4:	20000380 	.word	0x20000380

080021b8 <convert2str>:
	if(check_esp == 1) return 1;
	return 0;
}

char *convert2str(uint16_t val)
{
 80021b8:	b580      	push	{r7, lr}
 80021ba:	b086      	sub	sp, #24
 80021bc:	af00      	add	r7, sp, #0
 80021be:	4603      	mov	r3, r0
 80021c0:	80fb      	strh	r3, [r7, #6]
    char str2[10];
    snprintf(str2, sizeof(str2), "%d", val);
 80021c2:	88fb      	ldrh	r3, [r7, #6]
 80021c4:	f107 000c 	add.w	r0, r7, #12
 80021c8:	4a06      	ldr	r2, [pc, #24]	@ (80021e4 <convert2str+0x2c>)
 80021ca:	210a      	movs	r1, #10
 80021cc:	f004 ff92 	bl	80070f4 <sniprintf>

    return strdup(str2); // m bo chui c tr v c gi nguyn gi tr sau khi thot khi hm.
 80021d0:	f107 030c 	add.w	r3, r7, #12
 80021d4:	4618      	mov	r0, r3
 80021d6:	f005 f80d 	bl	80071f4 <strdup>
 80021da:	4603      	mov	r3, r0
}
 80021dc:	4618      	mov	r0, r3
 80021de:	3718      	adds	r7, #24
 80021e0:	46bd      	mov	sp, r7
 80021e2:	bd80      	pop	{r7, pc}
 80021e4:	08008348 	.word	0x08008348

080021e8 <uartSendSensor>:

void uartSendSensor(uint16_t temp)
{
 80021e8:	b580      	push	{r7, lr}
 80021ea:	b084      	sub	sp, #16
 80021ec:	af00      	add	r7, sp, #0
 80021ee:	4603      	mov	r3, r0
 80021f0:	80fb      	strh	r3, [r7, #6]
//	char str1[50] = "!TEMP#";
////	char *str2 = convert2str((uint16_t)sensor_GetTemperature());
	char *str2 = convert2str(temp);
 80021f2:	88fb      	ldrh	r3, [r7, #6]
 80021f4:	4618      	mov	r0, r3
 80021f6:	f7ff ffdf 	bl	80021b8 <convert2str>
 80021fa:	60f8      	str	r0, [r7, #12]
////	char str2[3] = "30";
////	char str3[50] = "#";
//	strcat(str1, str2);
////	strcat(str1, str3);
//	strcat(str1, "#");
	uart_EspSendBytes(str2, strlen(str2));
 80021fc:	68f8      	ldr	r0, [r7, #12]
 80021fe:	f7fd ffe7 	bl	80001d0 <strlen>
 8002202:	4603      	mov	r3, r0
 8002204:	b29b      	uxth	r3, r3
 8002206:	4619      	mov	r1, r3
 8002208:	68f8      	ldr	r0, [r7, #12]
 800220a:	f7ff ff79 	bl	8002100 <uart_EspSendBytes>
//	uart_EspSendNumPercent(temp * 100);
//	uart_EspSendString(str2);
}
 800220e:	bf00      	nop
 8002210:	3710      	adds	r7, #16
 8002212:	46bd      	mov	sp, r7
 8002214:	bd80      	pop	{r7, pc}
	...

08002218 <MX_USART1_UART_Init>:
 8002218:	b580      	push	{r7, lr}
 800221a:	af00      	add	r7, sp, #0
 800221c:	4b11      	ldr	r3, [pc, #68]	@ (8002264 <MX_USART1_UART_Init+0x4c>)
 800221e:	4a12      	ldr	r2, [pc, #72]	@ (8002268 <MX_USART1_UART_Init+0x50>)
 8002220:	601a      	str	r2, [r3, #0]
 8002222:	4b10      	ldr	r3, [pc, #64]	@ (8002264 <MX_USART1_UART_Init+0x4c>)
 8002224:	f44f 32e1 	mov.w	r2, #115200	@ 0x1c200
 8002228:	605a      	str	r2, [r3, #4]
 800222a:	4b0e      	ldr	r3, [pc, #56]	@ (8002264 <MX_USART1_UART_Init+0x4c>)
 800222c:	2200      	movs	r2, #0
 800222e:	609a      	str	r2, [r3, #8]
 8002230:	4b0c      	ldr	r3, [pc, #48]	@ (8002264 <MX_USART1_UART_Init+0x4c>)
 8002232:	2200      	movs	r2, #0
 8002234:	60da      	str	r2, [r3, #12]
 8002236:	4b0b      	ldr	r3, [pc, #44]	@ (8002264 <MX_USART1_UART_Init+0x4c>)
 8002238:	2200      	movs	r2, #0
 800223a:	611a      	str	r2, [r3, #16]
 800223c:	4b09      	ldr	r3, [pc, #36]	@ (8002264 <MX_USART1_UART_Init+0x4c>)
 800223e:	220c      	movs	r2, #12
 8002240:	615a      	str	r2, [r3, #20]
 8002242:	4b08      	ldr	r3, [pc, #32]	@ (8002264 <MX_USART1_UART_Init+0x4c>)
 8002244:	2200      	movs	r2, #0
 8002246:	619a      	str	r2, [r3, #24]
 8002248:	4b06      	ldr	r3, [pc, #24]	@ (8002264 <MX_USART1_UART_Init+0x4c>)
 800224a:	2200      	movs	r2, #0
 800224c:	61da      	str	r2, [r3, #28]
 800224e:	4805      	ldr	r0, [pc, #20]	@ (8002264 <MX_USART1_UART_Init+0x4c>)
 8002250:	f003 fcde 	bl	8005c10 <HAL_UART_Init>
 8002254:	4603      	mov	r3, r0
 8002256:	2b00      	cmp	r3, #0
 8002258:	d001      	beq.n	800225e <MX_USART1_UART_Init+0x46>
 800225a:	f7ff fb10 	bl	800187e <Error_Handler>
 800225e:	bf00      	nop
 8002260:	bd80      	pop	{r7, pc}
 8002262:	bf00      	nop
 8002264:	2000033c 	.word	0x2000033c
 8002268:	40011000 	.word	0x40011000

0800226c <MX_USART2_UART_Init>:
 800226c:	b580      	push	{r7, lr}
 800226e:	af00      	add	r7, sp, #0
 8002270:	4b11      	ldr	r3, [pc, #68]	@ (80022b8 <MX_USART2_UART_Init+0x4c>)
 8002272:	4a12      	ldr	r2, [pc, #72]	@ (80022bc <MX_USART2_UART_Init+0x50>)
 8002274:	601a      	str	r2, [r3, #0]
 8002276:	4b10      	ldr	r3, [pc, #64]	@ (80022b8 <MX_USART2_UART_Init+0x4c>)
 8002278:	f44f 32e1 	mov.w	r2, #115200	@ 0x1c200
 800227c:	605a      	str	r2, [r3, #4]
 800227e:	4b0e      	ldr	r3, [pc, #56]	@ (80022b8 <MX_USART2_UART_Init+0x4c>)
 8002280:	2200      	movs	r2, #0
 8002282:	609a      	str	r2, [r3, #8]
 8002284:	4b0c      	ldr	r3, [pc, #48]	@ (80022b8 <MX_USART2_UART_Init+0x4c>)
 8002286:	2200      	movs	r2, #0
 8002288:	60da      	str	r2, [r3, #12]
 800228a:	4b0b      	ldr	r3, [pc, #44]	@ (80022b8 <MX_USART2_UART_Init+0x4c>)
 800228c:	2200      	movs	r2, #0
 800228e:	611a      	str	r2, [r3, #16]
 8002290:	4b09      	ldr	r3, [pc, #36]	@ (80022b8 <MX_USART2_UART_Init+0x4c>)
 8002292:	220c      	movs	r2, #12
 8002294:	615a      	str	r2, [r3, #20]
 8002296:	4b08      	ldr	r3, [pc, #32]	@ (80022b8 <MX_USART2_UART_Init+0x4c>)
 8002298:	2200      	movs	r2, #0
 800229a:	619a      	str	r2, [r3, #24]
 800229c:	4b06      	ldr	r3, [pc, #24]	@ (80022b8 <MX_USART2_UART_Init+0x4c>)
 800229e:	2200      	movs	r2, #0
 80022a0:	61da      	str	r2, [r3, #28]
 80022a2:	4805      	ldr	r0, [pc, #20]	@ (80022b8 <MX_USART2_UART_Init+0x4c>)
 80022a4:	f003 fcb4 	bl	8005c10 <HAL_UART_Init>
 80022a8:	4603      	mov	r3, r0
 80022aa:	2b00      	cmp	r3, #0
 80022ac:	d001      	beq.n	80022b2 <MX_USART2_UART_Init+0x46>
 80022ae:	f7ff fae6 	bl	800187e <Error_Handler>
 80022b2:	bf00      	nop
 80022b4:	bd80      	pop	{r7, pc}
 80022b6:	bf00      	nop
 80022b8:	20000380 	.word	0x20000380
 80022bc:	40004400 	.word	0x40004400

080022c0 <HAL_UART_MspInit>:
 80022c0:	b580      	push	{r7, lr}
 80022c2:	b08c      	sub	sp, #48	@ 0x30
 80022c4:	af00      	add	r7, sp, #0
 80022c6:	6078      	str	r0, [r7, #4]
 80022c8:	f107 031c 	add.w	r3, r7, #28
 80022cc:	2200      	movs	r2, #0
 80022ce:	601a      	str	r2, [r3, #0]
 80022d0:	605a      	str	r2, [r3, #4]
 80022d2:	609a      	str	r2, [r3, #8]
 80022d4:	60da      	str	r2, [r3, #12]
 80022d6:	611a      	str	r2, [r3, #16]
 80022d8:	687b      	ldr	r3, [r7, #4]
 80022da:	681b      	ldr	r3, [r3, #0]
 80022dc:	4a3a      	ldr	r2, [pc, #232]	@ (80023c8 <HAL_UART_MspInit+0x108>)
 80022de:	4293      	cmp	r3, r2
 80022e0:	d135      	bne.n	800234e <HAL_UART_MspInit+0x8e>
 80022e2:	2300      	movs	r3, #0
 80022e4:	61bb      	str	r3, [r7, #24]
 80022e6:	4b39      	ldr	r3, [pc, #228]	@ (80023cc <HAL_UART_MspInit+0x10c>)
 80022e8:	6c5b      	ldr	r3, [r3, #68]	@ 0x44
 80022ea:	4a38      	ldr	r2, [pc, #224]	@ (80023cc <HAL_UART_MspInit+0x10c>)
 80022ec:	f043 0310 	orr.w	r3, r3, #16
 80022f0:	6453      	str	r3, [r2, #68]	@ 0x44
 80022f2:	4b36      	ldr	r3, [pc, #216]	@ (80023cc <HAL_UART_MspInit+0x10c>)
 80022f4:	6c5b      	ldr	r3, [r3, #68]	@ 0x44
 80022f6:	f003 0310 	and.w	r3, r3, #16
 80022fa:	61bb      	str	r3, [r7, #24]
 80022fc:	69bb      	ldr	r3, [r7, #24]
 80022fe:	2300      	movs	r3, #0
 8002300:	617b      	str	r3, [r7, #20]
 8002302:	4b32      	ldr	r3, [pc, #200]	@ (80023cc <HAL_UART_MspInit+0x10c>)
 8002304:	6b1b      	ldr	r3, [r3, #48]	@ 0x30
 8002306:	4a31      	ldr	r2, [pc, #196]	@ (80023cc <HAL_UART_MspInit+0x10c>)
 8002308:	f043 0301 	orr.w	r3, r3, #1
 800230c:	6313      	str	r3, [r2, #48]	@ 0x30
 800230e:	4b2f      	ldr	r3, [pc, #188]	@ (80023cc <HAL_UART_MspInit+0x10c>)
 8002310:	6b1b      	ldr	r3, [r3, #48]	@ 0x30
 8002312:	f003 0301 	and.w	r3, r3, #1
 8002316:	617b      	str	r3, [r7, #20]
 8002318:	697b      	ldr	r3, [r7, #20]
 800231a:	f44f 63c0 	mov.w	r3, #1536	@ 0x600
 800231e:	61fb      	str	r3, [r7, #28]
 8002320:	2302      	movs	r3, #2
 8002322:	623b      	str	r3, [r7, #32]
 8002324:	2300      	movs	r3, #0
 8002326:	627b      	str	r3, [r7, #36]	@ 0x24
 8002328:	2303      	movs	r3, #3
 800232a:	62bb      	str	r3, [r7, #40]	@ 0x28
 800232c:	2307      	movs	r3, #7
 800232e:	62fb      	str	r3, [r7, #44]	@ 0x2c
 8002330:	f107 031c 	add.w	r3, r7, #28
 8002334:	4619      	mov	r1, r3
 8002336:	4826      	ldr	r0, [pc, #152]	@ (80023d0 <HAL_UART_MspInit+0x110>)
 8002338:	f001 fa34 	bl	80037a4 <HAL_GPIO_Init>
 800233c:	2200      	movs	r2, #0
 800233e:	2100      	movs	r1, #0
 8002340:	2025      	movs	r0, #37	@ 0x25
 8002342:	f000 fdf6 	bl	8002f32 <HAL_NVIC_SetPriority>
 8002346:	2025      	movs	r0, #37	@ 0x25
 8002348:	f000 fe0f 	bl	8002f6a <HAL_NVIC_EnableIRQ>
 800234c:	e038      	b.n	80023c0 <HAL_UART_MspInit+0x100>
 800234e:	687b      	ldr	r3, [r7, #4]
 8002350:	681b      	ldr	r3, [r3, #0]
 8002352:	4a20      	ldr	r2, [pc, #128]	@ (80023d4 <HAL_UART_MspInit+0x114>)
 8002354:	4293      	cmp	r3, r2
 8002356:	d133      	bne.n	80023c0 <HAL_UART_MspInit+0x100>
 8002358:	2300      	movs	r3, #0
 800235a:	613b      	str	r3, [r7, #16]
 800235c:	4b1b      	ldr	r3, [pc, #108]	@ (80023cc <HAL_UART_MspInit+0x10c>)
 800235e:	6c1b      	ldr	r3, [r3, #64]	@ 0x40
 8002360:	4a1a      	ldr	r2, [pc, #104]	@ (80023cc <HAL_UART_MspInit+0x10c>)
 8002362:	f443 3300 	orr.w	r3, r3, #131072	@ 0x20000
 8002366:	6413      	str	r3, [r2, #64]	@ 0x40
 8002368:	4b18      	ldr	r3, [pc, #96]	@ (80023cc <HAL_UART_MspInit+0x10c>)
 800236a:	6c1b      	ldr	r3, [r3, #64]	@ 0x40
 800236c:	f403 3300 	and.w	r3, r3, #131072	@ 0x20000
 8002370:	613b      	str	r3, [r7, #16]
 8002372:	693b      	ldr	r3, [r7, #16]
 8002374:	2300      	movs	r3, #0
 8002376:	60fb      	str	r3, [r7, #12]
 8002378:	4b14      	ldr	r3, [pc, #80]	@ (80023cc <HAL_UART_MspInit+0x10c>)
 800237a:	6b1b      	ldr	r3, [r3, #48]	@ 0x30
 800237c:	4a13      	ldr	r2, [pc, #76]	@ (80023cc <HAL_UART_MspInit+0x10c>)
 800237e:	f043 0301 	orr.w	r3, r3, #1
 8002382:	6313      	str	r3, [r2, #48]	@ 0x30
 8002384:	4b11      	ldr	r3, [pc, #68]	@ (80023cc <HAL_UART_MspInit+0x10c>)
 8002386:	6b1b      	ldr	r3, [r3, #48]	@ 0x30
 8002388:	f003 0301 	and.w	r3, r3, #1
 800238c:	60fb      	str	r3, [r7, #12]
 800238e:	68fb      	ldr	r3, [r7, #12]
 8002390:	230c      	movs	r3, #12
 8002392:	61fb      	str	r3, [r7, #28]
 8002394:	2302      	movs	r3, #2
 8002396:	623b      	str	r3, [r7, #32]
 8002398:	2300      	movs	r3, #0
 800239a:	627b      	str	r3, [r7, #36]	@ 0x24
 800239c:	2303      	movs	r3, #3
 800239e:	62bb      	str	r3, [r7, #40]	@ 0x28
 80023a0:	2307      	movs	r3, #7
 80023a2:	62fb      	str	r3, [r7, #44]	@ 0x2c
 80023a4:	f107 031c 	add.w	r3, r7, #28
 80023a8:	4619      	mov	r1, r3
 80023aa:	4809      	ldr	r0, [pc, #36]	@ (80023d0 <HAL_UART_MspInit+0x110>)
 80023ac:	f001 f9fa 	bl	80037a4 <HAL_GPIO_Init>
 80023b0:	2200      	movs	r2, #0
 80023b2:	2100      	movs	r1, #0
 80023b4:	2026      	movs	r0, #38	@ 0x26
 80023b6:	f000 fdbc 	bl	8002f32 <HAL_NVIC_SetPriority>
 80023ba:	2026      	movs	r0, #38	@ 0x26
 80023bc:	f000 fdd5 	bl	8002f6a <HAL_NVIC_EnableIRQ>
 80023c0:	bf00      	nop
 80023c2:	3730      	adds	r7, #48	@ 0x30
 80023c4:	46bd      	mov	sp, r7
 80023c6:	bd80      	pop	{r7, pc}
 80023c8:	40011000 	.word	0x40011000
 80023cc:	40023800 	.word	0x40023800
 80023d0:	40020000 	.word	0x40020000
 80023d4:	40004400 	.word	0x40004400

080023d8 <Reset_Handler>:
 80023d8:	f8df d034 	ldr.w	sp, [pc, #52]	@ 8002410 <LoopFillZerobss+0x12>
 80023dc:	480d      	ldr	r0, [pc, #52]	@ (8002414 <LoopFillZerobss+0x16>)
 80023de:	490e      	ldr	r1, [pc, #56]	@ (8002418 <LoopFillZerobss+0x1a>)
 80023e0:	4a0e      	ldr	r2, [pc, #56]	@ (800241c <LoopFillZerobss+0x1e>)
 80023e2:	2300      	movs	r3, #0
 80023e4:	e002      	b.n	80023ec <LoopCopyDataInit>

080023e6 <CopyDataInit>:
 80023e6:	58d4      	ldr	r4, [r2, r3]
 80023e8:	50c4      	str	r4, [r0, r3]
 80023ea:	3304      	adds	r3, #4

080023ec <LoopCopyDataInit>:
 80023ec:	18c4      	adds	r4, r0, r3
 80023ee:	428c      	cmp	r4, r1
 80023f0:	d3f9      	bcc.n	80023e6 <CopyDataInit>
 80023f2:	4a0b      	ldr	r2, [pc, #44]	@ (8002420 <LoopFillZerobss+0x22>)
 80023f4:	4c0b      	ldr	r4, [pc, #44]	@ (8002424 <LoopFillZerobss+0x26>)
 80023f6:	2300      	movs	r3, #0
 80023f8:	e001      	b.n	80023fe <LoopFillZerobss>

080023fa <FillZerobss>:
 80023fa:	6013      	str	r3, [r2, #0]
 80023fc:	3204      	adds	r2, #4

080023fe <LoopFillZerobss>:
 80023fe:	42a2      	cmp	r2, r4
 8002400:	d3fb      	bcc.n	80023fa <FillZerobss>
 8002402:	f7ff fcdf 	bl	8001dc4 <SystemInit>
 8002406:	f004 ff8b 	bl	8007320 <__libc_init_array>
 800240a:	f7ff f945 	bl	8001698 <main>
 800240e:	4770      	bx	lr
 8002410:	20020000 	.word	0x20020000
 8002414:	20000000 	.word	0x20000000
 8002418:	20000070 	.word	0x20000070
 800241c:	0800b3ec 	.word	0x0800b3ec
 8002420:	20000070 	.word	0x20000070
 8002424:	20000514 	.word	0x20000514

08002428 <ADC_IRQHandler>:
 8002428:	e7fe      	b.n	8002428 <ADC_IRQHandler>
	...

0800242c <HAL_Init>:
 800242c:	b580      	push	{r7, lr}
 800242e:	af00      	add	r7, sp, #0
 8002430:	4b0e      	ldr	r3, [pc, #56]	@ (800246c <HAL_Init+0x40>)
 8002432:	681b      	ldr	r3, [r3, #0]
 8002434:	4a0d      	ldr	r2, [pc, #52]	@ (800246c <HAL_Init+0x40>)
 8002436:	f443 7300 	orr.w	r3, r3, #512	@ 0x200
 800243a:	6013      	str	r3, [r2, #0]
 800243c:	4b0b      	ldr	r3, [pc, #44]	@ (800246c <HAL_Init+0x40>)
 800243e:	681b      	ldr	r3, [r3, #0]
 8002440:	4a0a      	ldr	r2, [pc, #40]	@ (800246c <HAL_Init+0x40>)
 8002442:	f443 6380 	orr.w	r3, r3, #1024	@ 0x400
 8002446:	6013      	str	r3, [r2, #0]
 8002448:	4b08      	ldr	r3, [pc, #32]	@ (800246c <HAL_Init+0x40>)
 800244a:	681b      	ldr	r3, [r3, #0]
 800244c:	4a07      	ldr	r2, [pc, #28]	@ (800246c <HAL_Init+0x40>)
 800244e:	f443 7380 	orr.w	r3, r3, #256	@ 0x100
 8002452:	6013      	str	r3, [r2, #0]
 8002454:	2003      	movs	r0, #3
 8002456:	f000 fd61 	bl	8002f1c <HAL_NVIC_SetPriorityGrouping>
 800245a:	200f      	movs	r0, #15
 800245c:	f000 f808 	bl	8002470 <HAL_InitTick>
 8002460:	f7ff fb6a 	bl	8001b38 <HAL_MspInit>
 8002464:	2300      	movs	r3, #0
 8002466:	4618      	mov	r0, r3
 8002468:	bd80      	pop	{r7, pc}
 800246a:	bf00      	nop
 800246c:	40023c00 	.word	0x40023c00

08002470 <HAL_InitTick>:
 8002470:	b580      	push	{r7, lr}
 8002472:	b082      	sub	sp, #8
 8002474:	af00      	add	r7, sp, #0
 8002476:	6078      	str	r0, [r7, #4]
 8002478:	4b12      	ldr	r3, [pc, #72]	@ (80024c4 <HAL_InitTick+0x54>)
 800247a:	681a      	ldr	r2, [r3, #0]
 800247c:	4b12      	ldr	r3, [pc, #72]	@ (80024c8 <HAL_InitTick+0x58>)
 800247e:	781b      	ldrb	r3, [r3, #0]
 8002480:	4619      	mov	r1, r3
 8002482:	f44f 737a 	mov.w	r3, #1000	@ 0x3e8
 8002486:	fbb3 f3f1 	udiv	r3, r3, r1
 800248a:	fbb2 f3f3 	udiv	r3, r2, r3
 800248e:	4618      	mov	r0, r3
 8002490:	f000 fd79 	bl	8002f86 <HAL_SYSTICK_Config>
 8002494:	4603      	mov	r3, r0
 8002496:	2b00      	cmp	r3, #0
 8002498:	d001      	beq.n	800249e <HAL_InitTick+0x2e>
 800249a:	2301      	movs	r3, #1
 800249c:	e00e      	b.n	80024bc <HAL_InitTick+0x4c>
 800249e:	687b      	ldr	r3, [r7, #4]
 80024a0:	2b0f      	cmp	r3, #15
 80024a2:	d80a      	bhi.n	80024ba <HAL_InitTick+0x4a>
 80024a4:	2200      	movs	r2, #0
 80024a6:	6879      	ldr	r1, [r7, #4]
 80024a8:	f04f 30ff 	mov.w	r0, #4294967295
 80024ac:	f000 fd41 	bl	8002f32 <HAL_NVIC_SetPriority>
 80024b0:	4a06      	ldr	r2, [pc, #24]	@ (80024cc <HAL_InitTick+0x5c>)
 80024b2:	687b      	ldr	r3, [r7, #4]
 80024b4:	6013      	str	r3, [r2, #0]
 80024b6:	2300      	movs	r3, #0
 80024b8:	e000      	b.n	80024bc <HAL_InitTick+0x4c>
 80024ba:	2301      	movs	r3, #1
 80024bc:	4618      	mov	r0, r3
 80024be:	3708      	adds	r7, #8
 80024c0:	46bd      	mov	sp, r7
 80024c2:	bd80      	pop	{r7, pc}
 80024c4:	20000008 	.word	0x20000008
 80024c8:	20000010 	.word	0x20000010
 80024cc:	2000000c 	.word	0x2000000c

080024d0 <HAL_IncTick>:
 80024d0:	b480      	push	{r7}
 80024d2:	af00      	add	r7, sp, #0
 80024d4:	4b06      	ldr	r3, [pc, #24]	@ (80024f0 <HAL_IncTick+0x20>)
 80024d6:	781b      	ldrb	r3, [r3, #0]
 80024d8:	461a      	mov	r2, r3
 80024da:	4b06      	ldr	r3, [pc, #24]	@ (80024f4 <HAL_IncTick+0x24>)
 80024dc:	681b      	ldr	r3, [r3, #0]
 80024de:	4413      	add	r3, r2
 80024e0:	4a04      	ldr	r2, [pc, #16]	@ (80024f4 <HAL_IncTick+0x24>)
 80024e2:	6013      	str	r3, [r2, #0]
 80024e4:	bf00      	nop
 80024e6:	46bd      	mov	sp, r7
 80024e8:	f85d 7b04 	ldr.w	r7, [sp], #4
 80024ec:	4770      	bx	lr
 80024ee:	bf00      	nop
 80024f0:	20000010 	.word	0x20000010
 80024f4:	200003c4 	.word	0x200003c4

080024f8 <HAL_GetTick>:
 80024f8:	b480      	push	{r7}
 80024fa:	af00      	add	r7, sp, #0
 80024fc:	4b03      	ldr	r3, [pc, #12]	@ (800250c <HAL_GetTick+0x14>)
 80024fe:	681b      	ldr	r3, [r3, #0]
 8002500:	4618      	mov	r0, r3
 8002502:	46bd      	mov	sp, r7
 8002504:	f85d 7b04 	ldr.w	r7, [sp], #4
 8002508:	4770      	bx	lr
 800250a:	bf00      	nop
 800250c:	200003c4 	.word	0x200003c4

08002510 <HAL_Delay>:
 8002510:	b580      	push	{r7, lr}
 8002512:	b084      	sub	sp, #16
 8002514:	af00      	add	r7, sp, #0
 8002516:	6078      	str	r0, [r7, #4]
 8002518:	f7ff ffee 	bl	80024f8 <HAL_GetTick>
 800251c:	60b8      	str	r0, [r7, #8]
 800251e:	687b      	ldr	r3, [r7, #4]
 8002520:	60fb      	str	r3, [r7, #12]
 8002522:	68fb      	ldr	r3, [r7, #12]
 8002524:	f1b3 3fff 	cmp.w	r3, #4294967295
 8002528:	d005      	beq.n	8002536 <HAL_Delay+0x26>
 800252a:	4b0a      	ldr	r3, [pc, #40]	@ (8002554 <HAL_Delay+0x44>)
 800252c:	781b      	ldrb	r3, [r3, #0]
 800252e:	461a      	mov	r2, r3
 8002530:	68fb      	ldr	r3, [r7, #12]
 8002532:	4413      	add	r3, r2
 8002534:	60fb      	str	r3, [r7, #12]
 8002536:	bf00      	nop
 8002538:	f7ff ffde 	bl	80024f8 <HAL_GetTick>
 800253c:	4602      	mov	r2, r0
 800253e:	68bb      	ldr	r3, [r7, #8]
 8002540:	1ad3      	subs	r3, r2, r3
 8002542:	68fa      	ldr	r2, [r7, #12]
 8002544:	429a      	cmp	r2, r3
 8002546:	d8f7      	bhi.n	8002538 <HAL_Delay+0x28>
 8002548:	bf00      	nop
 800254a:	bf00      	nop
 800254c:	3710      	adds	r7, #16
 800254e:	46bd      	mov	sp, r7
 8002550:	bd80      	pop	{r7, pc}
 8002552:	bf00      	nop
 8002554:	20000010 	.word	0x20000010

08002558 <HAL_ADC_Init>:
 8002558:	b580      	push	{r7, lr}
 800255a:	b084      	sub	sp, #16
 800255c:	af00      	add	r7, sp, #0
 800255e:	6078      	str	r0, [r7, #4]
 8002560:	2300      	movs	r3, #0
 8002562:	73fb      	strb	r3, [r7, #15]
 8002564:	687b      	ldr	r3, [r7, #4]
 8002566:	2b00      	cmp	r3, #0
 8002568:	d101      	bne.n	800256e <HAL_ADC_Init+0x16>
 800256a:	2301      	movs	r3, #1
 800256c:	e033      	b.n	80025d6 <HAL_ADC_Init+0x7e>
 800256e:	687b      	ldr	r3, [r7, #4]
 8002570:	6c1b      	ldr	r3, [r3, #64]	@ 0x40
 8002572:	2b00      	cmp	r3, #0
 8002574:	d109      	bne.n	800258a <HAL_ADC_Init+0x32>
 8002576:	6878      	ldr	r0, [r7, #4]
 8002578:	f7fe f884 	bl	8000684 <HAL_ADC_MspInit>
 800257c:	687b      	ldr	r3, [r7, #4]
 800257e:	2200      	movs	r2, #0
 8002580:	645a      	str	r2, [r3, #68]	@ 0x44
 8002582:	687b      	ldr	r3, [r7, #4]
 8002584:	2200      	movs	r2, #0
 8002586:	f883 203c 	strb.w	r2, [r3, #60]	@ 0x3c
 800258a:	687b      	ldr	r3, [r7, #4]
 800258c:	6c1b      	ldr	r3, [r3, #64]	@ 0x40
 800258e:	f003 0310 	and.w	r3, r3, #16
 8002592:	2b00      	cmp	r3, #0
 8002594:	d118      	bne.n	80025c8 <HAL_ADC_Init+0x70>
 8002596:	687b      	ldr	r3, [r7, #4]
 8002598:	6c1b      	ldr	r3, [r3, #64]	@ 0x40
 800259a:	f423 5388 	bic.w	r3, r3, #4352	@ 0x1100
 800259e:	f023 0302 	bic.w	r3, r3, #2
 80025a2:	f043 0202 	orr.w	r2, r3, #2
 80025a6:	687b      	ldr	r3, [r7, #4]
 80025a8:	641a      	str	r2, [r3, #64]	@ 0x40
 80025aa:	6878      	ldr	r0, [r7, #4]
 80025ac:	f000 fa68 	bl	8002a80 <ADC_Init>
 80025b0:	687b      	ldr	r3, [r7, #4]
 80025b2:	2200      	movs	r2, #0
 80025b4:	645a      	str	r2, [r3, #68]	@ 0x44
 80025b6:	687b      	ldr	r3, [r7, #4]
 80025b8:	6c1b      	ldr	r3, [r3, #64]	@ 0x40
 80025ba:	f023 0303 	bic.w	r3, r3, #3
 80025be:	f043 0201 	orr.w	r2, r3, #1
 80025c2:	687b      	ldr	r3, [r7, #4]
 80025c4:	641a      	str	r2, [r3, #64]	@ 0x40
 80025c6:	e001      	b.n	80025cc <HAL_ADC_Init+0x74>
 80025c8:	2301      	movs	r3, #1
 80025ca:	73fb      	strb	r3, [r7, #15]
 80025cc:	687b      	ldr	r3, [r7, #4]
 80025ce:	2200      	movs	r2, #0
 80025d0:	f883 203c 	strb.w	r2, [r3, #60]	@ 0x3c
 80025d4:	7bfb      	ldrb	r3, [r7, #15]
 80025d6:	4618      	mov	r0, r3
 80025d8:	3710      	adds	r7, #16
 80025da:	46bd      	mov	sp, r7
 80025dc:	bd80      	pop	{r7, pc}
	...

080025e0 <HAL_ADC_Start_DMA>:
 80025e0:	b580      	push	{r7, lr}
 80025e2:	b086      	sub	sp, #24
 80025e4:	af00      	add	r7, sp, #0
 80025e6:	60f8      	str	r0, [r7, #12]
 80025e8:	60b9      	str	r1, [r7, #8]
 80025ea:	607a      	str	r2, [r7, #4]
 80025ec:	2300      	movs	r3, #0
 80025ee:	613b      	str	r3, [r7, #16]
 80025f0:	68fb      	ldr	r3, [r7, #12]
 80025f2:	f893 303c 	ldrb.w	r3, [r3, #60]	@ 0x3c
 80025f6:	2b01      	cmp	r3, #1
 80025f8:	d101      	bne.n	80025fe <HAL_ADC_Start_DMA+0x1e>
 80025fa:	2302      	movs	r3, #2
 80025fc:	e0e9      	b.n	80027d2 <HAL_ADC_Start_DMA+0x1f2>
 80025fe:	68fb      	ldr	r3, [r7, #12]
 8002600:	2201      	movs	r2, #1
 8002602:	f883 203c 	strb.w	r2, [r3, #60]	@ 0x3c
 8002606:	68fb      	ldr	r3, [r7, #12]
 8002608:	681b      	ldr	r3, [r3, #0]
 800260a:	689b      	ldr	r3, [r3, #8]
 800260c:	f003 0301 	and.w	r3, r3, #1
 8002610:	2b01      	cmp	r3, #1
 8002612:	d018      	beq.n	8002646 <HAL_ADC_Start_DMA+0x66>
 8002614:	68fb      	ldr	r3, [r7, #12]
 8002616:	681b      	ldr	r3, [r3, #0]
 8002618:	689a      	ldr	r2, [r3, #8]
 800261a:	68fb      	ldr	r3, [r7, #12]
 800261c:	681b      	ldr	r3, [r3, #0]
 800261e:	f042 0201 	orr.w	r2, r2, #1
 8002622:	609a      	str	r2, [r3, #8]
 8002624:	4b6d      	ldr	r3, [pc, #436]	@ (80027dc <HAL_ADC_Start_DMA+0x1fc>)
 8002626:	681b      	ldr	r3, [r3, #0]
 8002628:	4a6d      	ldr	r2, [pc, #436]	@ (80027e0 <HAL_ADC_Start_DMA+0x200>)
 800262a:	fba2 2303 	umull	r2, r3, r2, r3
 800262e:	0c9a      	lsrs	r2, r3, #18
 8002630:	4613      	mov	r3, r2
 8002632:	005b      	lsls	r3, r3, #1
 8002634:	4413      	add	r3, r2
 8002636:	613b      	str	r3, [r7, #16]
 8002638:	e002      	b.n	8002640 <HAL_ADC_Start_DMA+0x60>
 800263a:	693b      	ldr	r3, [r7, #16]
 800263c:	3b01      	subs	r3, #1
 800263e:	613b      	str	r3, [r7, #16]
 8002640:	693b      	ldr	r3, [r7, #16]
 8002642:	2b00      	cmp	r3, #0
 8002644:	d1f9      	bne.n	800263a <HAL_ADC_Start_DMA+0x5a>
 8002646:	68fb      	ldr	r3, [r7, #12]
 8002648:	681b      	ldr	r3, [r3, #0]
 800264a:	689b      	ldr	r3, [r3, #8]
 800264c:	f403 7380 	and.w	r3, r3, #256	@ 0x100
 8002650:	f5b3 7f80 	cmp.w	r3, #256	@ 0x100
 8002654:	d107      	bne.n	8002666 <HAL_ADC_Start_DMA+0x86>
 8002656:	68fb      	ldr	r3, [r7, #12]
 8002658:	681b      	ldr	r3, [r3, #0]
 800265a:	689a      	ldr	r2, [r3, #8]
 800265c:	68fb      	ldr	r3, [r7, #12]
 800265e:	681b      	ldr	r3, [r3, #0]
 8002660:	f422 7280 	bic.w	r2, r2, #256	@ 0x100
 8002664:	609a      	str	r2, [r3, #8]
 8002666:	68fb      	ldr	r3, [r7, #12]
 8002668:	681b      	ldr	r3, [r3, #0]
 800266a:	689b      	ldr	r3, [r3, #8]
 800266c:	f003 0301 	and.w	r3, r3, #1
 8002670:	2b01      	cmp	r3, #1
 8002672:	f040 80a1 	bne.w	80027b8 <HAL_ADC_Start_DMA+0x1d8>
 8002676:	68fb      	ldr	r3, [r7, #12]
 8002678:	6c1b      	ldr	r3, [r3, #64]	@ 0x40
 800267a:	f423 63e0 	bic.w	r3, r3, #1792	@ 0x700
 800267e:	f023 0301 	bic.w	r3, r3, #1
 8002682:	f443 7280 	orr.w	r2, r3, #256	@ 0x100
 8002686:	68fb      	ldr	r3, [r7, #12]
 8002688:	641a      	str	r2, [r3, #64]	@ 0x40
 800268a:	68fb      	ldr	r3, [r7, #12]
 800268c:	681b      	ldr	r3, [r3, #0]
 800268e:	685b      	ldr	r3, [r3, #4]
 8002690:	f403 6380 	and.w	r3, r3, #1024	@ 0x400
 8002694:	2b00      	cmp	r3, #0
 8002696:	d007      	beq.n	80026a8 <HAL_ADC_Start_DMA+0xc8>
 8002698:	68fb      	ldr	r3, [r7, #12]
 800269a:	6c1b      	ldr	r3, [r3, #64]	@ 0x40
 800269c:	f423 5340 	bic.w	r3, r3, #12288	@ 0x3000
 80026a0:	f443 5280 	orr.w	r2, r3, #4096	@ 0x1000
 80026a4:	68fb      	ldr	r3, [r7, #12]
 80026a6:	641a      	str	r2, [r3, #64]	@ 0x40
 80026a8:	68fb      	ldr	r3, [r7, #12]
 80026aa:	6c1b      	ldr	r3, [r3, #64]	@ 0x40
 80026ac:	f403 5380 	and.w	r3, r3, #4096	@ 0x1000
 80026b0:	f5b3 5f80 	cmp.w	r3, #4096	@ 0x1000
 80026b4:	d106      	bne.n	80026c4 <HAL_ADC_Start_DMA+0xe4>
 80026b6:	68fb      	ldr	r3, [r7, #12]
 80026b8:	6c5b      	ldr	r3, [r3, #68]	@ 0x44
 80026ba:	f023 0206 	bic.w	r2, r3, #6
 80026be:	68fb      	ldr	r3, [r7, #12]
 80026c0:	645a      	str	r2, [r3, #68]	@ 0x44
 80026c2:	e002      	b.n	80026ca <HAL_ADC_Start_DMA+0xea>
 80026c4:	68fb      	ldr	r3, [r7, #12]
 80026c6:	2200      	movs	r2, #0
 80026c8:	645a      	str	r2, [r3, #68]	@ 0x44
 80026ca:	68fb      	ldr	r3, [r7, #12]
 80026cc:	2200      	movs	r2, #0
 80026ce:	f883 203c 	strb.w	r2, [r3, #60]	@ 0x3c
 80026d2:	4b44      	ldr	r3, [pc, #272]	@ (80027e4 <HAL_ADC_Start_DMA+0x204>)
 80026d4:	617b      	str	r3, [r7, #20]
 80026d6:	68fb      	ldr	r3, [r7, #12]
 80026d8:	6b9b      	ldr	r3, [r3, #56]	@ 0x38
 80026da:	4a43      	ldr	r2, [pc, #268]	@ (80027e8 <HAL_ADC_Start_DMA+0x208>)
 80026dc:	63da      	str	r2, [r3, #60]	@ 0x3c
 80026de:	68fb      	ldr	r3, [r7, #12]
 80026e0:	6b9b      	ldr	r3, [r3, #56]	@ 0x38
 80026e2:	4a42      	ldr	r2, [pc, #264]	@ (80027ec <HAL_ADC_Start_DMA+0x20c>)
 80026e4:	641a      	str	r2, [r3, #64]	@ 0x40
 80026e6:	68fb      	ldr	r3, [r7, #12]
 80026e8:	6b9b      	ldr	r3, [r3, #56]	@ 0x38
 80026ea:	4a41      	ldr	r2, [pc, #260]	@ (80027f0 <HAL_ADC_Start_DMA+0x210>)
 80026ec:	64da      	str	r2, [r3, #76]	@ 0x4c
 80026ee:	68fb      	ldr	r3, [r7, #12]
 80026f0:	681b      	ldr	r3, [r3, #0]
 80026f2:	f06f 0222 	mvn.w	r2, #34	@ 0x22
 80026f6:	601a      	str	r2, [r3, #0]
 80026f8:	68fb      	ldr	r3, [r7, #12]
 80026fa:	681b      	ldr	r3, [r3, #0]
 80026fc:	685a      	ldr	r2, [r3, #4]
 80026fe:	68fb      	ldr	r3, [r7, #12]
 8002700:	681b      	ldr	r3, [r3, #0]
 8002702:	f042 6280 	orr.w	r2, r2, #67108864	@ 0x4000000
 8002706:	605a      	str	r2, [r3, #4]
 8002708:	68fb      	ldr	r3, [r7, #12]
 800270a:	681b      	ldr	r3, [r3, #0]
 800270c:	689a      	ldr	r2, [r3, #8]
 800270e:	68fb      	ldr	r3, [r7, #12]
 8002710:	681b      	ldr	r3, [r3, #0]
 8002712:	f442 7280 	orr.w	r2, r2, #256	@ 0x100
 8002716:	609a      	str	r2, [r3, #8]
 8002718:	68fb      	ldr	r3, [r7, #12]
 800271a:	6b98      	ldr	r0, [r3, #56]	@ 0x38
 800271c:	68fb      	ldr	r3, [r7, #12]
 800271e:	681b      	ldr	r3, [r3, #0]
 8002720:	334c      	adds	r3, #76	@ 0x4c
 8002722:	4619      	mov	r1, r3
 8002724:	68ba      	ldr	r2, [r7, #8]
 8002726:	687b      	ldr	r3, [r7, #4]
 8002728:	f000 fce8 	bl	80030fc <HAL_DMA_Start_IT>
 800272c:	697b      	ldr	r3, [r7, #20]
 800272e:	685b      	ldr	r3, [r3, #4]
 8002730:	f003 031f 	and.w	r3, r3, #31
 8002734:	2b00      	cmp	r3, #0
 8002736:	d12a      	bne.n	800278e <HAL_ADC_Start_DMA+0x1ae>
 8002738:	68fb      	ldr	r3, [r7, #12]
 800273a:	681b      	ldr	r3, [r3, #0]
 800273c:	4a2d      	ldr	r2, [pc, #180]	@ (80027f4 <HAL_ADC_Start_DMA+0x214>)
 800273e:	4293      	cmp	r3, r2
 8002740:	d015      	beq.n	800276e <HAL_ADC_Start_DMA+0x18e>
 8002742:	68fb      	ldr	r3, [r7, #12]
 8002744:	681b      	ldr	r3, [r3, #0]
 8002746:	4a2c      	ldr	r2, [pc, #176]	@ (80027f8 <HAL_ADC_Start_DMA+0x218>)
 8002748:	4293      	cmp	r3, r2
 800274a:	d105      	bne.n	8002758 <HAL_ADC_Start_DMA+0x178>
 800274c:	4b25      	ldr	r3, [pc, #148]	@ (80027e4 <HAL_ADC_Start_DMA+0x204>)
 800274e:	685b      	ldr	r3, [r3, #4]
 8002750:	f003 031f 	and.w	r3, r3, #31
 8002754:	2b00      	cmp	r3, #0
 8002756:	d00a      	beq.n	800276e <HAL_ADC_Start_DMA+0x18e>
 8002758:	68fb      	ldr	r3, [r7, #12]
 800275a:	681b      	ldr	r3, [r3, #0]
 800275c:	4a27      	ldr	r2, [pc, #156]	@ (80027fc <HAL_ADC_Start_DMA+0x21c>)
 800275e:	4293      	cmp	r3, r2
 8002760:	d136      	bne.n	80027d0 <HAL_ADC_Start_DMA+0x1f0>
 8002762:	4b20      	ldr	r3, [pc, #128]	@ (80027e4 <HAL_ADC_Start_DMA+0x204>)
 8002764:	685b      	ldr	r3, [r3, #4]
 8002766:	f003 0310 	and.w	r3, r3, #16
 800276a:	2b00      	cmp	r3, #0
 800276c:	d130      	bne.n	80027d0 <HAL_ADC_Start_DMA+0x1f0>
 800276e:	68fb      	ldr	r3, [r7, #12]
 8002770:	681b      	ldr	r3, [r3, #0]
 8002772:	689b      	ldr	r3, [r3, #8]
 8002774:	f003 5340 	and.w	r3, r3, #805306368	@ 0x30000000
 8002778:	2b00      	cmp	r3, #0
 800277a:	d129      	bne.n	80027d0 <HAL_ADC_Start_DMA+0x1f0>
 800277c:	68fb      	ldr	r3, [r7, #12]
 800277e:	681b      	ldr	r3, [r3, #0]
 8002780:	689a      	ldr	r2, [r3, #8]
 8002782:	68fb      	ldr	r3, [r7, #12]
 8002784:	681b      	ldr	r3, [r3, #0]
 8002786:	f042 4280 	orr.w	r2, r2, #1073741824	@ 0x40000000
 800278a:	609a      	str	r2, [r3, #8]
 800278c:	e020      	b.n	80027d0 <HAL_ADC_Start_DMA+0x1f0>
 800278e:	68fb      	ldr	r3, [r7, #12]
 8002790:	681b      	ldr	r3, [r3, #0]
 8002792:	4a18      	ldr	r2, [pc, #96]	@ (80027f4 <HAL_ADC_Start_DMA+0x214>)
 8002794:	4293      	cmp	r3, r2
 8002796:	d11b      	bne.n	80027d0 <HAL_ADC_Start_DMA+0x1f0>
 8002798:	68fb      	ldr	r3, [r7, #12]
 800279a:	681b      	ldr	r3, [r3, #0]
 800279c:	689b      	ldr	r3, [r3, #8]
 800279e:	f003 5340 	and.w	r3, r3, #805306368	@ 0x30000000
 80027a2:	2b00      	cmp	r3, #0
 80027a4:	d114      	bne.n	80027d0 <HAL_ADC_Start_DMA+0x1f0>
 80027a6:	68fb      	ldr	r3, [r7, #12]
 80027a8:	681b      	ldr	r3, [r3, #0]
 80027aa:	689a      	ldr	r2, [r3, #8]
 80027ac:	68fb      	ldr	r3, [r7, #12]
 80027ae:	681b      	ldr	r3, [r3, #0]
 80027b0:	f042 4280 	orr.w	r2, r2, #1073741824	@ 0x40000000
 80027b4:	609a      	str	r2, [r3, #8]
 80027b6:	e00b      	b.n	80027d0 <HAL_ADC_Start_DMA+0x1f0>
 80027b8:	68fb      	ldr	r3, [r7, #12]
 80027ba:	6c1b      	ldr	r3, [r3, #64]	@ 0x40
 80027bc:	f043 0210 	orr.w	r2, r3, #16
 80027c0:	68fb      	ldr	r3, [r7, #12]
 80027c2:	641a      	str	r2, [r3, #64]	@ 0x40
 80027c4:	68fb      	ldr	r3, [r7, #12]
 80027c6:	6c5b      	ldr	r3, [r3, #68]	@ 0x44
 80027c8:	f043 0201 	orr.w	r2, r3, #1
 80027cc:	68fb      	ldr	r3, [r7, #12]
 80027ce:	645a      	str	r2, [r3, #68]	@ 0x44
 80027d0:	2300      	movs	r3, #0
 80027d2:	4618      	mov	r0, r3
 80027d4:	3718      	adds	r7, #24
 80027d6:	46bd      	mov	sp, r7
 80027d8:	bd80      	pop	{r7, pc}
 80027da:	bf00      	nop
 80027dc:	20000008 	.word	0x20000008
 80027e0:	431bde83 	.word	0x431bde83
 80027e4:	40012300 	.word	0x40012300
 80027e8:	08002c79 	.word	0x08002c79
 80027ec:	08002d33 	.word	0x08002d33
 80027f0:	08002d4f 	.word	0x08002d4f
 80027f4:	40012000 	.word	0x40012000
 80027f8:	40012100 	.word	0x40012100
 80027fc:	40012200 	.word	0x40012200

08002800 <HAL_ADC_ConvCpltCallback>:
 8002800:	b480      	push	{r7}
 8002802:	b083      	sub	sp, #12
 8002804:	af00      	add	r7, sp, #0
 8002806:	6078      	str	r0, [r7, #4]
 8002808:	bf00      	nop
 800280a:	370c      	adds	r7, #12
 800280c:	46bd      	mov	sp, r7
 800280e:	f85d 7b04 	ldr.w	r7, [sp], #4
 8002812:	4770      	bx	lr

08002814 <HAL_ADC_ConvHalfCpltCallback>:
 8002814:	b480      	push	{r7}
 8002816:	b083      	sub	sp, #12
 8002818:	af00      	add	r7, sp, #0
 800281a:	6078      	str	r0, [r7, #4]
 800281c:	bf00      	nop
 800281e:	370c      	adds	r7, #12
 8002820:	46bd      	mov	sp, r7
 8002822:	f85d 7b04 	ldr.w	r7, [sp], #4
 8002826:	4770      	bx	lr

08002828 <HAL_ADC_ErrorCallback>:
 8002828:	b480      	push	{r7}
 800282a:	b083      	sub	sp, #12
 800282c:	af00      	add	r7, sp, #0
 800282e:	6078      	str	r0, [r7, #4]
 8002830:	bf00      	nop
 8002832:	370c      	adds	r7, #12
 8002834:	46bd      	mov	sp, r7
 8002836:	f85d 7b04 	ldr.w	r7, [sp], #4
 800283a:	4770      	bx	lr

0800283c <HAL_ADC_ConfigChannel>:
 800283c:	b480      	push	{r7}
 800283e:	b085      	sub	sp, #20
 8002840:	af00      	add	r7, sp, #0
 8002842:	6078      	str	r0, [r7, #4]
 8002844:	6039      	str	r1, [r7, #0]
 8002846:	2300      	movs	r3, #0
 8002848:	60bb      	str	r3, [r7, #8]
 800284a:	687b      	ldr	r3, [r7, #4]
 800284c:	f893 303c 	ldrb.w	r3, [r3, #60]	@ 0x3c
 8002850:	2b01      	cmp	r3, #1
 8002852:	d101      	bne.n	8002858 <HAL_ADC_ConfigChannel+0x1c>
 8002854:	2302      	movs	r3, #2
 8002856:	e105      	b.n	8002a64 <HAL_ADC_ConfigChannel+0x228>
 8002858:	687b      	ldr	r3, [r7, #4]
 800285a:	2201      	movs	r2, #1
 800285c:	f883 203c 	strb.w	r2, [r3, #60]	@ 0x3c
 8002860:	683b      	ldr	r3, [r7, #0]
 8002862:	681b      	ldr	r3, [r3, #0]
 8002864:	2b09      	cmp	r3, #9
 8002866:	d925      	bls.n	80028b4 <HAL_ADC_ConfigChannel+0x78>
 8002868:	687b      	ldr	r3, [r7, #4]
 800286a:	681b      	ldr	r3, [r3, #0]
 800286c:	68d9      	ldr	r1, [r3, #12]
 800286e:	683b      	ldr	r3, [r7, #0]
 8002870:	681b      	ldr	r3, [r3, #0]
 8002872:	b29b      	uxth	r3, r3
 8002874:	461a      	mov	r2, r3
 8002876:	4613      	mov	r3, r2
 8002878:	005b      	lsls	r3, r3, #1
 800287a:	4413      	add	r3, r2
 800287c:	3b1e      	subs	r3, #30
 800287e:	2207      	movs	r2, #7
 8002880:	fa02 f303 	lsl.w	r3, r2, r3
 8002884:	43da      	mvns	r2, r3
 8002886:	687b      	ldr	r3, [r7, #4]
 8002888:	681b      	ldr	r3, [r3, #0]
 800288a:	400a      	ands	r2, r1
 800288c:	60da      	str	r2, [r3, #12]
 800288e:	687b      	ldr	r3, [r7, #4]
 8002890:	681b      	ldr	r3, [r3, #0]
 8002892:	68d9      	ldr	r1, [r3, #12]
 8002894:	683b      	ldr	r3, [r7, #0]
 8002896:	689a      	ldr	r2, [r3, #8]
 8002898:	683b      	ldr	r3, [r7, #0]
 800289a:	681b      	ldr	r3, [r3, #0]
 800289c:	b29b      	uxth	r3, r3
 800289e:	4618      	mov	r0, r3
 80028a0:	4603      	mov	r3, r0
 80028a2:	005b      	lsls	r3, r3, #1
 80028a4:	4403      	add	r3, r0
 80028a6:	3b1e      	subs	r3, #30
 80028a8:	409a      	lsls	r2, r3
 80028aa:	687b      	ldr	r3, [r7, #4]
 80028ac:	681b      	ldr	r3, [r3, #0]
 80028ae:	430a      	orrs	r2, r1
 80028b0:	60da      	str	r2, [r3, #12]
 80028b2:	e022      	b.n	80028fa <HAL_ADC_ConfigChannel+0xbe>
 80028b4:	687b      	ldr	r3, [r7, #4]
 80028b6:	681b      	ldr	r3, [r3, #0]
 80028b8:	6919      	ldr	r1, [r3, #16]
 80028ba:	683b      	ldr	r3, [r7, #0]
 80028bc:	681b      	ldr	r3, [r3, #0]
 80028be:	b29b      	uxth	r3, r3
 80028c0:	461a      	mov	r2, r3
 80028c2:	4613      	mov	r3, r2
 80028c4:	005b      	lsls	r3, r3, #1
 80028c6:	4413      	add	r3, r2
 80028c8:	2207      	movs	r2, #7
 80028ca:	fa02 f303 	lsl.w	r3, r2, r3
 80028ce:	43da      	mvns	r2, r3
 80028d0:	687b      	ldr	r3, [r7, #4]
 80028d2:	681b      	ldr	r3, [r3, #0]
 80028d4:	400a      	ands	r2, r1
 80028d6:	611a      	str	r2, [r3, #16]
 80028d8:	687b      	ldr	r3, [r7, #4]
 80028da:	681b      	ldr	r3, [r3, #0]
 80028dc:	6919      	ldr	r1, [r3, #16]
 80028de:	683b      	ldr	r3, [r7, #0]
 80028e0:	689a      	ldr	r2, [r3, #8]
 80028e2:	683b      	ldr	r3, [r7, #0]
 80028e4:	681b      	ldr	r3, [r3, #0]
 80028e6:	b29b      	uxth	r3, r3
 80028e8:	4618      	mov	r0, r3
 80028ea:	4603      	mov	r3, r0
 80028ec:	005b      	lsls	r3, r3, #1
 80028ee:	4403      	add	r3, r0
 80028f0:	409a      	lsls	r2, r3
 80028f2:	687b      	ldr	r3, [r7, #4]
 80028f4:	681b      	ldr	r3, [r3, #0]
 80028f6:	430a      	orrs	r2, r1
 80028f8:	611a      	str	r2, [r3, #16]
 80028fa:	683b      	ldr	r3, [r7, #0]
 80028fc:	685b      	ldr	r3, [r3, #4]
 80028fe:	2b06      	cmp	r3, #6
 8002900:	d824      	bhi.n	800294c <HAL_ADC_ConfigChannel+0x110>
 8002902:	687b      	ldr	r3, [r7, #4]
 8002904:	681b      	ldr	r3, [r3, #0]
 8002906:	6b59      	ldr	r1, [r3, #52]	@ 0x34
 8002908:	683b      	ldr	r3, [r7, #0]
 800290a:	685a      	ldr	r2, [r3, #4]
 800290c:	4613      	mov	r3, r2
 800290e:	009b      	lsls	r3, r3, #2
 8002910:	4413      	add	r3, r2
 8002912:	3b05      	subs	r3, #5
 8002914:	221f      	movs	r2, #31
 8002916:	fa02 f303 	lsl.w	r3, r2, r3
 800291a:	43da      	mvns	r2, r3
 800291c:	687b      	ldr	r3, [r7, #4]
 800291e:	681b      	ldr	r3, [r3, #0]
 8002920:	400a      	ands	r2, r1
 8002922:	635a      	str	r2, [r3, #52]	@ 0x34
 8002924:	687b      	ldr	r3, [r7, #4]
 8002926:	681b      	ldr	r3, [r3, #0]
 8002928:	6b59      	ldr	r1, [r3, #52]	@ 0x34
 800292a:	683b      	ldr	r3, [r7, #0]
 800292c:	681b      	ldr	r3, [r3, #0]
 800292e:	b29b      	uxth	r3, r3
 8002930:	4618      	mov	r0, r3
 8002932:	683b      	ldr	r3, [r7, #0]
 8002934:	685a      	ldr	r2, [r3, #4]
 8002936:	4613      	mov	r3, r2
 8002938:	009b      	lsls	r3, r3, #2
 800293a:	4413      	add	r3, r2
 800293c:	3b05      	subs	r3, #5
 800293e:	fa00 f203 	lsl.w	r2, r0, r3
 8002942:	687b      	ldr	r3, [r7, #4]
 8002944:	681b      	ldr	r3, [r3, #0]
 8002946:	430a      	orrs	r2, r1
 8002948:	635a      	str	r2, [r3, #52]	@ 0x34
 800294a:	e04c      	b.n	80029e6 <HAL_ADC_ConfigChannel+0x1aa>
 800294c:	683b      	ldr	r3, [r7, #0]
 800294e:	685b      	ldr	r3, [r3, #4]
 8002950:	2b0c      	cmp	r3, #12
 8002952:	d824      	bhi.n	800299e <HAL_ADC_ConfigChannel+0x162>
 8002954:	687b      	ldr	r3, [r7, #4]
 8002956:	681b      	ldr	r3, [r3, #0]
 8002958:	6b19      	ldr	r1, [r3, #48]	@ 0x30
 800295a:	683b      	ldr	r3, [r7, #0]
 800295c:	685a      	ldr	r2, [r3, #4]
 800295e:	4613      	mov	r3, r2
 8002960:	009b      	lsls	r3, r3, #2
 8002962:	4413      	add	r3, r2
 8002964:	3b23      	subs	r3, #35	@ 0x23
 8002966:	221f      	movs	r2, #31
 8002968:	fa02 f303 	lsl.w	r3, r2, r3
 800296c:	43da      	mvns	r2, r3
 800296e:	687b      	ldr	r3, [r7, #4]
 8002970:	681b      	ldr	r3, [r3, #0]
 8002972:	400a      	ands	r2, r1
 8002974:	631a      	str	r2, [r3, #48]	@ 0x30
 8002976:	687b      	ldr	r3, [r7, #4]
 8002978:	681b      	ldr	r3, [r3, #0]
 800297a:	6b19      	ldr	r1, [r3, #48]	@ 0x30
 800297c:	683b      	ldr	r3, [r7, #0]
 800297e:	681b      	ldr	r3, [r3, #0]
 8002980:	b29b      	uxth	r3, r3
 8002982:	4618      	mov	r0, r3
 8002984:	683b      	ldr	r3, [r7, #0]
 8002986:	685a      	ldr	r2, [r3, #4]
 8002988:	4613      	mov	r3, r2
 800298a:	009b      	lsls	r3, r3, #2
 800298c:	4413      	add	r3, r2
 800298e:	3b23      	subs	r3, #35	@ 0x23
 8002990:	fa00 f203 	lsl.w	r2, r0, r3
 8002994:	687b      	ldr	r3, [r7, #4]
 8002996:	681b      	ldr	r3, [r3, #0]
 8002998:	430a      	orrs	r2, r1
 800299a:	631a      	str	r2, [r3, #48]	@ 0x30
 800299c:	e023      	b.n	80029e6 <HAL_ADC_ConfigChannel+0x1aa>
 800299e:	687b      	ldr	r3, [r7, #4]
 80029a0:	681b      	ldr	r3, [r3, #0]
 80029a2:	6ad9      	ldr	r1, [r3, #44]	@ 0x2c
 80029a4:	683b      	ldr	r3, [r7, #0]
 80029a6:	685a      	ldr	r2, [r3, #4]
 80029a8:	4613      	mov	r3, r2
 80029aa:	009b      	lsls	r3, r3, #2
 80029ac:	4413      	add	r3, r2
 80029ae:	3b41      	subs	r3, #65	@ 0x41
 80029b0:	221f      	movs	r2, #31
 80029b2:	fa02 f303 	lsl.w	r3, r2, r3
 80029b6:	43da      	mvns	r2, r3
 80029b8:	687b      	ldr	r3, [r7, #4]
 80029ba:	681b      	ldr	r3, [r3, #0]
 80029bc:	400a      	ands	r2, r1
 80029be:	62da      	str	r2, [r3, #44]	@ 0x2c
 80029c0:	687b      	ldr	r3, [r7, #4]
 80029c2:	681b      	ldr	r3, [r3, #0]
 80029c4:	6ad9      	ldr	r1, [r3, #44]	@ 0x2c
 80029c6:	683b      	ldr	r3, [r7, #0]
 80029c8:	681b      	ldr	r3, [r3, #0]
 80029ca:	b29b      	uxth	r3, r3
 80029cc:	4618      	mov	r0, r3
 80029ce:	683b      	ldr	r3, [r7, #0]
 80029d0:	685a      	ldr	r2, [r3, #4]
 80029d2:	4613      	mov	r3, r2
 80029d4:	009b      	lsls	r3, r3, #2
 80029d6:	4413      	add	r3, r2
 80029d8:	3b41      	subs	r3, #65	@ 0x41
 80029da:	fa00 f203 	lsl.w	r2, r0, r3
 80029de:	687b      	ldr	r3, [r7, #4]
 80029e0:	681b      	ldr	r3, [r3, #0]
 80029e2:	430a      	orrs	r2, r1
 80029e4:	62da      	str	r2, [r3, #44]	@ 0x2c
 80029e6:	4b22      	ldr	r3, [pc, #136]	@ (8002a70 <HAL_ADC_ConfigChannel+0x234>)
 80029e8:	60fb      	str	r3, [r7, #12]
 80029ea:	687b      	ldr	r3, [r7, #4]
 80029ec:	681b      	ldr	r3, [r3, #0]
 80029ee:	4a21      	ldr	r2, [pc, #132]	@ (8002a74 <HAL_ADC_ConfigChannel+0x238>)
 80029f0:	4293      	cmp	r3, r2
 80029f2:	d109      	bne.n	8002a08 <HAL_ADC_ConfigChannel+0x1cc>
 80029f4:	683b      	ldr	r3, [r7, #0]
 80029f6:	681b      	ldr	r3, [r3, #0]
 80029f8:	2b12      	cmp	r3, #18
 80029fa:	d105      	bne.n	8002a08 <HAL_ADC_ConfigChannel+0x1cc>
 80029fc:	68fb      	ldr	r3, [r7, #12]
 80029fe:	685b      	ldr	r3, [r3, #4]
 8002a00:	f443 0280 	orr.w	r2, r3, #4194304	@ 0x400000
 8002a04:	68fb      	ldr	r3, [r7, #12]
 8002a06:	605a      	str	r2, [r3, #4]
 8002a08:	687b      	ldr	r3, [r7, #4]
 8002a0a:	681b      	ldr	r3, [r3, #0]
 8002a0c:	4a19      	ldr	r2, [pc, #100]	@ (8002a74 <HAL_ADC_ConfigChannel+0x238>)
 8002a0e:	4293      	cmp	r3, r2
 8002a10:	d123      	bne.n	8002a5a <HAL_ADC_ConfigChannel+0x21e>
 8002a12:	683b      	ldr	r3, [r7, #0]
 8002a14:	681b      	ldr	r3, [r3, #0]
 8002a16:	2b10      	cmp	r3, #16
 8002a18:	d003      	beq.n	8002a22 <HAL_ADC_ConfigChannel+0x1e6>
 8002a1a:	683b      	ldr	r3, [r7, #0]
 8002a1c:	681b      	ldr	r3, [r3, #0]
 8002a1e:	2b11      	cmp	r3, #17
 8002a20:	d11b      	bne.n	8002a5a <HAL_ADC_ConfigChannel+0x21e>
 8002a22:	68fb      	ldr	r3, [r7, #12]
 8002a24:	685b      	ldr	r3, [r3, #4]
 8002a26:	f443 0200 	orr.w	r2, r3, #8388608	@ 0x800000
 8002a2a:	68fb      	ldr	r3, [r7, #12]
 8002a2c:	605a      	str	r2, [r3, #4]
 8002a2e:	683b      	ldr	r3, [r7, #0]
 8002a30:	681b      	ldr	r3, [r3, #0]
 8002a32:	2b10      	cmp	r3, #16
 8002a34:	d111      	bne.n	8002a5a <HAL_ADC_ConfigChannel+0x21e>
 8002a36:	4b10      	ldr	r3, [pc, #64]	@ (8002a78 <HAL_ADC_ConfigChannel+0x23c>)
 8002a38:	681b      	ldr	r3, [r3, #0]
 8002a3a:	4a10      	ldr	r2, [pc, #64]	@ (8002a7c <HAL_ADC_ConfigChannel+0x240>)
 8002a3c:	fba2 2303 	umull	r2, r3, r2, r3
 8002a40:	0c9a      	lsrs	r2, r3, #18
 8002a42:	4613      	mov	r3, r2
 8002a44:	009b      	lsls	r3, r3, #2
 8002a46:	4413      	add	r3, r2
 8002a48:	005b      	lsls	r3, r3, #1
 8002a4a:	60bb      	str	r3, [r7, #8]
 8002a4c:	e002      	b.n	8002a54 <HAL_ADC_ConfigChannel+0x218>
 8002a4e:	68bb      	ldr	r3, [r7, #8]
 8002a50:	3b01      	subs	r3, #1
 8002a52:	60bb      	str	r3, [r7, #8]
 8002a54:	68bb      	ldr	r3, [r7, #8]
 8002a56:	2b00      	cmp	r3, #0
 8002a58:	d1f9      	bne.n	8002a4e <HAL_ADC_ConfigChannel+0x212>
 8002a5a:	687b      	ldr	r3, [r7, #4]
 8002a5c:	2200      	movs	r2, #0
 8002a5e:	f883 203c 	strb.w	r2, [r3, #60]	@ 0x3c
 8002a62:	2300      	movs	r3, #0
 8002a64:	4618      	mov	r0, r3
 8002a66:	3714      	adds	r7, #20
 8002a68:	46bd      	mov	sp, r7
 8002a6a:	f85d 7b04 	ldr.w	r7, [sp], #4
 8002a6e:	4770      	bx	lr
 8002a70:	40012300 	.word	0x40012300
 8002a74:	40012000 	.word	0x40012000
 8002a78:	20000008 	.word	0x20000008
 8002a7c:	431bde83 	.word	0x431bde83

08002a80 <ADC_Init>:
 8002a80:	b480      	push	{r7}
 8002a82:	b085      	sub	sp, #20
 8002a84:	af00      	add	r7, sp, #0
 8002a86:	6078      	str	r0, [r7, #4]
 8002a88:	4b79      	ldr	r3, [pc, #484]	@ (8002c70 <ADC_Init+0x1f0>)
 8002a8a:	60fb      	str	r3, [r7, #12]
 8002a8c:	68fb      	ldr	r3, [r7, #12]
 8002a8e:	685b      	ldr	r3, [r3, #4]
 8002a90:	f423 3240 	bic.w	r2, r3, #196608	@ 0x30000
 8002a94:	68fb      	ldr	r3, [r7, #12]
 8002a96:	605a      	str	r2, [r3, #4]
 8002a98:	68fb      	ldr	r3, [r7, #12]
 8002a9a:	685a      	ldr	r2, [r3, #4]
 8002a9c:	687b      	ldr	r3, [r7, #4]
 8002a9e:	685b      	ldr	r3, [r3, #4]
 8002aa0:	431a      	orrs	r2, r3
 8002aa2:	68fb      	ldr	r3, [r7, #12]
 8002aa4:	605a      	str	r2, [r3, #4]
 8002aa6:	687b      	ldr	r3, [r7, #4]
 8002aa8:	681b      	ldr	r3, [r3, #0]
 8002aaa:	685a      	ldr	r2, [r3, #4]
 8002aac:	687b      	ldr	r3, [r7, #4]
 8002aae:	681b      	ldr	r3, [r3, #0]
 8002ab0:	f422 7280 	bic.w	r2, r2, #256	@ 0x100
 8002ab4:	605a      	str	r2, [r3, #4]
 8002ab6:	687b      	ldr	r3, [r7, #4]
 8002ab8:	681b      	ldr	r3, [r3, #0]
 8002aba:	6859      	ldr	r1, [r3, #4]
 8002abc:	687b      	ldr	r3, [r7, #4]
 8002abe:	691b      	ldr	r3, [r3, #16]
 8002ac0:	021a      	lsls	r2, r3, #8
 8002ac2:	687b      	ldr	r3, [r7, #4]
 8002ac4:	681b      	ldr	r3, [r3, #0]
 8002ac6:	430a      	orrs	r2, r1
 8002ac8:	605a      	str	r2, [r3, #4]
 8002aca:	687b      	ldr	r3, [r7, #4]
 8002acc:	681b      	ldr	r3, [r3, #0]
 8002ace:	685a      	ldr	r2, [r3, #4]
 8002ad0:	687b      	ldr	r3, [r7, #4]
 8002ad2:	681b      	ldr	r3, [r3, #0]
 8002ad4:	f022 7240 	bic.w	r2, r2, #50331648	@ 0x3000000
 8002ad8:	605a      	str	r2, [r3, #4]
 8002ada:	687b      	ldr	r3, [r7, #4]
 8002adc:	681b      	ldr	r3, [r3, #0]
 8002ade:	6859      	ldr	r1, [r3, #4]
 8002ae0:	687b      	ldr	r3, [r7, #4]
 8002ae2:	689a      	ldr	r2, [r3, #8]
 8002ae4:	687b      	ldr	r3, [r7, #4]
 8002ae6:	681b      	ldr	r3, [r3, #0]
 8002ae8:	430a      	orrs	r2, r1
 8002aea:	605a      	str	r2, [r3, #4]
 8002aec:	687b      	ldr	r3, [r7, #4]
 8002aee:	681b      	ldr	r3, [r3, #0]
 8002af0:	689a      	ldr	r2, [r3, #8]
 8002af2:	687b      	ldr	r3, [r7, #4]
 8002af4:	681b      	ldr	r3, [r3, #0]
 8002af6:	f422 6200 	bic.w	r2, r2, #2048	@ 0x800
 8002afa:	609a      	str	r2, [r3, #8]
 8002afc:	687b      	ldr	r3, [r7, #4]
 8002afe:	681b      	ldr	r3, [r3, #0]
 8002b00:	6899      	ldr	r1, [r3, #8]
 8002b02:	687b      	ldr	r3, [r7, #4]
 8002b04:	68da      	ldr	r2, [r3, #12]
 8002b06:	687b      	ldr	r3, [r7, #4]
 8002b08:	681b      	ldr	r3, [r3, #0]
 8002b0a:	430a      	orrs	r2, r1
 8002b0c:	609a      	str	r2, [r3, #8]
 8002b0e:	687b      	ldr	r3, [r7, #4]
 8002b10:	6a9b      	ldr	r3, [r3, #40]	@ 0x28
 8002b12:	4a58      	ldr	r2, [pc, #352]	@ (8002c74 <ADC_Init+0x1f4>)
 8002b14:	4293      	cmp	r3, r2
 8002b16:	d022      	beq.n	8002b5e <ADC_Init+0xde>
 8002b18:	687b      	ldr	r3, [r7, #4]
 8002b1a:	681b      	ldr	r3, [r3, #0]
 8002b1c:	689a      	ldr	r2, [r3, #8]
 8002b1e:	687b      	ldr	r3, [r7, #4]
 8002b20:	681b      	ldr	r3, [r3, #0]
 8002b22:	f022 6270 	bic.w	r2, r2, #251658240	@ 0xf000000
 8002b26:	609a      	str	r2, [r3, #8]
 8002b28:	687b      	ldr	r3, [r7, #4]
 8002b2a:	681b      	ldr	r3, [r3, #0]
 8002b2c:	6899      	ldr	r1, [r3, #8]
 8002b2e:	687b      	ldr	r3, [r7, #4]
 8002b30:	6a9a      	ldr	r2, [r3, #40]	@ 0x28
 8002b32:	687b      	ldr	r3, [r7, #4]
 8002b34:	681b      	ldr	r3, [r3, #0]
 8002b36:	430a      	orrs	r2, r1
 8002b38:	609a      	str	r2, [r3, #8]
 8002b3a:	687b      	ldr	r3, [r7, #4]
 8002b3c:	681b      	ldr	r3, [r3, #0]
 8002b3e:	689a      	ldr	r2, [r3, #8]
 8002b40:	687b      	ldr	r3, [r7, #4]
 8002b42:	681b      	ldr	r3, [r3, #0]
 8002b44:	f022 5240 	bic.w	r2, r2, #805306368	@ 0x30000000
 8002b48:	609a      	str	r2, [r3, #8]
 8002b4a:	687b      	ldr	r3, [r7, #4]
 8002b4c:	681b      	ldr	r3, [r3, #0]
 8002b4e:	6899      	ldr	r1, [r3, #8]
 8002b50:	687b      	ldr	r3, [r7, #4]
 8002b52:	6ada      	ldr	r2, [r3, #44]	@ 0x2c
 8002b54:	687b      	ldr	r3, [r7, #4]
 8002b56:	681b      	ldr	r3, [r3, #0]
 8002b58:	430a      	orrs	r2, r1
 8002b5a:	609a      	str	r2, [r3, #8]
 8002b5c:	e00f      	b.n	8002b7e <ADC_Init+0xfe>
 8002b5e:	687b      	ldr	r3, [r7, #4]
 8002b60:	681b      	ldr	r3, [r3, #0]
 8002b62:	689a      	ldr	r2, [r3, #8]
 8002b64:	687b      	ldr	r3, [r7, #4]
 8002b66:	681b      	ldr	r3, [r3, #0]
 8002b68:	f022 6270 	bic.w	r2, r2, #251658240	@ 0xf000000
 8002b6c:	609a      	str	r2, [r3, #8]
 8002b6e:	687b      	ldr	r3, [r7, #4]
 8002b70:	681b      	ldr	r3, [r3, #0]
 8002b72:	689a      	ldr	r2, [r3, #8]
 8002b74:	687b      	ldr	r3, [r7, #4]
 8002b76:	681b      	ldr	r3, [r3, #0]
 8002b78:	f022 5240 	bic.w	r2, r2, #805306368	@ 0x30000000
 8002b7c:	609a      	str	r2, [r3, #8]
 8002b7e:	687b      	ldr	r3, [r7, #4]
 8002b80:	681b      	ldr	r3, [r3, #0]
 8002b82:	689a      	ldr	r2, [r3, #8]
 8002b84:	687b      	ldr	r3, [r7, #4]
 8002b86:	681b      	ldr	r3, [r3, #0]
 8002b88:	f022 0202 	bic.w	r2, r2, #2
 8002b8c:	609a      	str	r2, [r3, #8]
 8002b8e:	687b      	ldr	r3, [r7, #4]
 8002b90:	681b      	ldr	r3, [r3, #0]
 8002b92:	6899      	ldr	r1, [r3, #8]
 8002b94:	687b      	ldr	r3, [r7, #4]
 8002b96:	7e1b      	ldrb	r3, [r3, #24]
 8002b98:	005a      	lsls	r2, r3, #1
 8002b9a:	687b      	ldr	r3, [r7, #4]
 8002b9c:	681b      	ldr	r3, [r3, #0]
 8002b9e:	430a      	orrs	r2, r1
 8002ba0:	609a      	str	r2, [r3, #8]
 8002ba2:	687b      	ldr	r3, [r7, #4]
 8002ba4:	f893 3020 	ldrb.w	r3, [r3, #32]
 8002ba8:	2b00      	cmp	r3, #0
 8002baa:	d01b      	beq.n	8002be4 <ADC_Init+0x164>
 8002bac:	687b      	ldr	r3, [r7, #4]
 8002bae:	681b      	ldr	r3, [r3, #0]
 8002bb0:	685a      	ldr	r2, [r3, #4]
 8002bb2:	687b      	ldr	r3, [r7, #4]
 8002bb4:	681b      	ldr	r3, [r3, #0]
 8002bb6:	f442 6200 	orr.w	r2, r2, #2048	@ 0x800
 8002bba:	605a      	str	r2, [r3, #4]
 8002bbc:	687b      	ldr	r3, [r7, #4]
 8002bbe:	681b      	ldr	r3, [r3, #0]
 8002bc0:	685a      	ldr	r2, [r3, #4]
 8002bc2:	687b      	ldr	r3, [r7, #4]
 8002bc4:	681b      	ldr	r3, [r3, #0]
 8002bc6:	f422 4260 	bic.w	r2, r2, #57344	@ 0xe000
 8002bca:	605a      	str	r2, [r3, #4]
 8002bcc:	687b      	ldr	r3, [r7, #4]
 8002bce:	681b      	ldr	r3, [r3, #0]
 8002bd0:	6859      	ldr	r1, [r3, #4]
 8002bd2:	687b      	ldr	r3, [r7, #4]
 8002bd4:	6a5b      	ldr	r3, [r3, #36]	@ 0x24
 8002bd6:	3b01      	subs	r3, #1
 8002bd8:	035a      	lsls	r2, r3, #13
 8002bda:	687b      	ldr	r3, [r7, #4]
 8002bdc:	681b      	ldr	r3, [r3, #0]
 8002bde:	430a      	orrs	r2, r1
 8002be0:	605a      	str	r2, [r3, #4]
 8002be2:	e007      	b.n	8002bf4 <ADC_Init+0x174>
 8002be4:	687b      	ldr	r3, [r7, #4]
 8002be6:	681b      	ldr	r3, [r3, #0]
 8002be8:	685a      	ldr	r2, [r3, #4]
 8002bea:	687b      	ldr	r3, [r7, #4]
 8002bec:	681b      	ldr	r3, [r3, #0]
 8002bee:	f422 6200 	bic.w	r2, r2, #2048	@ 0x800
 8002bf2:	605a      	str	r2, [r3, #4]
 8002bf4:	687b      	ldr	r3, [r7, #4]
 8002bf6:	681b      	ldr	r3, [r3, #0]
 8002bf8:	6ada      	ldr	r2, [r3, #44]	@ 0x2c
 8002bfa:	687b      	ldr	r3, [r7, #4]
 8002bfc:	681b      	ldr	r3, [r3, #0]
 8002bfe:	f422 0270 	bic.w	r2, r2, #15728640	@ 0xf00000
 8002c02:	62da      	str	r2, [r3, #44]	@ 0x2c
 8002c04:	687b      	ldr	r3, [r7, #4]
 8002c06:	681b      	ldr	r3, [r3, #0]
 8002c08:	6ad9      	ldr	r1, [r3, #44]	@ 0x2c
 8002c0a:	687b      	ldr	r3, [r7, #4]
 8002c0c:	69db      	ldr	r3, [r3, #28]
 8002c0e:	3b01      	subs	r3, #1
 8002c10:	051a      	lsls	r2, r3, #20
 8002c12:	687b      	ldr	r3, [r7, #4]
 8002c14:	681b      	ldr	r3, [r3, #0]
 8002c16:	430a      	orrs	r2, r1
 8002c18:	62da      	str	r2, [r3, #44]	@ 0x2c
 8002c1a:	687b      	ldr	r3, [r7, #4]
 8002c1c:	681b      	ldr	r3, [r3, #0]
 8002c1e:	689a      	ldr	r2, [r3, #8]
 8002c20:	687b      	ldr	r3, [r7, #4]
 8002c22:	681b      	ldr	r3, [r3, #0]
 8002c24:	f422 7200 	bic.w	r2, r2, #512	@ 0x200
 8002c28:	609a      	str	r2, [r3, #8]
 8002c2a:	687b      	ldr	r3, [r7, #4]
 8002c2c:	681b      	ldr	r3, [r3, #0]
 8002c2e:	6899      	ldr	r1, [r3, #8]
 8002c30:	687b      	ldr	r3, [r7, #4]
 8002c32:	f893 3030 	ldrb.w	r3, [r3, #48]	@ 0x30
 8002c36:	025a      	lsls	r2, r3, #9
 8002c38:	687b      	ldr	r3, [r7, #4]
 8002c3a:	681b      	ldr	r3, [r3, #0]
 8002c3c:	430a      	orrs	r2, r1
 8002c3e:	609a      	str	r2, [r3, #8]
 8002c40:	687b      	ldr	r3, [r7, #4]
 8002c42:	681b      	ldr	r3, [r3, #0]
 8002c44:	689a      	ldr	r2, [r3, #8]
 8002c46:	687b      	ldr	r3, [r7, #4]
 8002c48:	681b      	ldr	r3, [r3, #0]
 8002c4a:	f422 6280 	bic.w	r2, r2, #1024	@ 0x400
 8002c4e:	609a      	str	r2, [r3, #8]
 8002c50:	687b      	ldr	r3, [r7, #4]
 8002c52:	681b      	ldr	r3, [r3, #0]
 8002c54:	6899      	ldr	r1, [r3, #8]
 8002c56:	687b      	ldr	r3, [r7, #4]
 8002c58:	695b      	ldr	r3, [r3, #20]
 8002c5a:	029a      	lsls	r2, r3, #10
 8002c5c:	687b      	ldr	r3, [r7, #4]
 8002c5e:	681b      	ldr	r3, [r3, #0]
 8002c60:	430a      	orrs	r2, r1
 8002c62:	609a      	str	r2, [r3, #8]
 8002c64:	bf00      	nop
 8002c66:	3714      	adds	r7, #20
 8002c68:	46bd      	mov	sp, r7
 8002c6a:	f85d 7b04 	ldr.w	r7, [sp], #4
 8002c6e:	4770      	bx	lr
 8002c70:	40012300 	.word	0x40012300
 8002c74:	0f000001 	.word	0x0f000001

08002c78 <ADC_DMAConvCplt>:
 8002c78:	b580      	push	{r7, lr}
 8002c7a:	b084      	sub	sp, #16
 8002c7c:	af00      	add	r7, sp, #0
 8002c7e:	6078      	str	r0, [r7, #4]
 8002c80:	687b      	ldr	r3, [r7, #4]
 8002c82:	6b9b      	ldr	r3, [r3, #56]	@ 0x38
 8002c84:	60fb      	str	r3, [r7, #12]
 8002c86:	68fb      	ldr	r3, [r7, #12]
 8002c88:	6c1b      	ldr	r3, [r3, #64]	@ 0x40
 8002c8a:	f003 0350 	and.w	r3, r3, #80	@ 0x50
 8002c8e:	2b00      	cmp	r3, #0
 8002c90:	d13c      	bne.n	8002d0c <ADC_DMAConvCplt+0x94>
 8002c92:	68fb      	ldr	r3, [r7, #12]
 8002c94:	6c1b      	ldr	r3, [r3, #64]	@ 0x40
 8002c96:	f443 7200 	orr.w	r2, r3, #512	@ 0x200
 8002c9a:	68fb      	ldr	r3, [r7, #12]
 8002c9c:	641a      	str	r2, [r3, #64]	@ 0x40
 8002c9e:	68fb      	ldr	r3, [r7, #12]
 8002ca0:	681b      	ldr	r3, [r3, #0]
 8002ca2:	689b      	ldr	r3, [r3, #8]
 8002ca4:	f003 5340 	and.w	r3, r3, #805306368	@ 0x30000000
 8002ca8:	2b00      	cmp	r3, #0
 8002caa:	d12b      	bne.n	8002d04 <ADC_DMAConvCplt+0x8c>
 8002cac:	68fb      	ldr	r3, [r7, #12]
 8002cae:	7e1b      	ldrb	r3, [r3, #24]
 8002cb0:	2b00      	cmp	r3, #0
 8002cb2:	d127      	bne.n	8002d04 <ADC_DMAConvCplt+0x8c>
 8002cb4:	68fb      	ldr	r3, [r7, #12]
 8002cb6:	681b      	ldr	r3, [r3, #0]
 8002cb8:	6adb      	ldr	r3, [r3, #44]	@ 0x2c
 8002cba:	f403 0370 	and.w	r3, r3, #15728640	@ 0xf00000
 8002cbe:	2b00      	cmp	r3, #0
 8002cc0:	d006      	beq.n	8002cd0 <ADC_DMAConvCplt+0x58>
 8002cc2:	68fb      	ldr	r3, [r7, #12]
 8002cc4:	681b      	ldr	r3, [r3, #0]
 8002cc6:	689b      	ldr	r3, [r3, #8]
 8002cc8:	f403 6380 	and.w	r3, r3, #1024	@ 0x400
 8002ccc:	2b00      	cmp	r3, #0
 8002cce:	d119      	bne.n	8002d04 <ADC_DMAConvCplt+0x8c>
 8002cd0:	68fb      	ldr	r3, [r7, #12]
 8002cd2:	681b      	ldr	r3, [r3, #0]
 8002cd4:	685a      	ldr	r2, [r3, #4]
 8002cd6:	68fb      	ldr	r3, [r7, #12]
 8002cd8:	681b      	ldr	r3, [r3, #0]
 8002cda:	f022 0220 	bic.w	r2, r2, #32
 8002cde:	605a      	str	r2, [r3, #4]
 8002ce0:	68fb      	ldr	r3, [r7, #12]
 8002ce2:	6c1b      	ldr	r3, [r3, #64]	@ 0x40
 8002ce4:	f423 7280 	bic.w	r2, r3, #256	@ 0x100
 8002ce8:	68fb      	ldr	r3, [r7, #12]
 8002cea:	641a      	str	r2, [r3, #64]	@ 0x40
 8002cec:	68fb      	ldr	r3, [r7, #12]
 8002cee:	6c1b      	ldr	r3, [r3, #64]	@ 0x40
 8002cf0:	f403 5380 	and.w	r3, r3, #4096	@ 0x1000
 8002cf4:	2b00      	cmp	r3, #0
 8002cf6:	d105      	bne.n	8002d04 <ADC_DMAConvCplt+0x8c>
 8002cf8:	68fb      	ldr	r3, [r7, #12]
 8002cfa:	6c1b      	ldr	r3, [r3, #64]	@ 0x40
 8002cfc:	f043 0201 	orr.w	r2, r3, #1
 8002d00:	68fb      	ldr	r3, [r7, #12]
 8002d02:	641a      	str	r2, [r3, #64]	@ 0x40
 8002d04:	68f8      	ldr	r0, [r7, #12]
 8002d06:	f7ff fd7b 	bl	8002800 <HAL_ADC_ConvCpltCallback>
 8002d0a:	e00e      	b.n	8002d2a <ADC_DMAConvCplt+0xb2>
 8002d0c:	68fb      	ldr	r3, [r7, #12]
 8002d0e:	6c1b      	ldr	r3, [r3, #64]	@ 0x40
 8002d10:	f003 0310 	and.w	r3, r3, #16
 8002d14:	2b00      	cmp	r3, #0
 8002d16:	d003      	beq.n	8002d20 <ADC_DMAConvCplt+0xa8>
 8002d18:	68f8      	ldr	r0, [r7, #12]
 8002d1a:	f7ff fd85 	bl	8002828 <HAL_ADC_ErrorCallback>
 8002d1e:	e004      	b.n	8002d2a <ADC_DMAConvCplt+0xb2>
 8002d20:	68fb      	ldr	r3, [r7, #12]
 8002d22:	6b9b      	ldr	r3, [r3, #56]	@ 0x38
 8002d24:	6cdb      	ldr	r3, [r3, #76]	@ 0x4c
 8002d26:	6878      	ldr	r0, [r7, #4]
 8002d28:	4798      	blx	r3
 8002d2a:	bf00      	nop
 8002d2c:	3710      	adds	r7, #16
 8002d2e:	46bd      	mov	sp, r7
 8002d30:	bd80      	pop	{r7, pc}

08002d32 <ADC_DMAHalfConvCplt>:
 8002d32:	b580      	push	{r7, lr}
 8002d34:	b084      	sub	sp, #16
 8002d36:	af00      	add	r7, sp, #0
 8002d38:	6078      	str	r0, [r7, #4]
 8002d3a:	687b      	ldr	r3, [r7, #4]
 8002d3c:	6b9b      	ldr	r3, [r3, #56]	@ 0x38
 8002d3e:	60fb      	str	r3, [r7, #12]
 8002d40:	68f8      	ldr	r0, [r7, #12]
 8002d42:	f7ff fd67 	bl	8002814 <HAL_ADC_ConvHalfCpltCallback>
 8002d46:	bf00      	nop
 8002d48:	3710      	adds	r7, #16
 8002d4a:	46bd      	mov	sp, r7
 8002d4c:	bd80      	pop	{r7, pc}

08002d4e <ADC_DMAError>:
 8002d4e:	b580      	push	{r7, lr}
 8002d50:	b084      	sub	sp, #16
 8002d52:	af00      	add	r7, sp, #0
 8002d54:	6078      	str	r0, [r7, #4]
 8002d56:	687b      	ldr	r3, [r7, #4]
 8002d58:	6b9b      	ldr	r3, [r3, #56]	@ 0x38
 8002d5a:	60fb      	str	r3, [r7, #12]
 8002d5c:	68fb      	ldr	r3, [r7, #12]
 8002d5e:	2240      	movs	r2, #64	@ 0x40
 8002d60:	641a      	str	r2, [r3, #64]	@ 0x40
 8002d62:	68fb      	ldr	r3, [r7, #12]
 8002d64:	6c5b      	ldr	r3, [r3, #68]	@ 0x44
 8002d66:	f043 0204 	orr.w	r2, r3, #4
 8002d6a:	68fb      	ldr	r3, [r7, #12]
 8002d6c:	645a      	str	r2, [r3, #68]	@ 0x44
 8002d6e:	68f8      	ldr	r0, [r7, #12]
 8002d70:	f7ff fd5a 	bl	8002828 <HAL_ADC_ErrorCallback>
 8002d74:	bf00      	nop
 8002d76:	3710      	adds	r7, #16
 8002d78:	46bd      	mov	sp, r7
 8002d7a:	bd80      	pop	{r7, pc}

08002d7c <__NVIC_SetPriorityGrouping>:
 8002d7c:	b480      	push	{r7}
 8002d7e:	b085      	sub	sp, #20
 8002d80:	af00      	add	r7, sp, #0
 8002d82:	6078      	str	r0, [r7, #4]
 8002d84:	687b      	ldr	r3, [r7, #4]
 8002d86:	f003 0307 	and.w	r3, r3, #7
 8002d8a:	60fb      	str	r3, [r7, #12]
 8002d8c:	4b0c      	ldr	r3, [pc, #48]	@ (8002dc0 <__NVIC_SetPriorityGrouping+0x44>)
 8002d8e:	68db      	ldr	r3, [r3, #12]
 8002d90:	60bb      	str	r3, [r7, #8]
 8002d92:	68ba      	ldr	r2, [r7, #8]
 8002d94:	f64f 03ff 	movw	r3, #63743	@ 0xf8ff
 8002d98:	4013      	ands	r3, r2
 8002d9a:	60bb      	str	r3, [r7, #8]
 8002d9c:	68fb      	ldr	r3, [r7, #12]
 8002d9e:	021a      	lsls	r2, r3, #8
 8002da0:	68bb      	ldr	r3, [r7, #8]
 8002da2:	4313      	orrs	r3, r2
 8002da4:	f043 63bf 	orr.w	r3, r3, #100139008	@ 0x5f80000
 8002da8:	f443 3300 	orr.w	r3, r3, #131072	@ 0x20000
 8002dac:	60bb      	str	r3, [r7, #8]
 8002dae:	4a04      	ldr	r2, [pc, #16]	@ (8002dc0 <__NVIC_SetPriorityGrouping+0x44>)
 8002db0:	68bb      	ldr	r3, [r7, #8]
 8002db2:	60d3      	str	r3, [r2, #12]
 8002db4:	bf00      	nop
 8002db6:	3714      	adds	r7, #20
 8002db8:	46bd      	mov	sp, r7
 8002dba:	f85d 7b04 	ldr.w	r7, [sp], #4
 8002dbe:	4770      	bx	lr
 8002dc0:	e000ed00 	.word	0xe000ed00

08002dc4 <__NVIC_GetPriorityGrouping>:
 8002dc4:	b480      	push	{r7}
 8002dc6:	af00      	add	r7, sp, #0
 8002dc8:	4b04      	ldr	r3, [pc, #16]	@ (8002ddc <__NVIC_GetPriorityGrouping+0x18>)
 8002dca:	68db      	ldr	r3, [r3, #12]
 8002dcc:	0a1b      	lsrs	r3, r3, #8
 8002dce:	f003 0307 	and.w	r3, r3, #7
 8002dd2:	4618      	mov	r0, r3
 8002dd4:	46bd      	mov	sp, r7
 8002dd6:	f85d 7b04 	ldr.w	r7, [sp], #4
 8002dda:	4770      	bx	lr
 8002ddc:	e000ed00 	.word	0xe000ed00

08002de0 <__NVIC_EnableIRQ>:
 8002de0:	b480      	push	{r7}
 8002de2:	b083      	sub	sp, #12
 8002de4:	af00      	add	r7, sp, #0
 8002de6:	4603      	mov	r3, r0
 8002de8:	71fb      	strb	r3, [r7, #7]
 8002dea:	f997 3007 	ldrsb.w	r3, [r7, #7]
 8002dee:	2b00      	cmp	r3, #0
 8002df0:	db0b      	blt.n	8002e0a <__NVIC_EnableIRQ+0x2a>
 8002df2:	79fb      	ldrb	r3, [r7, #7]
 8002df4:	f003 021f 	and.w	r2, r3, #31
 8002df8:	4907      	ldr	r1, [pc, #28]	@ (8002e18 <__NVIC_EnableIRQ+0x38>)
 8002dfa:	f997 3007 	ldrsb.w	r3, [r7, #7]
 8002dfe:	095b      	lsrs	r3, r3, #5
 8002e00:	2001      	movs	r0, #1
 8002e02:	fa00 f202 	lsl.w	r2, r0, r2
 8002e06:	f841 2023 	str.w	r2, [r1, r3, lsl #2]
 8002e0a:	bf00      	nop
 8002e0c:	370c      	adds	r7, #12
 8002e0e:	46bd      	mov	sp, r7
 8002e10:	f85d 7b04 	ldr.w	r7, [sp], #4
 8002e14:	4770      	bx	lr
 8002e16:	bf00      	nop
 8002e18:	e000e100 	.word	0xe000e100

08002e1c <__NVIC_SetPriority>:
 8002e1c:	b480      	push	{r7}
 8002e1e:	b083      	sub	sp, #12
 8002e20:	af00      	add	r7, sp, #0
 8002e22:	4603      	mov	r3, r0
 8002e24:	6039      	str	r1, [r7, #0]
 8002e26:	71fb      	strb	r3, [r7, #7]
 8002e28:	f997 3007 	ldrsb.w	r3, [r7, #7]
 8002e2c:	2b00      	cmp	r3, #0
 8002e2e:	db0a      	blt.n	8002e46 <__NVIC_SetPriority+0x2a>
 8002e30:	683b      	ldr	r3, [r7, #0]
 8002e32:	b2da      	uxtb	r2, r3
 8002e34:	490c      	ldr	r1, [pc, #48]	@ (8002e68 <__NVIC_SetPriority+0x4c>)
 8002e36:	f997 3007 	ldrsb.w	r3, [r7, #7]
 8002e3a:	0112      	lsls	r2, r2, #4
 8002e3c:	b2d2      	uxtb	r2, r2
 8002e3e:	440b      	add	r3, r1
 8002e40:	f883 2300 	strb.w	r2, [r3, #768]	@ 0x300
 8002e44:	e00a      	b.n	8002e5c <__NVIC_SetPriority+0x40>
 8002e46:	683b      	ldr	r3, [r7, #0]
 8002e48:	b2da      	uxtb	r2, r3
 8002e4a:	4908      	ldr	r1, [pc, #32]	@ (8002e6c <__NVIC_SetPriority+0x50>)
 8002e4c:	79fb      	ldrb	r3, [r7, #7]
 8002e4e:	f003 030f 	and.w	r3, r3, #15
 8002e52:	3b04      	subs	r3, #4
 8002e54:	0112      	lsls	r2, r2, #4
 8002e56:	b2d2      	uxtb	r2, r2
 8002e58:	440b      	add	r3, r1
 8002e5a:	761a      	strb	r2, [r3, #24]
 8002e5c:	bf00      	nop
 8002e5e:	370c      	adds	r7, #12
 8002e60:	46bd      	mov	sp, r7
 8002e62:	f85d 7b04 	ldr.w	r7, [sp], #4
 8002e66:	4770      	bx	lr
 8002e68:	e000e100 	.word	0xe000e100
 8002e6c:	e000ed00 	.word	0xe000ed00

08002e70 <NVIC_EncodePriority>:
 8002e70:	b480      	push	{r7}
 8002e72:	b089      	sub	sp, #36	@ 0x24
 8002e74:	af00      	add	r7, sp, #0
 8002e76:	60f8      	str	r0, [r7, #12]
 8002e78:	60b9      	str	r1, [r7, #8]
 8002e7a:	607a      	str	r2, [r7, #4]
 8002e7c:	68fb      	ldr	r3, [r7, #12]
 8002e7e:	f003 0307 	and.w	r3, r3, #7
 8002e82:	61fb      	str	r3, [r7, #28]
 8002e84:	69fb      	ldr	r3, [r7, #28]
 8002e86:	f1c3 0307 	rsb	r3, r3, #7
 8002e8a:	2b04      	cmp	r3, #4
 8002e8c:	bf28      	it	cs
 8002e8e:	2304      	movcs	r3, #4
 8002e90:	61bb      	str	r3, [r7, #24]
 8002e92:	69fb      	ldr	r3, [r7, #28]
 8002e94:	3304      	adds	r3, #4
 8002e96:	2b06      	cmp	r3, #6
 8002e98:	d902      	bls.n	8002ea0 <NVIC_EncodePriority+0x30>
 8002e9a:	69fb      	ldr	r3, [r7, #28]
 8002e9c:	3b03      	subs	r3, #3
 8002e9e:	e000      	b.n	8002ea2 <NVIC_EncodePriority+0x32>
 8002ea0:	2300      	movs	r3, #0
 8002ea2:	617b      	str	r3, [r7, #20]
 8002ea4:	f04f 32ff 	mov.w	r2, #4294967295
 8002ea8:	69bb      	ldr	r3, [r7, #24]
 8002eaa:	fa02 f303 	lsl.w	r3, r2, r3
 8002eae:	43da      	mvns	r2, r3
 8002eb0:	68bb      	ldr	r3, [r7, #8]
 8002eb2:	401a      	ands	r2, r3
 8002eb4:	697b      	ldr	r3, [r7, #20]
 8002eb6:	409a      	lsls	r2, r3
 8002eb8:	f04f 31ff 	mov.w	r1, #4294967295
 8002ebc:	697b      	ldr	r3, [r7, #20]
 8002ebe:	fa01 f303 	lsl.w	r3, r1, r3
 8002ec2:	43d9      	mvns	r1, r3
 8002ec4:	687b      	ldr	r3, [r7, #4]
 8002ec6:	400b      	ands	r3, r1
 8002ec8:	4313      	orrs	r3, r2
 8002eca:	4618      	mov	r0, r3
 8002ecc:	3724      	adds	r7, #36	@ 0x24
 8002ece:	46bd      	mov	sp, r7
 8002ed0:	f85d 7b04 	ldr.w	r7, [sp], #4
 8002ed4:	4770      	bx	lr
	...

08002ed8 <SysTick_Config>:
 8002ed8:	b580      	push	{r7, lr}
 8002eda:	b082      	sub	sp, #8
 8002edc:	af00      	add	r7, sp, #0
 8002ede:	6078      	str	r0, [r7, #4]
 8002ee0:	687b      	ldr	r3, [r7, #4]
 8002ee2:	3b01      	subs	r3, #1
 8002ee4:	f1b3 7f80 	cmp.w	r3, #16777216	@ 0x1000000
 8002ee8:	d301      	bcc.n	8002eee <SysTick_Config+0x16>
 8002eea:	2301      	movs	r3, #1
 8002eec:	e00f      	b.n	8002f0e <SysTick_Config+0x36>
 8002eee:	4a0a      	ldr	r2, [pc, #40]	@ (8002f18 <SysTick_Config+0x40>)
 8002ef0:	687b      	ldr	r3, [r7, #4]
 8002ef2:	3b01      	subs	r3, #1
 8002ef4:	6053      	str	r3, [r2, #4]
 8002ef6:	210f      	movs	r1, #15
 8002ef8:	f04f 30ff 	mov.w	r0, #4294967295
 8002efc:	f7ff ff8e 	bl	8002e1c <__NVIC_SetPriority>
 8002f00:	4b05      	ldr	r3, [pc, #20]	@ (8002f18 <SysTick_Config+0x40>)
 8002f02:	2200      	movs	r2, #0
 8002f04:	609a      	str	r2, [r3, #8]
 8002f06:	4b04      	ldr	r3, [pc, #16]	@ (8002f18 <SysTick_Config+0x40>)
 8002f08:	2207      	movs	r2, #7
 8002f0a:	601a      	str	r2, [r3, #0]
 8002f0c:	2300      	movs	r3, #0
 8002f0e:	4618      	mov	r0, r3
 8002f10:	3708      	adds	r7, #8
 8002f12:	46bd      	mov	sp, r7
 8002f14:	bd80      	pop	{r7, pc}
 8002f16:	bf00      	nop
 8002f18:	e000e010 	.word	0xe000e010

08002f1c <HAL_NVIC_SetPriorityGrouping>:
 8002f1c:	b580      	push	{r7, lr}
 8002f1e:	b082      	sub	sp, #8
 8002f20:	af00      	add	r7, sp, #0
 8002f22:	6078      	str	r0, [r7, #4]
 8002f24:	6878      	ldr	r0, [r7, #4]
 8002f26:	f7ff ff29 	bl	8002d7c <__NVIC_SetPriorityGrouping>
 8002f2a:	bf00      	nop
 8002f2c:	3708      	adds	r7, #8
 8002f2e:	46bd      	mov	sp, r7
 8002f30:	bd80      	pop	{r7, pc}

08002f32 <HAL_NVIC_SetPriority>:
 8002f32:	b580      	push	{r7, lr}
 8002f34:	b086      	sub	sp, #24
 8002f36:	af00      	add	r7, sp, #0
 8002f38:	4603      	mov	r3, r0
 8002f3a:	60b9      	str	r1, [r7, #8]
 8002f3c:	607a      	str	r2, [r7, #4]
 8002f3e:	73fb      	strb	r3, [r7, #15]
 8002f40:	2300      	movs	r3, #0
 8002f42:	617b      	str	r3, [r7, #20]
 8002f44:	f7ff ff3e 	bl	8002dc4 <__NVIC_GetPriorityGrouping>
 8002f48:	6178      	str	r0, [r7, #20]
 8002f4a:	687a      	ldr	r2, [r7, #4]
 8002f4c:	68b9      	ldr	r1, [r7, #8]
 8002f4e:	6978      	ldr	r0, [r7, #20]
 8002f50:	f7ff ff8e 	bl	8002e70 <NVIC_EncodePriority>
 8002f54:	4602      	mov	r2, r0
 8002f56:	f997 300f 	ldrsb.w	r3, [r7, #15]
 8002f5a:	4611      	mov	r1, r2
 8002f5c:	4618      	mov	r0, r3
 8002f5e:	f7ff ff5d 	bl	8002e1c <__NVIC_SetPriority>
 8002f62:	bf00      	nop
 8002f64:	3718      	adds	r7, #24
 8002f66:	46bd      	mov	sp, r7
 8002f68:	bd80      	pop	{r7, pc}

08002f6a <HAL_NVIC_EnableIRQ>:
 8002f6a:	b580      	push	{r7, lr}
 8002f6c:	b082      	sub	sp, #8
 8002f6e:	af00      	add	r7, sp, #0
 8002f70:	4603      	mov	r3, r0
 8002f72:	71fb      	strb	r3, [r7, #7]
 8002f74:	f997 3007 	ldrsb.w	r3, [r7, #7]
 8002f78:	4618      	mov	r0, r3
 8002f7a:	f7ff ff31 	bl	8002de0 <__NVIC_EnableIRQ>
 8002f7e:	bf00      	nop
 8002f80:	3708      	adds	r7, #8
 8002f82:	46bd      	mov	sp, r7
 8002f84:	bd80      	pop	{r7, pc}

08002f86 <HAL_SYSTICK_Config>:
 8002f86:	b580      	push	{r7, lr}
 8002f88:	b082      	sub	sp, #8
 8002f8a:	af00      	add	r7, sp, #0
 8002f8c:	6078      	str	r0, [r7, #4]
 8002f8e:	6878      	ldr	r0, [r7, #4]
 8002f90:	f7ff ffa2 	bl	8002ed8 <SysTick_Config>
 8002f94:	4603      	mov	r3, r0
 8002f96:	4618      	mov	r0, r3
 8002f98:	3708      	adds	r7, #8
 8002f9a:	46bd      	mov	sp, r7
 8002f9c:	bd80      	pop	{r7, pc}
	...

08002fa0 <HAL_DMA_Init>:
 8002fa0:	b580      	push	{r7, lr}
 8002fa2:	b086      	sub	sp, #24
 8002fa4:	af00      	add	r7, sp, #0
 8002fa6:	6078      	str	r0, [r7, #4]
 8002fa8:	2300      	movs	r3, #0
 8002faa:	617b      	str	r3, [r7, #20]
 8002fac:	f7ff faa4 	bl	80024f8 <HAL_GetTick>
 8002fb0:	6138      	str	r0, [r7, #16]
 8002fb2:	687b      	ldr	r3, [r7, #4]
 8002fb4:	2b00      	cmp	r3, #0
 8002fb6:	d101      	bne.n	8002fbc <HAL_DMA_Init+0x1c>
 8002fb8:	2301      	movs	r3, #1
 8002fba:	e099      	b.n	80030f0 <HAL_DMA_Init+0x150>
 8002fbc:	687b      	ldr	r3, [r7, #4]
 8002fbe:	2202      	movs	r2, #2
 8002fc0:	f883 2035 	strb.w	r2, [r3, #53]	@ 0x35
 8002fc4:	687b      	ldr	r3, [r7, #4]
 8002fc6:	2200      	movs	r2, #0
 8002fc8:	f883 2034 	strb.w	r2, [r3, #52]	@ 0x34
 8002fcc:	687b      	ldr	r3, [r7, #4]
 8002fce:	681b      	ldr	r3, [r3, #0]
 8002fd0:	681a      	ldr	r2, [r3, #0]
 8002fd2:	687b      	ldr	r3, [r7, #4]
 8002fd4:	681b      	ldr	r3, [r3, #0]
 8002fd6:	f022 0201 	bic.w	r2, r2, #1
 8002fda:	601a      	str	r2, [r3, #0]
 8002fdc:	e00f      	b.n	8002ffe <HAL_DMA_Init+0x5e>
 8002fde:	f7ff fa8b 	bl	80024f8 <HAL_GetTick>
 8002fe2:	4602      	mov	r2, r0
 8002fe4:	693b      	ldr	r3, [r7, #16]
 8002fe6:	1ad3      	subs	r3, r2, r3
 8002fe8:	2b05      	cmp	r3, #5
 8002fea:	d908      	bls.n	8002ffe <HAL_DMA_Init+0x5e>
 8002fec:	687b      	ldr	r3, [r7, #4]
 8002fee:	2220      	movs	r2, #32
 8002ff0:	655a      	str	r2, [r3, #84]	@ 0x54
 8002ff2:	687b      	ldr	r3, [r7, #4]
 8002ff4:	2203      	movs	r2, #3
 8002ff6:	f883 2035 	strb.w	r2, [r3, #53]	@ 0x35
 8002ffa:	2303      	movs	r3, #3
 8002ffc:	e078      	b.n	80030f0 <HAL_DMA_Init+0x150>
 8002ffe:	687b      	ldr	r3, [r7, #4]
 8003000:	681b      	ldr	r3, [r3, #0]
 8003002:	681b      	ldr	r3, [r3, #0]
 8003004:	f003 0301 	and.w	r3, r3, #1
 8003008:	2b00      	cmp	r3, #0
 800300a:	d1e8      	bne.n	8002fde <HAL_DMA_Init+0x3e>
 800300c:	687b      	ldr	r3, [r7, #4]
 800300e:	681b      	ldr	r3, [r3, #0]
 8003010:	681b      	ldr	r3, [r3, #0]
 8003012:	617b      	str	r3, [r7, #20]
 8003014:	697a      	ldr	r2, [r7, #20]
 8003016:	4b38      	ldr	r3, [pc, #224]	@ (80030f8 <HAL_DMA_Init+0x158>)
 8003018:	4013      	ands	r3, r2
 800301a:	617b      	str	r3, [r7, #20]
 800301c:	687b      	ldr	r3, [r7, #4]
 800301e:	685a      	ldr	r2, [r3, #4]
 8003020:	687b      	ldr	r3, [r7, #4]
 8003022:	689b      	ldr	r3, [r3, #8]
 8003024:	431a      	orrs	r2, r3
 8003026:	687b      	ldr	r3, [r7, #4]
 8003028:	68db      	ldr	r3, [r3, #12]
 800302a:	431a      	orrs	r2, r3
 800302c:	687b      	ldr	r3, [r7, #4]
 800302e:	691b      	ldr	r3, [r3, #16]
 8003030:	431a      	orrs	r2, r3
 8003032:	687b      	ldr	r3, [r7, #4]
 8003034:	695b      	ldr	r3, [r3, #20]
 8003036:	431a      	orrs	r2, r3
 8003038:	687b      	ldr	r3, [r7, #4]
 800303a:	699b      	ldr	r3, [r3, #24]
 800303c:	431a      	orrs	r2, r3
 800303e:	687b      	ldr	r3, [r7, #4]
 8003040:	69db      	ldr	r3, [r3, #28]
 8003042:	431a      	orrs	r2, r3
 8003044:	687b      	ldr	r3, [r7, #4]
 8003046:	6a1b      	ldr	r3, [r3, #32]
 8003048:	4313      	orrs	r3, r2
 800304a:	697a      	ldr	r2, [r7, #20]
 800304c:	4313      	orrs	r3, r2
 800304e:	617b      	str	r3, [r7, #20]
 8003050:	687b      	ldr	r3, [r7, #4]
 8003052:	6a5b      	ldr	r3, [r3, #36]	@ 0x24
 8003054:	2b04      	cmp	r3, #4
 8003056:	d107      	bne.n	8003068 <HAL_DMA_Init+0xc8>
 8003058:	687b      	ldr	r3, [r7, #4]
 800305a:	6ada      	ldr	r2, [r3, #44]	@ 0x2c
 800305c:	687b      	ldr	r3, [r7, #4]
 800305e:	6b1b      	ldr	r3, [r3, #48]	@ 0x30
 8003060:	4313      	orrs	r3, r2
 8003062:	697a      	ldr	r2, [r7, #20]
 8003064:	4313      	orrs	r3, r2
 8003066:	617b      	str	r3, [r7, #20]
 8003068:	687b      	ldr	r3, [r7, #4]
 800306a:	681b      	ldr	r3, [r3, #0]
 800306c:	697a      	ldr	r2, [r7, #20]
 800306e:	601a      	str	r2, [r3, #0]
 8003070:	687b      	ldr	r3, [r7, #4]
 8003072:	681b      	ldr	r3, [r3, #0]
 8003074:	695b      	ldr	r3, [r3, #20]
 8003076:	617b      	str	r3, [r7, #20]
 8003078:	697b      	ldr	r3, [r7, #20]
 800307a:	f023 0307 	bic.w	r3, r3, #7
 800307e:	617b      	str	r3, [r7, #20]
 8003080:	687b      	ldr	r3, [r7, #4]
 8003082:	6a5b      	ldr	r3, [r3, #36]	@ 0x24
 8003084:	697a      	ldr	r2, [r7, #20]
 8003086:	4313      	orrs	r3, r2
 8003088:	617b      	str	r3, [r7, #20]
 800308a:	687b      	ldr	r3, [r7, #4]
 800308c:	6a5b      	ldr	r3, [r3, #36]	@ 0x24
 800308e:	2b04      	cmp	r3, #4
 8003090:	d117      	bne.n	80030c2 <HAL_DMA_Init+0x122>
 8003092:	687b      	ldr	r3, [r7, #4]
 8003094:	6a9b      	ldr	r3, [r3, #40]	@ 0x28
 8003096:	697a      	ldr	r2, [r7, #20]
 8003098:	4313      	orrs	r3, r2
 800309a:	617b      	str	r3, [r7, #20]
 800309c:	687b      	ldr	r3, [r7, #4]
 800309e:	6adb      	ldr	r3, [r3, #44]	@ 0x2c
 80030a0:	2b00      	cmp	r3, #0
 80030a2:	d00e      	beq.n	80030c2 <HAL_DMA_Init+0x122>
 80030a4:	6878      	ldr	r0, [r7, #4]
 80030a6:	f000 fb01 	bl	80036ac <DMA_CheckFifoParam>
 80030aa:	4603      	mov	r3, r0
 80030ac:	2b00      	cmp	r3, #0
 80030ae:	d008      	beq.n	80030c2 <HAL_DMA_Init+0x122>
 80030b0:	687b      	ldr	r3, [r7, #4]
 80030b2:	2240      	movs	r2, #64	@ 0x40
 80030b4:	655a      	str	r2, [r3, #84]	@ 0x54
 80030b6:	687b      	ldr	r3, [r7, #4]
 80030b8:	2201      	movs	r2, #1
 80030ba:	f883 2035 	strb.w	r2, [r3, #53]	@ 0x35
 80030be:	2301      	movs	r3, #1
 80030c0:	e016      	b.n	80030f0 <HAL_DMA_Init+0x150>
 80030c2:	687b      	ldr	r3, [r7, #4]
 80030c4:	681b      	ldr	r3, [r3, #0]
 80030c6:	697a      	ldr	r2, [r7, #20]
 80030c8:	615a      	str	r2, [r3, #20]
 80030ca:	6878      	ldr	r0, [r7, #4]
 80030cc:	f000 fab8 	bl	8003640 <DMA_CalcBaseAndBitshift>
 80030d0:	4603      	mov	r3, r0
 80030d2:	60fb      	str	r3, [r7, #12]
 80030d4:	687b      	ldr	r3, [r7, #4]
 80030d6:	6ddb      	ldr	r3, [r3, #92]	@ 0x5c
 80030d8:	223f      	movs	r2, #63	@ 0x3f
 80030da:	409a      	lsls	r2, r3
 80030dc:	68fb      	ldr	r3, [r7, #12]
 80030de:	609a      	str	r2, [r3, #8]
 80030e0:	687b      	ldr	r3, [r7, #4]
 80030e2:	2200      	movs	r2, #0
 80030e4:	655a      	str	r2, [r3, #84]	@ 0x54
 80030e6:	687b      	ldr	r3, [r7, #4]
 80030e8:	2201      	movs	r2, #1
 80030ea:	f883 2035 	strb.w	r2, [r3, #53]	@ 0x35
 80030ee:	2300      	movs	r3, #0
 80030f0:	4618      	mov	r0, r3
 80030f2:	3718      	adds	r7, #24
 80030f4:	46bd      	mov	sp, r7
 80030f6:	bd80      	pop	{r7, pc}
 80030f8:	f010803f 	.word	0xf010803f

080030fc <HAL_DMA_Start_IT>:
 80030fc:	b580      	push	{r7, lr}
 80030fe:	b086      	sub	sp, #24
 8003100:	af00      	add	r7, sp, #0
 8003102:	60f8      	str	r0, [r7, #12]
 8003104:	60b9      	str	r1, [r7, #8]
 8003106:	607a      	str	r2, [r7, #4]
 8003108:	603b      	str	r3, [r7, #0]
 800310a:	2300      	movs	r3, #0
 800310c:	75fb      	strb	r3, [r7, #23]
 800310e:	68fb      	ldr	r3, [r7, #12]
 8003110:	6d9b      	ldr	r3, [r3, #88]	@ 0x58
 8003112:	613b      	str	r3, [r7, #16]
 8003114:	68fb      	ldr	r3, [r7, #12]
 8003116:	f893 3034 	ldrb.w	r3, [r3, #52]	@ 0x34
 800311a:	2b01      	cmp	r3, #1
 800311c:	d101      	bne.n	8003122 <HAL_DMA_Start_IT+0x26>
 800311e:	2302      	movs	r3, #2
 8003120:	e040      	b.n	80031a4 <HAL_DMA_Start_IT+0xa8>
 8003122:	68fb      	ldr	r3, [r7, #12]
 8003124:	2201      	movs	r2, #1
 8003126:	f883 2034 	strb.w	r2, [r3, #52]	@ 0x34
 800312a:	68fb      	ldr	r3, [r7, #12]
 800312c:	f893 3035 	ldrb.w	r3, [r3, #53]	@ 0x35
 8003130:	b2db      	uxtb	r3, r3
 8003132:	2b01      	cmp	r3, #1
 8003134:	d12f      	bne.n	8003196 <HAL_DMA_Start_IT+0x9a>
 8003136:	68fb      	ldr	r3, [r7, #12]
 8003138:	2202      	movs	r2, #2
 800313a:	f883 2035 	strb.w	r2, [r3, #53]	@ 0x35
 800313e:	68fb      	ldr	r3, [r7, #12]
 8003140:	2200      	movs	r2, #0
 8003142:	655a      	str	r2, [r3, #84]	@ 0x54
 8003144:	683b      	ldr	r3, [r7, #0]
 8003146:	687a      	ldr	r2, [r7, #4]
 8003148:	68b9      	ldr	r1, [r7, #8]
 800314a:	68f8      	ldr	r0, [r7, #12]
 800314c:	f000 fa4a 	bl	80035e4 <DMA_SetConfig>
 8003150:	68fb      	ldr	r3, [r7, #12]
 8003152:	6ddb      	ldr	r3, [r3, #92]	@ 0x5c
 8003154:	223f      	movs	r2, #63	@ 0x3f
 8003156:	409a      	lsls	r2, r3
 8003158:	693b      	ldr	r3, [r7, #16]
 800315a:	609a      	str	r2, [r3, #8]
 800315c:	68fb      	ldr	r3, [r7, #12]
 800315e:	681b      	ldr	r3, [r3, #0]
 8003160:	681a      	ldr	r2, [r3, #0]
 8003162:	68fb      	ldr	r3, [r7, #12]
 8003164:	681b      	ldr	r3, [r3, #0]
 8003166:	f042 0216 	orr.w	r2, r2, #22
 800316a:	601a      	str	r2, [r3, #0]
 800316c:	68fb      	ldr	r3, [r7, #12]
 800316e:	6c1b      	ldr	r3, [r3, #64]	@ 0x40
 8003170:	2b00      	cmp	r3, #0
 8003172:	d007      	beq.n	8003184 <HAL_DMA_Start_IT+0x88>
 8003174:	68fb      	ldr	r3, [r7, #12]
 8003176:	681b      	ldr	r3, [r3, #0]
 8003178:	681a      	ldr	r2, [r3, #0]
 800317a:	68fb      	ldr	r3, [r7, #12]
 800317c:	681b      	ldr	r3, [r3, #0]
 800317e:	f042 0208 	orr.w	r2, r2, #8
 8003182:	601a      	str	r2, [r3, #0]
 8003184:	68fb      	ldr	r3, [r7, #12]
 8003186:	681b      	ldr	r3, [r3, #0]
 8003188:	681a      	ldr	r2, [r3, #0]
 800318a:	68fb      	ldr	r3, [r7, #12]
 800318c:	681b      	ldr	r3, [r3, #0]
 800318e:	f042 0201 	orr.w	r2, r2, #1
 8003192:	601a      	str	r2, [r3, #0]
 8003194:	e005      	b.n	80031a2 <HAL_DMA_Start_IT+0xa6>
 8003196:	68fb      	ldr	r3, [r7, #12]
 8003198:	2200      	movs	r2, #0
 800319a:	f883 2034 	strb.w	r2, [r3, #52]	@ 0x34
 800319e:	2302      	movs	r3, #2
 80031a0:	75fb      	strb	r3, [r7, #23]
 80031a2:	7dfb      	ldrb	r3, [r7, #23]
 80031a4:	4618      	mov	r0, r3
 80031a6:	3718      	adds	r7, #24
 80031a8:	46bd      	mov	sp, r7
 80031aa:	bd80      	pop	{r7, pc}

080031ac <HAL_DMA_Abort>:
 80031ac:	b580      	push	{r7, lr}
 80031ae:	b084      	sub	sp, #16
 80031b0:	af00      	add	r7, sp, #0
 80031b2:	6078      	str	r0, [r7, #4]
 80031b4:	687b      	ldr	r3, [r7, #4]
 80031b6:	6d9b      	ldr	r3, [r3, #88]	@ 0x58
 80031b8:	60fb      	str	r3, [r7, #12]
 80031ba:	f7ff f99d 	bl	80024f8 <HAL_GetTick>
 80031be:	60b8      	str	r0, [r7, #8]
 80031c0:	687b      	ldr	r3, [r7, #4]
 80031c2:	f893 3035 	ldrb.w	r3, [r3, #53]	@ 0x35
 80031c6:	b2db      	uxtb	r3, r3
 80031c8:	2b02      	cmp	r3, #2
 80031ca:	d008      	beq.n	80031de <HAL_DMA_Abort+0x32>
 80031cc:	687b      	ldr	r3, [r7, #4]
 80031ce:	2280      	movs	r2, #128	@ 0x80
 80031d0:	655a      	str	r2, [r3, #84]	@ 0x54
 80031d2:	687b      	ldr	r3, [r7, #4]
 80031d4:	2200      	movs	r2, #0
 80031d6:	f883 2034 	strb.w	r2, [r3, #52]	@ 0x34
 80031da:	2301      	movs	r3, #1
 80031dc:	e052      	b.n	8003284 <HAL_DMA_Abort+0xd8>
 80031de:	687b      	ldr	r3, [r7, #4]
 80031e0:	681b      	ldr	r3, [r3, #0]
 80031e2:	681a      	ldr	r2, [r3, #0]
 80031e4:	687b      	ldr	r3, [r7, #4]
 80031e6:	681b      	ldr	r3, [r3, #0]
 80031e8:	f022 0216 	bic.w	r2, r2, #22
 80031ec:	601a      	str	r2, [r3, #0]
 80031ee:	687b      	ldr	r3, [r7, #4]
 80031f0:	681b      	ldr	r3, [r3, #0]
 80031f2:	695a      	ldr	r2, [r3, #20]
 80031f4:	687b      	ldr	r3, [r7, #4]
 80031f6:	681b      	ldr	r3, [r3, #0]
 80031f8:	f022 0280 	bic.w	r2, r2, #128	@ 0x80
 80031fc:	615a      	str	r2, [r3, #20]
 80031fe:	687b      	ldr	r3, [r7, #4]
 8003200:	6c1b      	ldr	r3, [r3, #64]	@ 0x40
 8003202:	2b00      	cmp	r3, #0
 8003204:	d103      	bne.n	800320e <HAL_DMA_Abort+0x62>
 8003206:	687b      	ldr	r3, [r7, #4]
 8003208:	6c9b      	ldr	r3, [r3, #72]	@ 0x48
 800320a:	2b00      	cmp	r3, #0
 800320c:	d007      	beq.n	800321e <HAL_DMA_Abort+0x72>
 800320e:	687b      	ldr	r3, [r7, #4]
 8003210:	681b      	ldr	r3, [r3, #0]
 8003212:	681a      	ldr	r2, [r3, #0]
 8003214:	687b      	ldr	r3, [r7, #4]
 8003216:	681b      	ldr	r3, [r3, #0]
 8003218:	f022 0208 	bic.w	r2, r2, #8
 800321c:	601a      	str	r2, [r3, #0]
 800321e:	687b      	ldr	r3, [r7, #4]
 8003220:	681b      	ldr	r3, [r3, #0]
 8003222:	681a      	ldr	r2, [r3, #0]
 8003224:	687b      	ldr	r3, [r7, #4]
 8003226:	681b      	ldr	r3, [r3, #0]
 8003228:	f022 0201 	bic.w	r2, r2, #1
 800322c:	601a      	str	r2, [r3, #0]
 800322e:	e013      	b.n	8003258 <HAL_DMA_Abort+0xac>
 8003230:	f7ff f962 	bl	80024f8 <HAL_GetTick>
 8003234:	4602      	mov	r2, r0
 8003236:	68bb      	ldr	r3, [r7, #8]
 8003238:	1ad3      	subs	r3, r2, r3
 800323a:	2b05      	cmp	r3, #5
 800323c:	d90c      	bls.n	8003258 <HAL_DMA_Abort+0xac>
 800323e:	687b      	ldr	r3, [r7, #4]
 8003240:	2220      	movs	r2, #32
 8003242:	655a      	str	r2, [r3, #84]	@ 0x54
 8003244:	687b      	ldr	r3, [r7, #4]
 8003246:	2203      	movs	r2, #3
 8003248:	f883 2035 	strb.w	r2, [r3, #53]	@ 0x35
 800324c:	687b      	ldr	r3, [r7, #4]
 800324e:	2200      	movs	r2, #0
 8003250:	f883 2034 	strb.w	r2, [r3, #52]	@ 0x34
 8003254:	2303      	movs	r3, #3
 8003256:	e015      	b.n	8003284 <HAL_DMA_Abort+0xd8>
 8003258:	687b      	ldr	r3, [r7, #4]
 800325a:	681b      	ldr	r3, [r3, #0]
 800325c:	681b      	ldr	r3, [r3, #0]
 800325e:	f003 0301 	and.w	r3, r3, #1
 8003262:	2b00      	cmp	r3, #0
 8003264:	d1e4      	bne.n	8003230 <HAL_DMA_Abort+0x84>
 8003266:	687b      	ldr	r3, [r7, #4]
 8003268:	6ddb      	ldr	r3, [r3, #92]	@ 0x5c
 800326a:	223f      	movs	r2, #63	@ 0x3f
 800326c:	409a      	lsls	r2, r3
 800326e:	68fb      	ldr	r3, [r7, #12]
 8003270:	609a      	str	r2, [r3, #8]
 8003272:	687b      	ldr	r3, [r7, #4]
 8003274:	2201      	movs	r2, #1
 8003276:	f883 2035 	strb.w	r2, [r3, #53]	@ 0x35
 800327a:	687b      	ldr	r3, [r7, #4]
 800327c:	2200      	movs	r2, #0
 800327e:	f883 2034 	strb.w	r2, [r3, #52]	@ 0x34
 8003282:	2300      	movs	r3, #0
 8003284:	4618      	mov	r0, r3
 8003286:	3710      	adds	r7, #16
 8003288:	46bd      	mov	sp, r7
 800328a:	bd80      	pop	{r7, pc}

0800328c <HAL_DMA_Abort_IT>:
 800328c:	b480      	push	{r7}
 800328e:	b083      	sub	sp, #12
 8003290:	af00      	add	r7, sp, #0
 8003292:	6078      	str	r0, [r7, #4]
 8003294:	687b      	ldr	r3, [r7, #4]
 8003296:	f893 3035 	ldrb.w	r3, [r3, #53]	@ 0x35
 800329a:	b2db      	uxtb	r3, r3
 800329c:	2b02      	cmp	r3, #2
 800329e:	d004      	beq.n	80032aa <HAL_DMA_Abort_IT+0x1e>
 80032a0:	687b      	ldr	r3, [r7, #4]
 80032a2:	2280      	movs	r2, #128	@ 0x80
 80032a4:	655a      	str	r2, [r3, #84]	@ 0x54
 80032a6:	2301      	movs	r3, #1
 80032a8:	e00c      	b.n	80032c4 <HAL_DMA_Abort_IT+0x38>
 80032aa:	687b      	ldr	r3, [r7, #4]
 80032ac:	2205      	movs	r2, #5
 80032ae:	f883 2035 	strb.w	r2, [r3, #53]	@ 0x35
 80032b2:	687b      	ldr	r3, [r7, #4]
 80032b4:	681b      	ldr	r3, [r3, #0]
 80032b6:	681a      	ldr	r2, [r3, #0]
 80032b8:	687b      	ldr	r3, [r7, #4]
 80032ba:	681b      	ldr	r3, [r3, #0]
 80032bc:	f022 0201 	bic.w	r2, r2, #1
 80032c0:	601a      	str	r2, [r3, #0]
 80032c2:	2300      	movs	r3, #0
 80032c4:	4618      	mov	r0, r3
 80032c6:	370c      	adds	r7, #12
 80032c8:	46bd      	mov	sp, r7
 80032ca:	f85d 7b04 	ldr.w	r7, [sp], #4
 80032ce:	4770      	bx	lr

080032d0 <HAL_DMA_IRQHandler>:
 80032d0:	b580      	push	{r7, lr}
 80032d2:	b086      	sub	sp, #24
 80032d4:	af00      	add	r7, sp, #0
 80032d6:	6078      	str	r0, [r7, #4]
 80032d8:	2300      	movs	r3, #0
 80032da:	60bb      	str	r3, [r7, #8]
 80032dc:	4b8e      	ldr	r3, [pc, #568]	@ (8003518 <HAL_DMA_IRQHandler+0x248>)
 80032de:	681b      	ldr	r3, [r3, #0]
 80032e0:	4a8e      	ldr	r2, [pc, #568]	@ (800351c <HAL_DMA_IRQHandler+0x24c>)
 80032e2:	fba2 2303 	umull	r2, r3, r2, r3
 80032e6:	0a9b      	lsrs	r3, r3, #10
 80032e8:	617b      	str	r3, [r7, #20]
 80032ea:	687b      	ldr	r3, [r7, #4]
 80032ec:	6d9b      	ldr	r3, [r3, #88]	@ 0x58
 80032ee:	613b      	str	r3, [r7, #16]
 80032f0:	693b      	ldr	r3, [r7, #16]
 80032f2:	681b      	ldr	r3, [r3, #0]
 80032f4:	60fb      	str	r3, [r7, #12]
 80032f6:	687b      	ldr	r3, [r7, #4]
 80032f8:	6ddb      	ldr	r3, [r3, #92]	@ 0x5c
 80032fa:	2208      	movs	r2, #8
 80032fc:	409a      	lsls	r2, r3
 80032fe:	68fb      	ldr	r3, [r7, #12]
 8003300:	4013      	ands	r3, r2
 8003302:	2b00      	cmp	r3, #0
 8003304:	d01a      	beq.n	800333c <HAL_DMA_IRQHandler+0x6c>
 8003306:	687b      	ldr	r3, [r7, #4]
 8003308:	681b      	ldr	r3, [r3, #0]
 800330a:	681b      	ldr	r3, [r3, #0]
 800330c:	f003 0304 	and.w	r3, r3, #4
 8003310:	2b00      	cmp	r3, #0
 8003312:	d013      	beq.n	800333c <HAL_DMA_IRQHandler+0x6c>
 8003314:	687b      	ldr	r3, [r7, #4]
 8003316:	681b      	ldr	r3, [r3, #0]
 8003318:	681a      	ldr	r2, [r3, #0]
 800331a:	687b      	ldr	r3, [r7, #4]
 800331c:	681b      	ldr	r3, [r3, #0]
 800331e:	f022 0204 	bic.w	r2, r2, #4
 8003322:	601a      	str	r2, [r3, #0]
 8003324:	687b      	ldr	r3, [r7, #4]
 8003326:	6ddb      	ldr	r3, [r3, #92]	@ 0x5c
 8003328:	2208      	movs	r2, #8
 800332a:	409a      	lsls	r2, r3
 800332c:	693b      	ldr	r3, [r7, #16]
 800332e:	609a      	str	r2, [r3, #8]
 8003330:	687b      	ldr	r3, [r7, #4]
 8003332:	6d5b      	ldr	r3, [r3, #84]	@ 0x54
 8003334:	f043 0201 	orr.w	r2, r3, #1
 8003338:	687b      	ldr	r3, [r7, #4]
 800333a:	655a      	str	r2, [r3, #84]	@ 0x54
 800333c:	687b      	ldr	r3, [r7, #4]
 800333e:	6ddb      	ldr	r3, [r3, #92]	@ 0x5c
 8003340:	2201      	movs	r2, #1
 8003342:	409a      	lsls	r2, r3
 8003344:	68fb      	ldr	r3, [r7, #12]
 8003346:	4013      	ands	r3, r2
 8003348:	2b00      	cmp	r3, #0
 800334a:	d012      	beq.n	8003372 <HAL_DMA_IRQHandler+0xa2>
 800334c:	687b      	ldr	r3, [r7, #4]
 800334e:	681b      	ldr	r3, [r3, #0]
 8003350:	695b      	ldr	r3, [r3, #20]
 8003352:	f003 0380 	and.w	r3, r3, #128	@ 0x80
 8003356:	2b00      	cmp	r3, #0
 8003358:	d00b      	beq.n	8003372 <HAL_DMA_IRQHandler+0xa2>
 800335a:	687b      	ldr	r3, [r7, #4]
 800335c:	6ddb      	ldr	r3, [r3, #92]	@ 0x5c
 800335e:	2201      	movs	r2, #1
 8003360:	409a      	lsls	r2, r3
 8003362:	693b      	ldr	r3, [r7, #16]
 8003364:	609a      	str	r2, [r3, #8]
 8003366:	687b      	ldr	r3, [r7, #4]
 8003368:	6d5b      	ldr	r3, [r3, #84]	@ 0x54
 800336a:	f043 0202 	orr.w	r2, r3, #2
 800336e:	687b      	ldr	r3, [r7, #4]
 8003370:	655a      	str	r2, [r3, #84]	@ 0x54
 8003372:	687b      	ldr	r3, [r7, #4]
 8003374:	6ddb      	ldr	r3, [r3, #92]	@ 0x5c
 8003376:	2204      	movs	r2, #4
 8003378:	409a      	lsls	r2, r3
 800337a:	68fb      	ldr	r3, [r7, #12]
 800337c:	4013      	ands	r3, r2
 800337e:	2b00      	cmp	r3, #0
 8003380:	d012      	beq.n	80033a8 <HAL_DMA_IRQHandler+0xd8>
 8003382:	687b      	ldr	r3, [r7, #4]
 8003384:	681b      	ldr	r3, [r3, #0]
 8003386:	681b      	ldr	r3, [r3, #0]
 8003388:	f003 0302 	and.w	r3, r3, #2
 800338c:	2b00      	cmp	r3, #0
 800338e:	d00b      	beq.n	80033a8 <HAL_DMA_IRQHandler+0xd8>
 8003390:	687b      	ldr	r3, [r7, #4]
 8003392:	6ddb      	ldr	r3, [r3, #92]	@ 0x5c
 8003394:	2204      	movs	r2, #4
 8003396:	409a      	lsls	r2, r3
 8003398:	693b      	ldr	r3, [r7, #16]
 800339a:	609a      	str	r2, [r3, #8]
 800339c:	687b      	ldr	r3, [r7, #4]
 800339e:	6d5b      	ldr	r3, [r3, #84]	@ 0x54
 80033a0:	f043 0204 	orr.w	r2, r3, #4
 80033a4:	687b      	ldr	r3, [r7, #4]
 80033a6:	655a      	str	r2, [r3, #84]	@ 0x54
 80033a8:	687b      	ldr	r3, [r7, #4]
 80033aa:	6ddb      	ldr	r3, [r3, #92]	@ 0x5c
 80033ac:	2210      	movs	r2, #16
 80033ae:	409a      	lsls	r2, r3
 80033b0:	68fb      	ldr	r3, [r7, #12]
 80033b2:	4013      	ands	r3, r2
 80033b4:	2b00      	cmp	r3, #0
 80033b6:	d043      	beq.n	8003440 <HAL_DMA_IRQHandler+0x170>
 80033b8:	687b      	ldr	r3, [r7, #4]
 80033ba:	681b      	ldr	r3, [r3, #0]
 80033bc:	681b      	ldr	r3, [r3, #0]
 80033be:	f003 0308 	and.w	r3, r3, #8
 80033c2:	2b00      	cmp	r3, #0
 80033c4:	d03c      	beq.n	8003440 <HAL_DMA_IRQHandler+0x170>
 80033c6:	687b      	ldr	r3, [r7, #4]
 80033c8:	6ddb      	ldr	r3, [r3, #92]	@ 0x5c
 80033ca:	2210      	movs	r2, #16
 80033cc:	409a      	lsls	r2, r3
 80033ce:	693b      	ldr	r3, [r7, #16]
 80033d0:	609a      	str	r2, [r3, #8]
 80033d2:	687b      	ldr	r3, [r7, #4]
 80033d4:	681b      	ldr	r3, [r3, #0]
 80033d6:	681b      	ldr	r3, [r3, #0]
 80033d8:	f403 2380 	and.w	r3, r3, #262144	@ 0x40000
 80033dc:	2b00      	cmp	r3, #0
 80033de:	d018      	beq.n	8003412 <HAL_DMA_IRQHandler+0x142>
 80033e0:	687b      	ldr	r3, [r7, #4]
 80033e2:	681b      	ldr	r3, [r3, #0]
 80033e4:	681b      	ldr	r3, [r3, #0]
 80033e6:	f403 2300 	and.w	r3, r3, #524288	@ 0x80000
 80033ea:	2b00      	cmp	r3, #0
 80033ec:	d108      	bne.n	8003400 <HAL_DMA_IRQHandler+0x130>
 80033ee:	687b      	ldr	r3, [r7, #4]
 80033f0:	6c1b      	ldr	r3, [r3, #64]	@ 0x40
 80033f2:	2b00      	cmp	r3, #0
 80033f4:	d024      	beq.n	8003440 <HAL_DMA_IRQHandler+0x170>
 80033f6:	687b      	ldr	r3, [r7, #4]
 80033f8:	6c1b      	ldr	r3, [r3, #64]	@ 0x40
 80033fa:	6878      	ldr	r0, [r7, #4]
 80033fc:	4798      	blx	r3
 80033fe:	e01f      	b.n	8003440 <HAL_DMA_IRQHandler+0x170>
 8003400:	687b      	ldr	r3, [r7, #4]
 8003402:	6c9b      	ldr	r3, [r3, #72]	@ 0x48
 8003404:	2b00      	cmp	r3, #0
 8003406:	d01b      	beq.n	8003440 <HAL_DMA_IRQHandler+0x170>
 8003408:	687b      	ldr	r3, [r7, #4]
 800340a:	6c9b      	ldr	r3, [r3, #72]	@ 0x48
 800340c:	6878      	ldr	r0, [r7, #4]
 800340e:	4798      	blx	r3
 8003410:	e016      	b.n	8003440 <HAL_DMA_IRQHandler+0x170>
 8003412:	687b      	ldr	r3, [r7, #4]
 8003414:	681b      	ldr	r3, [r3, #0]
 8003416:	681b      	ldr	r3, [r3, #0]
 8003418:	f403 7380 	and.w	r3, r3, #256	@ 0x100
 800341c:	2b00      	cmp	r3, #0
 800341e:	d107      	bne.n	8003430 <HAL_DMA_IRQHandler+0x160>
 8003420:	687b      	ldr	r3, [r7, #4]
 8003422:	681b      	ldr	r3, [r3, #0]
 8003424:	681a      	ldr	r2, [r3, #0]
 8003426:	687b      	ldr	r3, [r7, #4]
 8003428:	681b      	ldr	r3, [r3, #0]
 800342a:	f022 0208 	bic.w	r2, r2, #8
 800342e:	601a      	str	r2, [r3, #0]
 8003430:	687b      	ldr	r3, [r7, #4]
 8003432:	6c1b      	ldr	r3, [r3, #64]	@ 0x40
 8003434:	2b00      	cmp	r3, #0
 8003436:	d003      	beq.n	8003440 <HAL_DMA_IRQHandler+0x170>
 8003438:	687b      	ldr	r3, [r7, #4]
 800343a:	6c1b      	ldr	r3, [r3, #64]	@ 0x40
 800343c:	6878      	ldr	r0, [r7, #4]
 800343e:	4798      	blx	r3
 8003440:	687b      	ldr	r3, [r7, #4]
 8003442:	6ddb      	ldr	r3, [r3, #92]	@ 0x5c
 8003444:	2220      	movs	r2, #32
 8003446:	409a      	lsls	r2, r3
 8003448:	68fb      	ldr	r3, [r7, #12]
 800344a:	4013      	ands	r3, r2
 800344c:	2b00      	cmp	r3, #0
 800344e:	f000 808f 	beq.w	8003570 <HAL_DMA_IRQHandler+0x2a0>
 8003452:	687b      	ldr	r3, [r7, #4]
 8003454:	681b      	ldr	r3, [r3, #0]
 8003456:	681b      	ldr	r3, [r3, #0]
 8003458:	f003 0310 	and.w	r3, r3, #16
 800345c:	2b00      	cmp	r3, #0
 800345e:	f000 8087 	beq.w	8003570 <HAL_DMA_IRQHandler+0x2a0>
 8003462:	687b      	ldr	r3, [r7, #4]
 8003464:	6ddb      	ldr	r3, [r3, #92]	@ 0x5c
 8003466:	2220      	movs	r2, #32
 8003468:	409a      	lsls	r2, r3
 800346a:	693b      	ldr	r3, [r7, #16]
 800346c:	609a      	str	r2, [r3, #8]
 800346e:	687b      	ldr	r3, [r7, #4]
 8003470:	f893 3035 	ldrb.w	r3, [r3, #53]	@ 0x35
 8003474:	b2db      	uxtb	r3, r3
 8003476:	2b05      	cmp	r3, #5
 8003478:	d136      	bne.n	80034e8 <HAL_DMA_IRQHandler+0x218>
 800347a:	687b      	ldr	r3, [r7, #4]
 800347c:	681b      	ldr	r3, [r3, #0]
 800347e:	681a      	ldr	r2, [r3, #0]
 8003480:	687b      	ldr	r3, [r7, #4]
 8003482:	681b      	ldr	r3, [r3, #0]
 8003484:	f022 0216 	bic.w	r2, r2, #22
 8003488:	601a      	str	r2, [r3, #0]
 800348a:	687b      	ldr	r3, [r7, #4]
 800348c:	681b      	ldr	r3, [r3, #0]
 800348e:	695a      	ldr	r2, [r3, #20]
 8003490:	687b      	ldr	r3, [r7, #4]
 8003492:	681b      	ldr	r3, [r3, #0]
 8003494:	f022 0280 	bic.w	r2, r2, #128	@ 0x80
 8003498:	615a      	str	r2, [r3, #20]
 800349a:	687b      	ldr	r3, [r7, #4]
 800349c:	6c1b      	ldr	r3, [r3, #64]	@ 0x40
 800349e:	2b00      	cmp	r3, #0
 80034a0:	d103      	bne.n	80034aa <HAL_DMA_IRQHandler+0x1da>
 80034a2:	687b      	ldr	r3, [r7, #4]
 80034a4:	6c9b      	ldr	r3, [r3, #72]	@ 0x48
 80034a6:	2b00      	cmp	r3, #0
 80034a8:	d007      	beq.n	80034ba <HAL_DMA_IRQHandler+0x1ea>
 80034aa:	687b      	ldr	r3, [r7, #4]
 80034ac:	681b      	ldr	r3, [r3, #0]
 80034ae:	681a      	ldr	r2, [r3, #0]
 80034b0:	687b      	ldr	r3, [r7, #4]
 80034b2:	681b      	ldr	r3, [r3, #0]
 80034b4:	f022 0208 	bic.w	r2, r2, #8
 80034b8:	601a      	str	r2, [r3, #0]
 80034ba:	687b      	ldr	r3, [r7, #4]
 80034bc:	6ddb      	ldr	r3, [r3, #92]	@ 0x5c
 80034be:	223f      	movs	r2, #63	@ 0x3f
 80034c0:	409a      	lsls	r2, r3
 80034c2:	693b      	ldr	r3, [r7, #16]
 80034c4:	609a      	str	r2, [r3, #8]
 80034c6:	687b      	ldr	r3, [r7, #4]
 80034c8:	2201      	movs	r2, #1
 80034ca:	f883 2035 	strb.w	r2, [r3, #53]	@ 0x35
 80034ce:	687b      	ldr	r3, [r7, #4]
 80034d0:	2200      	movs	r2, #0
 80034d2:	f883 2034 	strb.w	r2, [r3, #52]	@ 0x34
 80034d6:	687b      	ldr	r3, [r7, #4]
 80034d8:	6d1b      	ldr	r3, [r3, #80]	@ 0x50
 80034da:	2b00      	cmp	r3, #0
 80034dc:	d07e      	beq.n	80035dc <HAL_DMA_IRQHandler+0x30c>
 80034de:	687b      	ldr	r3, [r7, #4]
 80034e0:	6d1b      	ldr	r3, [r3, #80]	@ 0x50
 80034e2:	6878      	ldr	r0, [r7, #4]
 80034e4:	4798      	blx	r3
 80034e6:	e079      	b.n	80035dc <HAL_DMA_IRQHandler+0x30c>
 80034e8:	687b      	ldr	r3, [r7, #4]
 80034ea:	681b      	ldr	r3, [r3, #0]
 80034ec:	681b      	ldr	r3, [r3, #0]
 80034ee:	f403 2380 	and.w	r3, r3, #262144	@ 0x40000
 80034f2:	2b00      	cmp	r3, #0
 80034f4:	d01d      	beq.n	8003532 <HAL_DMA_IRQHandler+0x262>
 80034f6:	687b      	ldr	r3, [r7, #4]
 80034f8:	681b      	ldr	r3, [r3, #0]
 80034fa:	681b      	ldr	r3, [r3, #0]
 80034fc:	f403 2300 	and.w	r3, r3, #524288	@ 0x80000
 8003500:	2b00      	cmp	r3, #0
 8003502:	d10d      	bne.n	8003520 <HAL_DMA_IRQHandler+0x250>
 8003504:	687b      	ldr	r3, [r7, #4]
 8003506:	6c5b      	ldr	r3, [r3, #68]	@ 0x44
 8003508:	2b00      	cmp	r3, #0
 800350a:	d031      	beq.n	8003570 <HAL_DMA_IRQHandler+0x2a0>
 800350c:	687b      	ldr	r3, [r7, #4]
 800350e:	6c5b      	ldr	r3, [r3, #68]	@ 0x44
 8003510:	6878      	ldr	r0, [r7, #4]
 8003512:	4798      	blx	r3
 8003514:	e02c      	b.n	8003570 <HAL_DMA_IRQHandler+0x2a0>
 8003516:	bf00      	nop
 8003518:	20000008 	.word	0x20000008
 800351c:	1b4e81b5 	.word	0x1b4e81b5
 8003520:	687b      	ldr	r3, [r7, #4]
 8003522:	6bdb      	ldr	r3, [r3, #60]	@ 0x3c
 8003524:	2b00      	cmp	r3, #0
 8003526:	d023      	beq.n	8003570 <HAL_DMA_IRQHandler+0x2a0>
 8003528:	687b      	ldr	r3, [r7, #4]
 800352a:	6bdb      	ldr	r3, [r3, #60]	@ 0x3c
 800352c:	6878      	ldr	r0, [r7, #4]
 800352e:	4798      	blx	r3
 8003530:	e01e      	b.n	8003570 <HAL_DMA_IRQHandler+0x2a0>
 8003532:	687b      	ldr	r3, [r7, #4]
 8003534:	681b      	ldr	r3, [r3, #0]
 8003536:	681b      	ldr	r3, [r3, #0]
 8003538:	f403 7380 	and.w	r3, r3, #256	@ 0x100
 800353c:	2b00      	cmp	r3, #0
 800353e:	d10f      	bne.n	8003560 <HAL_DMA_IRQHandler+0x290>
 8003540:	687b      	ldr	r3, [r7, #4]
 8003542:	681b      	ldr	r3, [r3, #0]
 8003544:	681a      	ldr	r2, [r3, #0]
 8003546:	687b      	ldr	r3, [r7, #4]
 8003548:	681b      	ldr	r3, [r3, #0]
 800354a:	f022 0210 	bic.w	r2, r2, #16
 800354e:	601a      	str	r2, [r3, #0]
 8003550:	687b      	ldr	r3, [r7, #4]
 8003552:	2201      	movs	r2, #1
 8003554:	f883 2035 	strb.w	r2, [r3, #53]	@ 0x35
 8003558:	687b      	ldr	r3, [r7, #4]
 800355a:	2200      	movs	r2, #0
 800355c:	f883 2034 	strb.w	r2, [r3, #52]	@ 0x34
 8003560:	687b      	ldr	r3, [r7, #4]
 8003562:	6bdb      	ldr	r3, [r3, #60]	@ 0x3c
 8003564:	2b00      	cmp	r3, #0
 8003566:	d003      	beq.n	8003570 <HAL_DMA_IRQHandler+0x2a0>
 8003568:	687b      	ldr	r3, [r7, #4]
 800356a:	6bdb      	ldr	r3, [r3, #60]	@ 0x3c
 800356c:	6878      	ldr	r0, [r7, #4]
 800356e:	4798      	blx	r3
 8003570:	687b      	ldr	r3, [r7, #4]
 8003572:	6d5b      	ldr	r3, [r3, #84]	@ 0x54
 8003574:	2b00      	cmp	r3, #0
 8003576:	d032      	beq.n	80035de <HAL_DMA_IRQHandler+0x30e>
 8003578:	687b      	ldr	r3, [r7, #4]
 800357a:	6d5b      	ldr	r3, [r3, #84]	@ 0x54
 800357c:	f003 0301 	and.w	r3, r3, #1
 8003580:	2b00      	cmp	r3, #0
 8003582:	d022      	beq.n	80035ca <HAL_DMA_IRQHandler+0x2fa>
 8003584:	687b      	ldr	r3, [r7, #4]
 8003586:	2205      	movs	r2, #5
 8003588:	f883 2035 	strb.w	r2, [r3, #53]	@ 0x35
 800358c:	687b      	ldr	r3, [r7, #4]
 800358e:	681b      	ldr	r3, [r3, #0]
 8003590:	681a      	ldr	r2, [r3, #0]
 8003592:	687b      	ldr	r3, [r7, #4]
 8003594:	681b      	ldr	r3, [r3, #0]
 8003596:	f022 0201 	bic.w	r2, r2, #1
 800359a:	601a      	str	r2, [r3, #0]
 800359c:	68bb      	ldr	r3, [r7, #8]
 800359e:	3301      	adds	r3, #1
 80035a0:	60bb      	str	r3, [r7, #8]
 80035a2:	697a      	ldr	r2, [r7, #20]
 80035a4:	429a      	cmp	r2, r3
 80035a6:	d307      	bcc.n	80035b8 <HAL_DMA_IRQHandler+0x2e8>
 80035a8:	687b      	ldr	r3, [r7, #4]
 80035aa:	681b      	ldr	r3, [r3, #0]
 80035ac:	681b      	ldr	r3, [r3, #0]
 80035ae:	f003 0301 	and.w	r3, r3, #1
 80035b2:	2b00      	cmp	r3, #0
 80035b4:	d1f2      	bne.n	800359c <HAL_DMA_IRQHandler+0x2cc>
 80035b6:	e000      	b.n	80035ba <HAL_DMA_IRQHandler+0x2ea>
 80035b8:	bf00      	nop
 80035ba:	687b      	ldr	r3, [r7, #4]
 80035bc:	2201      	movs	r2, #1
 80035be:	f883 2035 	strb.w	r2, [r3, #53]	@ 0x35
 80035c2:	687b      	ldr	r3, [r7, #4]
 80035c4:	2200      	movs	r2, #0
 80035c6:	f883 2034 	strb.w	r2, [r3, #52]	@ 0x34
 80035ca:	687b      	ldr	r3, [r7, #4]
 80035cc:	6cdb      	ldr	r3, [r3, #76]	@ 0x4c
 80035ce:	2b00      	cmp	r3, #0
 80035d0:	d005      	beq.n	80035de <HAL_DMA_IRQHandler+0x30e>
 80035d2:	687b      	ldr	r3, [r7, #4]
 80035d4:	6cdb      	ldr	r3, [r3, #76]	@ 0x4c
 80035d6:	6878      	ldr	r0, [r7, #4]
 80035d8:	4798      	blx	r3
 80035da:	e000      	b.n	80035de <HAL_DMA_IRQHandler+0x30e>
 80035dc:	bf00      	nop
 80035de:	3718      	adds	r7, #24
 80035e0:	46bd      	mov	sp, r7
 80035e2:	bd80      	pop	{r7, pc}

080035e4 <DMA_SetConfig>:
 80035e4:	b480      	push	{r7}
 80035e6:	b085      	sub	sp, #20
 80035e8:	af00      	add	r7, sp, #0
 80035ea:	60f8      	str	r0, [r7, #12]
 80035ec:	60b9      	str	r1, [r7, #8]
 80035ee:	607a      	str	r2, [r7, #4]
 80035f0:	603b      	str	r3, [r7, #0]
 80035f2:	68fb      	ldr	r3, [r7, #12]
 80035f4:	681b      	ldr	r3, [r3, #0]
 80035f6:	681a      	ldr	r2, [r3, #0]
 80035f8:	68fb      	ldr	r3, [r7, #12]
 80035fa:	681b      	ldr	r3, [r3, #0]
 80035fc:	f422 2280 	bic.w	r2, r2, #262144	@ 0x40000
 8003600:	601a      	str	r2, [r3, #0]
 8003602:	68fb      	ldr	r3, [r7, #12]
 8003604:	681b      	ldr	r3, [r3, #0]
 8003606:	683a      	ldr	r2, [r7, #0]
 8003608:	605a      	str	r2, [r3, #4]
 800360a:	68fb      	ldr	r3, [r7, #12]
 800360c:	689b      	ldr	r3, [r3, #8]
 800360e:	2b40      	cmp	r3, #64	@ 0x40
 8003610:	d108      	bne.n	8003624 <DMA_SetConfig+0x40>
 8003612:	68fb      	ldr	r3, [r7, #12]
 8003614:	681b      	ldr	r3, [r3, #0]
 8003616:	687a      	ldr	r2, [r7, #4]
 8003618:	609a      	str	r2, [r3, #8]
 800361a:	68fb      	ldr	r3, [r7, #12]
 800361c:	681b      	ldr	r3, [r3, #0]
 800361e:	68ba      	ldr	r2, [r7, #8]
 8003620:	60da      	str	r2, [r3, #12]
 8003622:	e007      	b.n	8003634 <DMA_SetConfig+0x50>
 8003624:	68fb      	ldr	r3, [r7, #12]
 8003626:	681b      	ldr	r3, [r3, #0]
 8003628:	68ba      	ldr	r2, [r7, #8]
 800362a:	609a      	str	r2, [r3, #8]
 800362c:	68fb      	ldr	r3, [r7, #12]
 800362e:	681b      	ldr	r3, [r3, #0]
 8003630:	687a      	ldr	r2, [r7, #4]
 8003632:	60da      	str	r2, [r3, #12]
 8003634:	bf00      	nop
 8003636:	3714      	adds	r7, #20
 8003638:	46bd      	mov	sp, r7
 800363a:	f85d 7b04 	ldr.w	r7, [sp], #4
 800363e:	4770      	bx	lr

08003640 <DMA_CalcBaseAndBitshift>:
 8003640:	b480      	push	{r7}
 8003642:	b085      	sub	sp, #20
 8003644:	af00      	add	r7, sp, #0
 8003646:	6078      	str	r0, [r7, #4]
 8003648:	687b      	ldr	r3, [r7, #4]
 800364a:	681b      	ldr	r3, [r3, #0]
 800364c:	b2db      	uxtb	r3, r3
 800364e:	3b10      	subs	r3, #16
 8003650:	4a14      	ldr	r2, [pc, #80]	@ (80036a4 <DMA_CalcBaseAndBitshift+0x64>)
 8003652:	fba2 2303 	umull	r2, r3, r2, r3
 8003656:	091b      	lsrs	r3, r3, #4
 8003658:	60fb      	str	r3, [r7, #12]
 800365a:	4a13      	ldr	r2, [pc, #76]	@ (80036a8 <DMA_CalcBaseAndBitshift+0x68>)
 800365c:	68fb      	ldr	r3, [r7, #12]
 800365e:	4413      	add	r3, r2
 8003660:	781b      	ldrb	r3, [r3, #0]
 8003662:	461a      	mov	r2, r3
 8003664:	687b      	ldr	r3, [r7, #4]
 8003666:	65da      	str	r2, [r3, #92]	@ 0x5c
 8003668:	68fb      	ldr	r3, [r7, #12]
 800366a:	2b03      	cmp	r3, #3
 800366c:	d909      	bls.n	8003682 <DMA_CalcBaseAndBitshift+0x42>
 800366e:	687b      	ldr	r3, [r7, #4]
 8003670:	681b      	ldr	r3, [r3, #0]
 8003672:	f423 737f 	bic.w	r3, r3, #1020	@ 0x3fc
 8003676:	f023 0303 	bic.w	r3, r3, #3
 800367a:	1d1a      	adds	r2, r3, #4
 800367c:	687b      	ldr	r3, [r7, #4]
 800367e:	659a      	str	r2, [r3, #88]	@ 0x58
 8003680:	e007      	b.n	8003692 <DMA_CalcBaseAndBitshift+0x52>
 8003682:	687b      	ldr	r3, [r7, #4]
 8003684:	681b      	ldr	r3, [r3, #0]
 8003686:	f423 737f 	bic.w	r3, r3, #1020	@ 0x3fc
 800368a:	f023 0303 	bic.w	r3, r3, #3
 800368e:	687a      	ldr	r2, [r7, #4]
 8003690:	6593      	str	r3, [r2, #88]	@ 0x58
 8003692:	687b      	ldr	r3, [r7, #4]
 8003694:	6d9b      	ldr	r3, [r3, #88]	@ 0x58
 8003696:	4618      	mov	r0, r3
 8003698:	3714      	adds	r7, #20
 800369a:	46bd      	mov	sp, r7
 800369c:	f85d 7b04 	ldr.w	r7, [sp], #4
 80036a0:	4770      	bx	lr
 80036a2:	bf00      	nop
 80036a4:	aaaaaaab 	.word	0xaaaaaaab
 80036a8:	0800b2f4 	.word	0x0800b2f4

080036ac <DMA_CheckFifoParam>:
 80036ac:	b480      	push	{r7}
 80036ae:	b085      	sub	sp, #20
 80036b0:	af00      	add	r7, sp, #0
 80036b2:	6078      	str	r0, [r7, #4]
 80036b4:	2300      	movs	r3, #0
 80036b6:	73fb      	strb	r3, [r7, #15]
 80036b8:	687b      	ldr	r3, [r7, #4]
 80036ba:	6a9b      	ldr	r3, [r3, #40]	@ 0x28
 80036bc:	60bb      	str	r3, [r7, #8]
 80036be:	687b      	ldr	r3, [r7, #4]
 80036c0:	699b      	ldr	r3, [r3, #24]
 80036c2:	2b00      	cmp	r3, #0
 80036c4:	d11f      	bne.n	8003706 <DMA_CheckFifoParam+0x5a>
 80036c6:	68bb      	ldr	r3, [r7, #8]
 80036c8:	2b03      	cmp	r3, #3
 80036ca:	d856      	bhi.n	800377a <DMA_CheckFifoParam+0xce>
 80036cc:	a201      	add	r2, pc, #4	@ (adr r2, 80036d4 <DMA_CheckFifoParam+0x28>)
 80036ce:	f852 f023 	ldr.w	pc, [r2, r3, lsl #2]
 80036d2:	bf00      	nop
 80036d4:	080036e5 	.word	0x080036e5
 80036d8:	080036f7 	.word	0x080036f7
 80036dc:	080036e5 	.word	0x080036e5
 80036e0:	0800377b 	.word	0x0800377b
 80036e4:	687b      	ldr	r3, [r7, #4]
 80036e6:	6adb      	ldr	r3, [r3, #44]	@ 0x2c
 80036e8:	f003 7380 	and.w	r3, r3, #16777216	@ 0x1000000
 80036ec:	2b00      	cmp	r3, #0
 80036ee:	d046      	beq.n	800377e <DMA_CheckFifoParam+0xd2>
 80036f0:	2301      	movs	r3, #1
 80036f2:	73fb      	strb	r3, [r7, #15]
 80036f4:	e043      	b.n	800377e <DMA_CheckFifoParam+0xd2>
 80036f6:	687b      	ldr	r3, [r7, #4]
 80036f8:	6adb      	ldr	r3, [r3, #44]	@ 0x2c
 80036fa:	f1b3 7fc0 	cmp.w	r3, #25165824	@ 0x1800000
 80036fe:	d140      	bne.n	8003782 <DMA_CheckFifoParam+0xd6>
 8003700:	2301      	movs	r3, #1
 8003702:	73fb      	strb	r3, [r7, #15]
 8003704:	e03d      	b.n	8003782 <DMA_CheckFifoParam+0xd6>
 8003706:	687b      	ldr	r3, [r7, #4]
 8003708:	699b      	ldr	r3, [r3, #24]
 800370a:	f5b3 5f00 	cmp.w	r3, #8192	@ 0x2000
 800370e:	d121      	bne.n	8003754 <DMA_CheckFifoParam+0xa8>
 8003710:	68bb      	ldr	r3, [r7, #8]
 8003712:	2b03      	cmp	r3, #3
 8003714:	d837      	bhi.n	8003786 <DMA_CheckFifoParam+0xda>
 8003716:	a201      	add	r2, pc, #4	@ (adr r2, 800371c <DMA_CheckFifoParam+0x70>)
 8003718:	f852 f023 	ldr.w	pc, [r2, r3, lsl #2]
 800371c:	0800372d 	.word	0x0800372d
 8003720:	08003733 	.word	0x08003733
 8003724:	0800372d 	.word	0x0800372d
 8003728:	08003745 	.word	0x08003745
 800372c:	2301      	movs	r3, #1
 800372e:	73fb      	strb	r3, [r7, #15]
 8003730:	e030      	b.n	8003794 <DMA_CheckFifoParam+0xe8>
 8003732:	687b      	ldr	r3, [r7, #4]
 8003734:	6adb      	ldr	r3, [r3, #44]	@ 0x2c
 8003736:	f003 7380 	and.w	r3, r3, #16777216	@ 0x1000000
 800373a:	2b00      	cmp	r3, #0
 800373c:	d025      	beq.n	800378a <DMA_CheckFifoParam+0xde>
 800373e:	2301      	movs	r3, #1
 8003740:	73fb      	strb	r3, [r7, #15]
 8003742:	e022      	b.n	800378a <DMA_CheckFifoParam+0xde>
 8003744:	687b      	ldr	r3, [r7, #4]
 8003746:	6adb      	ldr	r3, [r3, #44]	@ 0x2c
 8003748:	f1b3 7fc0 	cmp.w	r3, #25165824	@ 0x1800000
 800374c:	d11f      	bne.n	800378e <DMA_CheckFifoParam+0xe2>
 800374e:	2301      	movs	r3, #1
 8003750:	73fb      	strb	r3, [r7, #15]
 8003752:	e01c      	b.n	800378e <DMA_CheckFifoParam+0xe2>
 8003754:	68bb      	ldr	r3, [r7, #8]
 8003756:	2b02      	cmp	r3, #2
 8003758:	d903      	bls.n	8003762 <DMA_CheckFifoParam+0xb6>
 800375a:	68bb      	ldr	r3, [r7, #8]
 800375c:	2b03      	cmp	r3, #3
 800375e:	d003      	beq.n	8003768 <DMA_CheckFifoParam+0xbc>
 8003760:	e018      	b.n	8003794 <DMA_CheckFifoParam+0xe8>
 8003762:	2301      	movs	r3, #1
 8003764:	73fb      	strb	r3, [r7, #15]
 8003766:	e015      	b.n	8003794 <DMA_CheckFifoParam+0xe8>
 8003768:	687b      	ldr	r3, [r7, #4]
 800376a:	6adb      	ldr	r3, [r3, #44]	@ 0x2c
 800376c:	f003 7380 	and.w	r3, r3, #16777216	@ 0x1000000
 8003770:	2b00      	cmp	r3, #0
 8003772:	d00e      	beq.n	8003792 <DMA_CheckFifoParam+0xe6>
 8003774:	2301      	movs	r3, #1
 8003776:	73fb      	strb	r3, [r7, #15]
 8003778:	e00b      	b.n	8003792 <DMA_CheckFifoParam+0xe6>
 800377a:	bf00      	nop
 800377c:	e00a      	b.n	8003794 <DMA_CheckFifoParam+0xe8>
 800377e:	bf00      	nop
 8003780:	e008      	b.n	8003794 <DMA_CheckFifoParam+0xe8>
 8003782:	bf00      	nop
 8003784:	e006      	b.n	8003794 <DMA_CheckFifoParam+0xe8>
 8003786:	bf00      	nop
 8003788:	e004      	b.n	8003794 <DMA_CheckFifoParam+0xe8>
 800378a:	bf00      	nop
 800378c:	e002      	b.n	8003794 <DMA_CheckFifoParam+0xe8>
 800378e:	bf00      	nop
 8003790:	e000      	b.n	8003794 <DMA_CheckFifoParam+0xe8>
 8003792:	bf00      	nop
 8003794:	7bfb      	ldrb	r3, [r7, #15]
 8003796:	4618      	mov	r0, r3
 8003798:	3714      	adds	r7, #20
 800379a:	46bd      	mov	sp, r7
 800379c:	f85d 7b04 	ldr.w	r7, [sp], #4
 80037a0:	4770      	bx	lr
 80037a2:	bf00      	nop

080037a4 <HAL_GPIO_Init>:
 80037a4:	b480      	push	{r7}
 80037a6:	b089      	sub	sp, #36	@ 0x24
 80037a8:	af00      	add	r7, sp, #0
 80037aa:	6078      	str	r0, [r7, #4]
 80037ac:	6039      	str	r1, [r7, #0]
 80037ae:	2300      	movs	r3, #0
 80037b0:	617b      	str	r3, [r7, #20]
 80037b2:	2300      	movs	r3, #0
 80037b4:	613b      	str	r3, [r7, #16]
 80037b6:	2300      	movs	r3, #0
 80037b8:	61bb      	str	r3, [r7, #24]
 80037ba:	2300      	movs	r3, #0
 80037bc:	61fb      	str	r3, [r7, #28]
 80037be:	e16b      	b.n	8003a98 <HAL_GPIO_Init+0x2f4>
 80037c0:	2201      	movs	r2, #1
 80037c2:	69fb      	ldr	r3, [r7, #28]
 80037c4:	fa02 f303 	lsl.w	r3, r2, r3
 80037c8:	617b      	str	r3, [r7, #20]
 80037ca:	683b      	ldr	r3, [r7, #0]
 80037cc:	681b      	ldr	r3, [r3, #0]
 80037ce:	697a      	ldr	r2, [r7, #20]
 80037d0:	4013      	ands	r3, r2
 80037d2:	613b      	str	r3, [r7, #16]
 80037d4:	693a      	ldr	r2, [r7, #16]
 80037d6:	697b      	ldr	r3, [r7, #20]
 80037d8:	429a      	cmp	r2, r3
 80037da:	f040 815a 	bne.w	8003a92 <HAL_GPIO_Init+0x2ee>
 80037de:	683b      	ldr	r3, [r7, #0]
 80037e0:	685b      	ldr	r3, [r3, #4]
 80037e2:	f003 0303 	and.w	r3, r3, #3
 80037e6:	2b01      	cmp	r3, #1
 80037e8:	d005      	beq.n	80037f6 <HAL_GPIO_Init+0x52>
 80037ea:	683b      	ldr	r3, [r7, #0]
 80037ec:	685b      	ldr	r3, [r3, #4]
 80037ee:	f003 0303 	and.w	r3, r3, #3
 80037f2:	2b02      	cmp	r3, #2
 80037f4:	d130      	bne.n	8003858 <HAL_GPIO_Init+0xb4>
 80037f6:	687b      	ldr	r3, [r7, #4]
 80037f8:	689b      	ldr	r3, [r3, #8]
 80037fa:	61bb      	str	r3, [r7, #24]
 80037fc:	69fb      	ldr	r3, [r7, #28]
 80037fe:	005b      	lsls	r3, r3, #1
 8003800:	2203      	movs	r2, #3
 8003802:	fa02 f303 	lsl.w	r3, r2, r3
 8003806:	43db      	mvns	r3, r3
 8003808:	69ba      	ldr	r2, [r7, #24]
 800380a:	4013      	ands	r3, r2
 800380c:	61bb      	str	r3, [r7, #24]
 800380e:	683b      	ldr	r3, [r7, #0]
 8003810:	68da      	ldr	r2, [r3, #12]
 8003812:	69fb      	ldr	r3, [r7, #28]
 8003814:	005b      	lsls	r3, r3, #1
 8003816:	fa02 f303 	lsl.w	r3, r2, r3
 800381a:	69ba      	ldr	r2, [r7, #24]
 800381c:	4313      	orrs	r3, r2
 800381e:	61bb      	str	r3, [r7, #24]
 8003820:	687b      	ldr	r3, [r7, #4]
 8003822:	69ba      	ldr	r2, [r7, #24]
 8003824:	609a      	str	r2, [r3, #8]
 8003826:	687b      	ldr	r3, [r7, #4]
 8003828:	685b      	ldr	r3, [r3, #4]
 800382a:	61bb      	str	r3, [r7, #24]
 800382c:	2201      	movs	r2, #1
 800382e:	69fb      	ldr	r3, [r7, #28]
 8003830:	fa02 f303 	lsl.w	r3, r2, r3
 8003834:	43db      	mvns	r3, r3
 8003836:	69ba      	ldr	r2, [r7, #24]
 8003838:	4013      	ands	r3, r2
 800383a:	61bb      	str	r3, [r7, #24]
 800383c:	683b      	ldr	r3, [r7, #0]
 800383e:	685b      	ldr	r3, [r3, #4]
 8003840:	091b      	lsrs	r3, r3, #4
 8003842:	f003 0201 	and.w	r2, r3, #1
 8003846:	69fb      	ldr	r3, [r7, #28]
 8003848:	fa02 f303 	lsl.w	r3, r2, r3
 800384c:	69ba      	ldr	r2, [r7, #24]
 800384e:	4313      	orrs	r3, r2
 8003850:	61bb      	str	r3, [r7, #24]
 8003852:	687b      	ldr	r3, [r7, #4]
 8003854:	69ba      	ldr	r2, [r7, #24]
 8003856:	605a      	str	r2, [r3, #4]
 8003858:	683b      	ldr	r3, [r7, #0]
 800385a:	685b      	ldr	r3, [r3, #4]
 800385c:	f003 0303 	and.w	r3, r3, #3
 8003860:	2b03      	cmp	r3, #3
 8003862:	d017      	beq.n	8003894 <HAL_GPIO_Init+0xf0>
 8003864:	687b      	ldr	r3, [r7, #4]
 8003866:	68db      	ldr	r3, [r3, #12]
 8003868:	61bb      	str	r3, [r7, #24]
 800386a:	69fb      	ldr	r3, [r7, #28]
 800386c:	005b      	lsls	r3, r3, #1
 800386e:	2203      	movs	r2, #3
 8003870:	fa02 f303 	lsl.w	r3, r2, r3
 8003874:	43db      	mvns	r3, r3
 8003876:	69ba      	ldr	r2, [r7, #24]
 8003878:	4013      	ands	r3, r2
 800387a:	61bb      	str	r3, [r7, #24]
 800387c:	683b      	ldr	r3, [r7, #0]
 800387e:	689a      	ldr	r2, [r3, #8]
 8003880:	69fb      	ldr	r3, [r7, #28]
 8003882:	005b      	lsls	r3, r3, #1
 8003884:	fa02 f303 	lsl.w	r3, r2, r3
 8003888:	69ba      	ldr	r2, [r7, #24]
 800388a:	4313      	orrs	r3, r2
 800388c:	61bb      	str	r3, [r7, #24]
 800388e:	687b      	ldr	r3, [r7, #4]
 8003890:	69ba      	ldr	r2, [r7, #24]
 8003892:	60da      	str	r2, [r3, #12]
 8003894:	683b      	ldr	r3, [r7, #0]
 8003896:	685b      	ldr	r3, [r3, #4]
 8003898:	f003 0303 	and.w	r3, r3, #3
 800389c:	2b02      	cmp	r3, #2
 800389e:	d123      	bne.n	80038e8 <HAL_GPIO_Init+0x144>
 80038a0:	69fb      	ldr	r3, [r7, #28]
 80038a2:	08da      	lsrs	r2, r3, #3
 80038a4:	687b      	ldr	r3, [r7, #4]
 80038a6:	3208      	adds	r2, #8
 80038a8:	f853 3022 	ldr.w	r3, [r3, r2, lsl #2]
 80038ac:	61bb      	str	r3, [r7, #24]
 80038ae:	69fb      	ldr	r3, [r7, #28]
 80038b0:	f003 0307 	and.w	r3, r3, #7
 80038b4:	009b      	lsls	r3, r3, #2
 80038b6:	220f      	movs	r2, #15
 80038b8:	fa02 f303 	lsl.w	r3, r2, r3
 80038bc:	43db      	mvns	r3, r3
 80038be:	69ba      	ldr	r2, [r7, #24]
 80038c0:	4013      	ands	r3, r2
 80038c2:	61bb      	str	r3, [r7, #24]
 80038c4:	683b      	ldr	r3, [r7, #0]
 80038c6:	691a      	ldr	r2, [r3, #16]
 80038c8:	69fb      	ldr	r3, [r7, #28]
 80038ca:	f003 0307 	and.w	r3, r3, #7
 80038ce:	009b      	lsls	r3, r3, #2
 80038d0:	fa02 f303 	lsl.w	r3, r2, r3
 80038d4:	69ba      	ldr	r2, [r7, #24]
 80038d6:	4313      	orrs	r3, r2
 80038d8:	61bb      	str	r3, [r7, #24]
 80038da:	69fb      	ldr	r3, [r7, #28]
 80038dc:	08da      	lsrs	r2, r3, #3
 80038de:	687b      	ldr	r3, [r7, #4]
 80038e0:	3208      	adds	r2, #8
 80038e2:	69b9      	ldr	r1, [r7, #24]
 80038e4:	f843 1022 	str.w	r1, [r3, r2, lsl #2]
 80038e8:	687b      	ldr	r3, [r7, #4]
 80038ea:	681b      	ldr	r3, [r3, #0]
 80038ec:	61bb      	str	r3, [r7, #24]
 80038ee:	69fb      	ldr	r3, [r7, #28]
 80038f0:	005b      	lsls	r3, r3, #1
 80038f2:	2203      	movs	r2, #3
 80038f4:	fa02 f303 	lsl.w	r3, r2, r3
 80038f8:	43db      	mvns	r3, r3
 80038fa:	69ba      	ldr	r2, [r7, #24]
 80038fc:	4013      	ands	r3, r2
 80038fe:	61bb      	str	r3, [r7, #24]
 8003900:	683b      	ldr	r3, [r7, #0]
 8003902:	685b      	ldr	r3, [r3, #4]
 8003904:	f003 0203 	and.w	r2, r3, #3
 8003908:	69fb      	ldr	r3, [r7, #28]
 800390a:	005b      	lsls	r3, r3, #1
 800390c:	fa02 f303 	lsl.w	r3, r2, r3
 8003910:	69ba      	ldr	r2, [r7, #24]
 8003912:	4313      	orrs	r3, r2
 8003914:	61bb      	str	r3, [r7, #24]
 8003916:	687b      	ldr	r3, [r7, #4]
 8003918:	69ba      	ldr	r2, [r7, #24]
 800391a:	601a      	str	r2, [r3, #0]
 800391c:	683b      	ldr	r3, [r7, #0]
 800391e:	685b      	ldr	r3, [r3, #4]
 8003920:	f403 3340 	and.w	r3, r3, #196608	@ 0x30000
 8003924:	2b00      	cmp	r3, #0
 8003926:	f000 80b4 	beq.w	8003a92 <HAL_GPIO_Init+0x2ee>
 800392a:	2300      	movs	r3, #0
 800392c:	60fb      	str	r3, [r7, #12]
 800392e:	4b60      	ldr	r3, [pc, #384]	@ (8003ab0 <HAL_GPIO_Init+0x30c>)
 8003930:	6c5b      	ldr	r3, [r3, #68]	@ 0x44
 8003932:	4a5f      	ldr	r2, [pc, #380]	@ (8003ab0 <HAL_GPIO_Init+0x30c>)
 8003934:	f443 4380 	orr.w	r3, r3, #16384	@ 0x4000
 8003938:	6453      	str	r3, [r2, #68]	@ 0x44
 800393a:	4b5d      	ldr	r3, [pc, #372]	@ (8003ab0 <HAL_GPIO_Init+0x30c>)
 800393c:	6c5b      	ldr	r3, [r3, #68]	@ 0x44
 800393e:	f403 4380 	and.w	r3, r3, #16384	@ 0x4000
 8003942:	60fb      	str	r3, [r7, #12]
 8003944:	68fb      	ldr	r3, [r7, #12]
 8003946:	4a5b      	ldr	r2, [pc, #364]	@ (8003ab4 <HAL_GPIO_Init+0x310>)
 8003948:	69fb      	ldr	r3, [r7, #28]
 800394a:	089b      	lsrs	r3, r3, #2
 800394c:	3302      	adds	r3, #2
 800394e:	f852 3023 	ldr.w	r3, [r2, r3, lsl #2]
 8003952:	61bb      	str	r3, [r7, #24]
 8003954:	69fb      	ldr	r3, [r7, #28]
 8003956:	f003 0303 	and.w	r3, r3, #3
 800395a:	009b      	lsls	r3, r3, #2
 800395c:	220f      	movs	r2, #15
 800395e:	fa02 f303 	lsl.w	r3, r2, r3
 8003962:	43db      	mvns	r3, r3
 8003964:	69ba      	ldr	r2, [r7, #24]
 8003966:	4013      	ands	r3, r2
 8003968:	61bb      	str	r3, [r7, #24]
 800396a:	687b      	ldr	r3, [r7, #4]
 800396c:	4a52      	ldr	r2, [pc, #328]	@ (8003ab8 <HAL_GPIO_Init+0x314>)
 800396e:	4293      	cmp	r3, r2
 8003970:	d02b      	beq.n	80039ca <HAL_GPIO_Init+0x226>
 8003972:	687b      	ldr	r3, [r7, #4]
 8003974:	4a51      	ldr	r2, [pc, #324]	@ (8003abc <HAL_GPIO_Init+0x318>)
 8003976:	4293      	cmp	r3, r2
 8003978:	d025      	beq.n	80039c6 <HAL_GPIO_Init+0x222>
 800397a:	687b      	ldr	r3, [r7, #4]
 800397c:	4a50      	ldr	r2, [pc, #320]	@ (8003ac0 <HAL_GPIO_Init+0x31c>)
 800397e:	4293      	cmp	r3, r2
 8003980:	d01f      	beq.n	80039c2 <HAL_GPIO_Init+0x21e>
 8003982:	687b      	ldr	r3, [r7, #4]
 8003984:	4a4f      	ldr	r2, [pc, #316]	@ (8003ac4 <HAL_GPIO_Init+0x320>)
 8003986:	4293      	cmp	r3, r2
 8003988:	d019      	beq.n	80039be <HAL_GPIO_Init+0x21a>
 800398a:	687b      	ldr	r3, [r7, #4]
 800398c:	4a4e      	ldr	r2, [pc, #312]	@ (8003ac8 <HAL_GPIO_Init+0x324>)
 800398e:	4293      	cmp	r3, r2
 8003990:	d013      	beq.n	80039ba <HAL_GPIO_Init+0x216>
 8003992:	687b      	ldr	r3, [r7, #4]
 8003994:	4a4d      	ldr	r2, [pc, #308]	@ (8003acc <HAL_GPIO_Init+0x328>)
 8003996:	4293      	cmp	r3, r2
 8003998:	d00d      	beq.n	80039b6 <HAL_GPIO_Init+0x212>
 800399a:	687b      	ldr	r3, [r7, #4]
 800399c:	4a4c      	ldr	r2, [pc, #304]	@ (8003ad0 <HAL_GPIO_Init+0x32c>)
 800399e:	4293      	cmp	r3, r2
 80039a0:	d007      	beq.n	80039b2 <HAL_GPIO_Init+0x20e>
 80039a2:	687b      	ldr	r3, [r7, #4]
 80039a4:	4a4b      	ldr	r2, [pc, #300]	@ (8003ad4 <HAL_GPIO_Init+0x330>)
 80039a6:	4293      	cmp	r3, r2
 80039a8:	d101      	bne.n	80039ae <HAL_GPIO_Init+0x20a>
 80039aa:	2307      	movs	r3, #7
 80039ac:	e00e      	b.n	80039cc <HAL_GPIO_Init+0x228>
 80039ae:	2308      	movs	r3, #8
 80039b0:	e00c      	b.n	80039cc <HAL_GPIO_Init+0x228>
 80039b2:	2306      	movs	r3, #6
 80039b4:	e00a      	b.n	80039cc <HAL_GPIO_Init+0x228>
 80039b6:	2305      	movs	r3, #5
 80039b8:	e008      	b.n	80039cc <HAL_GPIO_Init+0x228>
 80039ba:	2304      	movs	r3, #4
 80039bc:	e006      	b.n	80039cc <HAL_GPIO_Init+0x228>
 80039be:	2303      	movs	r3, #3
 80039c0:	e004      	b.n	80039cc <HAL_GPIO_Init+0x228>
 80039c2:	2302      	movs	r3, #2
 80039c4:	e002      	b.n	80039cc <HAL_GPIO_Init+0x228>
 80039c6:	2301      	movs	r3, #1
 80039c8:	e000      	b.n	80039cc <HAL_GPIO_Init+0x228>
 80039ca:	2300      	movs	r3, #0
 80039cc:	69fa      	ldr	r2, [r7, #28]
 80039ce:	f002 0203 	and.w	r2, r2, #3
 80039d2:	0092      	lsls	r2, r2, #2
 80039d4:	4093      	lsls	r3, r2
 80039d6:	69ba      	ldr	r2, [r7, #24]
 80039d8:	4313      	orrs	r3, r2
 80039da:	61bb      	str	r3, [r7, #24]
 80039dc:	4935      	ldr	r1, [pc, #212]	@ (8003ab4 <HAL_GPIO_Init+0x310>)
 80039de:	69fb      	ldr	r3, [r7, #28]
 80039e0:	089b      	lsrs	r3, r3, #2
 80039e2:	3302      	adds	r3, #2
 80039e4:	69ba      	ldr	r2, [r7, #24]
 80039e6:	f841 2023 	str.w	r2, [r1, r3, lsl #2]
 80039ea:	4b3b      	ldr	r3, [pc, #236]	@ (8003ad8 <HAL_GPIO_Init+0x334>)
 80039ec:	681b      	ldr	r3, [r3, #0]
 80039ee:	61bb      	str	r3, [r7, #24]
 80039f0:	693b      	ldr	r3, [r7, #16]
 80039f2:	43db      	mvns	r3, r3
 80039f4:	69ba      	ldr	r2, [r7, #24]
 80039f6:	4013      	ands	r3, r2
 80039f8:	61bb      	str	r3, [r7, #24]
 80039fa:	683b      	ldr	r3, [r7, #0]
 80039fc:	685b      	ldr	r3, [r3, #4]
 80039fe:	f403 3380 	and.w	r3, r3, #65536	@ 0x10000
 8003a02:	2b00      	cmp	r3, #0
 8003a04:	d003      	beq.n	8003a0e <HAL_GPIO_Init+0x26a>
 8003a06:	69ba      	ldr	r2, [r7, #24]
 8003a08:	693b      	ldr	r3, [r7, #16]
 8003a0a:	4313      	orrs	r3, r2
 8003a0c:	61bb      	str	r3, [r7, #24]
 8003a0e:	4a32      	ldr	r2, [pc, #200]	@ (8003ad8 <HAL_GPIO_Init+0x334>)
 8003a10:	69bb      	ldr	r3, [r7, #24]
 8003a12:	6013      	str	r3, [r2, #0]
 8003a14:	4b30      	ldr	r3, [pc, #192]	@ (8003ad8 <HAL_GPIO_Init+0x334>)
 8003a16:	685b      	ldr	r3, [r3, #4]
 8003a18:	61bb      	str	r3, [r7, #24]
 8003a1a:	693b      	ldr	r3, [r7, #16]
 8003a1c:	43db      	mvns	r3, r3
 8003a1e:	69ba      	ldr	r2, [r7, #24]
 8003a20:	4013      	ands	r3, r2
 8003a22:	61bb      	str	r3, [r7, #24]
 8003a24:	683b      	ldr	r3, [r7, #0]
 8003a26:	685b      	ldr	r3, [r3, #4]
 8003a28:	f403 3300 	and.w	r3, r3, #131072	@ 0x20000
 8003a2c:	2b00      	cmp	r3, #0
 8003a2e:	d003      	beq.n	8003a38 <HAL_GPIO_Init+0x294>
 8003a30:	69ba      	ldr	r2, [r7, #24]
 8003a32:	693b      	ldr	r3, [r7, #16]
 8003a34:	4313      	orrs	r3, r2
 8003a36:	61bb      	str	r3, [r7, #24]
 8003a38:	4a27      	ldr	r2, [pc, #156]	@ (8003ad8 <HAL_GPIO_Init+0x334>)
 8003a3a:	69bb      	ldr	r3, [r7, #24]
 8003a3c:	6053      	str	r3, [r2, #4]
 8003a3e:	4b26      	ldr	r3, [pc, #152]	@ (8003ad8 <HAL_GPIO_Init+0x334>)
 8003a40:	689b      	ldr	r3, [r3, #8]
 8003a42:	61bb      	str	r3, [r7, #24]
 8003a44:	693b      	ldr	r3, [r7, #16]
 8003a46:	43db      	mvns	r3, r3
 8003a48:	69ba      	ldr	r2, [r7, #24]
 8003a4a:	4013      	ands	r3, r2
 8003a4c:	61bb      	str	r3, [r7, #24]
 8003a4e:	683b      	ldr	r3, [r7, #0]
 8003a50:	685b      	ldr	r3, [r3, #4]
 8003a52:	f403 1380 	and.w	r3, r3, #1048576	@ 0x100000
 8003a56:	2b00      	cmp	r3, #0
 8003a58:	d003      	beq.n	8003a62 <HAL_GPIO_Init+0x2be>
 8003a5a:	69ba      	ldr	r2, [r7, #24]
 8003a5c:	693b      	ldr	r3, [r7, #16]
 8003a5e:	4313      	orrs	r3, r2
 8003a60:	61bb      	str	r3, [r7, #24]
 8003a62:	4a1d      	ldr	r2, [pc, #116]	@ (8003ad8 <HAL_GPIO_Init+0x334>)
 8003a64:	69bb      	ldr	r3, [r7, #24]
 8003a66:	6093      	str	r3, [r2, #8]
 8003a68:	4b1b      	ldr	r3, [pc, #108]	@ (8003ad8 <HAL_GPIO_Init+0x334>)
 8003a6a:	68db      	ldr	r3, [r3, #12]
 8003a6c:	61bb      	str	r3, [r7, #24]
 8003a6e:	693b      	ldr	r3, [r7, #16]
 8003a70:	43db      	mvns	r3, r3
 8003a72:	69ba      	ldr	r2, [r7, #24]
 8003a74:	4013      	ands	r3, r2
 8003a76:	61bb      	str	r3, [r7, #24]
 8003a78:	683b      	ldr	r3, [r7, #0]
 8003a7a:	685b      	ldr	r3, [r3, #4]
 8003a7c:	f403 1300 	and.w	r3, r3, #2097152	@ 0x200000
 8003a80:	2b00      	cmp	r3, #0
 8003a82:	d003      	beq.n	8003a8c <HAL_GPIO_Init+0x2e8>
 8003a84:	69ba      	ldr	r2, [r7, #24]
 8003a86:	693b      	ldr	r3, [r7, #16]
 8003a88:	4313      	orrs	r3, r2
 8003a8a:	61bb      	str	r3, [r7, #24]
 8003a8c:	4a12      	ldr	r2, [pc, #72]	@ (8003ad8 <HAL_GPIO_Init+0x334>)
 8003a8e:	69bb      	ldr	r3, [r7, #24]
 8003a90:	60d3      	str	r3, [r2, #12]
 8003a92:	69fb      	ldr	r3, [r7, #28]
 8003a94:	3301      	adds	r3, #1
 8003a96:	61fb      	str	r3, [r7, #28]
 8003a98:	69fb      	ldr	r3, [r7, #28]
 8003a9a:	2b0f      	cmp	r3, #15
 8003a9c:	f67f ae90 	bls.w	80037c0 <HAL_GPIO_Init+0x1c>
 8003aa0:	bf00      	nop
 8003aa2:	bf00      	nop
 8003aa4:	3724      	adds	r7, #36	@ 0x24
 8003aa6:	46bd      	mov	sp, r7
 8003aa8:	f85d 7b04 	ldr.w	r7, [sp], #4
 8003aac:	4770      	bx	lr
 8003aae:	bf00      	nop
 8003ab0:	40023800 	.word	0x40023800
 8003ab4:	40013800 	.word	0x40013800
 8003ab8:	40020000 	.word	0x40020000
 8003abc:	40020400 	.word	0x40020400
 8003ac0:	40020800 	.word	0x40020800
 8003ac4:	40020c00 	.word	0x40020c00
 8003ac8:	40021000 	.word	0x40021000
 8003acc:	40021400 	.word	0x40021400
 8003ad0:	40021800 	.word	0x40021800
 8003ad4:	40021c00 	.word	0x40021c00
 8003ad8:	40013c00 	.word	0x40013c00

08003adc <HAL_GPIO_WritePin>:
 8003adc:	b480      	push	{r7}
 8003ade:	b083      	sub	sp, #12
 8003ae0:	af00      	add	r7, sp, #0
 8003ae2:	6078      	str	r0, [r7, #4]
 8003ae4:	460b      	mov	r3, r1
 8003ae6:	807b      	strh	r3, [r7, #2]
 8003ae8:	4613      	mov	r3, r2
 8003aea:	707b      	strb	r3, [r7, #1]
 8003aec:	787b      	ldrb	r3, [r7, #1]
 8003aee:	2b00      	cmp	r3, #0
 8003af0:	d003      	beq.n	8003afa <HAL_GPIO_WritePin+0x1e>
 8003af2:	887a      	ldrh	r2, [r7, #2]
 8003af4:	687b      	ldr	r3, [r7, #4]
 8003af6:	619a      	str	r2, [r3, #24]
 8003af8:	e003      	b.n	8003b02 <HAL_GPIO_WritePin+0x26>
 8003afa:	887b      	ldrh	r3, [r7, #2]
 8003afc:	041a      	lsls	r2, r3, #16
 8003afe:	687b      	ldr	r3, [r7, #4]
 8003b00:	619a      	str	r2, [r3, #24]
 8003b02:	bf00      	nop
 8003b04:	370c      	adds	r7, #12
 8003b06:	46bd      	mov	sp, r7
 8003b08:	f85d 7b04 	ldr.w	r7, [sp], #4
 8003b0c:	4770      	bx	lr

08003b0e <HAL_GPIO_TogglePin>:
 8003b0e:	b480      	push	{r7}
 8003b10:	b085      	sub	sp, #20
 8003b12:	af00      	add	r7, sp, #0
 8003b14:	6078      	str	r0, [r7, #4]
 8003b16:	460b      	mov	r3, r1
 8003b18:	807b      	strh	r3, [r7, #2]
 8003b1a:	687b      	ldr	r3, [r7, #4]
 8003b1c:	695b      	ldr	r3, [r3, #20]
 8003b1e:	60fb      	str	r3, [r7, #12]
 8003b20:	887a      	ldrh	r2, [r7, #2]
 8003b22:	68fb      	ldr	r3, [r7, #12]
 8003b24:	4013      	ands	r3, r2
 8003b26:	041a      	lsls	r2, r3, #16
 8003b28:	68fb      	ldr	r3, [r7, #12]
 8003b2a:	43d9      	mvns	r1, r3
 8003b2c:	887b      	ldrh	r3, [r7, #2]
 8003b2e:	400b      	ands	r3, r1
 8003b30:	431a      	orrs	r2, r3
 8003b32:	687b      	ldr	r3, [r7, #4]
 8003b34:	619a      	str	r2, [r3, #24]
 8003b36:	bf00      	nop
 8003b38:	3714      	adds	r7, #20
 8003b3a:	46bd      	mov	sp, r7
 8003b3c:	f85d 7b04 	ldr.w	r7, [sp], #4
 8003b40:	4770      	bx	lr
	...

08003b44 <HAL_I2C_Init>:
 8003b44:	b580      	push	{r7, lr}
 8003b46:	b084      	sub	sp, #16
 8003b48:	af00      	add	r7, sp, #0
 8003b4a:	6078      	str	r0, [r7, #4]
 8003b4c:	687b      	ldr	r3, [r7, #4]
 8003b4e:	2b00      	cmp	r3, #0
 8003b50:	d101      	bne.n	8003b56 <HAL_I2C_Init+0x12>
 8003b52:	2301      	movs	r3, #1
 8003b54:	e12b      	b.n	8003dae <HAL_I2C_Init+0x26a>
 8003b56:	687b      	ldr	r3, [r7, #4]
 8003b58:	f893 303d 	ldrb.w	r3, [r3, #61]	@ 0x3d
 8003b5c:	b2db      	uxtb	r3, r3
 8003b5e:	2b00      	cmp	r3, #0
 8003b60:	d106      	bne.n	8003b70 <HAL_I2C_Init+0x2c>
 8003b62:	687b      	ldr	r3, [r7, #4]
 8003b64:	2200      	movs	r2, #0
 8003b66:	f883 203c 	strb.w	r2, [r3, #60]	@ 0x3c
 8003b6a:	6878      	ldr	r0, [r7, #4]
 8003b6c:	f7fd f882 	bl	8000c74 <HAL_I2C_MspInit>
 8003b70:	687b      	ldr	r3, [r7, #4]
 8003b72:	2224      	movs	r2, #36	@ 0x24
 8003b74:	f883 203d 	strb.w	r2, [r3, #61]	@ 0x3d
 8003b78:	687b      	ldr	r3, [r7, #4]
 8003b7a:	681b      	ldr	r3, [r3, #0]
 8003b7c:	681a      	ldr	r2, [r3, #0]
 8003b7e:	687b      	ldr	r3, [r7, #4]
 8003b80:	681b      	ldr	r3, [r3, #0]
 8003b82:	f022 0201 	bic.w	r2, r2, #1
 8003b86:	601a      	str	r2, [r3, #0]
 8003b88:	687b      	ldr	r3, [r7, #4]
 8003b8a:	681b      	ldr	r3, [r3, #0]
 8003b8c:	681a      	ldr	r2, [r3, #0]
 8003b8e:	687b      	ldr	r3, [r7, #4]
 8003b90:	681b      	ldr	r3, [r3, #0]
 8003b92:	f442 4200 	orr.w	r2, r2, #32768	@ 0x8000
 8003b96:	601a      	str	r2, [r3, #0]
 8003b98:	687b      	ldr	r3, [r7, #4]
 8003b9a:	681b      	ldr	r3, [r3, #0]
 8003b9c:	681a      	ldr	r2, [r3, #0]
 8003b9e:	687b      	ldr	r3, [r7, #4]
 8003ba0:	681b      	ldr	r3, [r3, #0]
 8003ba2:	f422 4200 	bic.w	r2, r2, #32768	@ 0x8000
 8003ba6:	601a      	str	r2, [r3, #0]
 8003ba8:	f000 fd80 	bl	80046ac <HAL_RCC_GetPCLK1Freq>
 8003bac:	60f8      	str	r0, [r7, #12]
 8003bae:	687b      	ldr	r3, [r7, #4]
 8003bb0:	685b      	ldr	r3, [r3, #4]
 8003bb2:	4a81      	ldr	r2, [pc, #516]	@ (8003db8 <HAL_I2C_Init+0x274>)
 8003bb4:	4293      	cmp	r3, r2
 8003bb6:	d807      	bhi.n	8003bc8 <HAL_I2C_Init+0x84>
 8003bb8:	68fb      	ldr	r3, [r7, #12]
 8003bba:	4a80      	ldr	r2, [pc, #512]	@ (8003dbc <HAL_I2C_Init+0x278>)
 8003bbc:	4293      	cmp	r3, r2
 8003bbe:	bf94      	ite	ls
 8003bc0:	2301      	movls	r3, #1
 8003bc2:	2300      	movhi	r3, #0
 8003bc4:	b2db      	uxtb	r3, r3
 8003bc6:	e006      	b.n	8003bd6 <HAL_I2C_Init+0x92>
 8003bc8:	68fb      	ldr	r3, [r7, #12]
 8003bca:	4a7d      	ldr	r2, [pc, #500]	@ (8003dc0 <HAL_I2C_Init+0x27c>)
 8003bcc:	4293      	cmp	r3, r2
 8003bce:	bf94      	ite	ls
 8003bd0:	2301      	movls	r3, #1
 8003bd2:	2300      	movhi	r3, #0
 8003bd4:	b2db      	uxtb	r3, r3
 8003bd6:	2b00      	cmp	r3, #0
 8003bd8:	d001      	beq.n	8003bde <HAL_I2C_Init+0x9a>
 8003bda:	2301      	movs	r3, #1
 8003bdc:	e0e7      	b.n	8003dae <HAL_I2C_Init+0x26a>
 8003bde:	68fb      	ldr	r3, [r7, #12]
 8003be0:	4a78      	ldr	r2, [pc, #480]	@ (8003dc4 <HAL_I2C_Init+0x280>)
 8003be2:	fba2 2303 	umull	r2, r3, r2, r3
 8003be6:	0c9b      	lsrs	r3, r3, #18
 8003be8:	60bb      	str	r3, [r7, #8]
 8003bea:	687b      	ldr	r3, [r7, #4]
 8003bec:	681b      	ldr	r3, [r3, #0]
 8003bee:	685b      	ldr	r3, [r3, #4]
 8003bf0:	f023 013f 	bic.w	r1, r3, #63	@ 0x3f
 8003bf4:	687b      	ldr	r3, [r7, #4]
 8003bf6:	681b      	ldr	r3, [r3, #0]
 8003bf8:	68ba      	ldr	r2, [r7, #8]
 8003bfa:	430a      	orrs	r2, r1
 8003bfc:	605a      	str	r2, [r3, #4]
 8003bfe:	687b      	ldr	r3, [r7, #4]
 8003c00:	681b      	ldr	r3, [r3, #0]
 8003c02:	6a1b      	ldr	r3, [r3, #32]
 8003c04:	f023 013f 	bic.w	r1, r3, #63	@ 0x3f
 8003c08:	687b      	ldr	r3, [r7, #4]
 8003c0a:	685b      	ldr	r3, [r3, #4]
 8003c0c:	4a6a      	ldr	r2, [pc, #424]	@ (8003db8 <HAL_I2C_Init+0x274>)
 8003c0e:	4293      	cmp	r3, r2
 8003c10:	d802      	bhi.n	8003c18 <HAL_I2C_Init+0xd4>
 8003c12:	68bb      	ldr	r3, [r7, #8]
 8003c14:	3301      	adds	r3, #1
 8003c16:	e009      	b.n	8003c2c <HAL_I2C_Init+0xe8>
 8003c18:	68bb      	ldr	r3, [r7, #8]
 8003c1a:	f44f 7296 	mov.w	r2, #300	@ 0x12c
 8003c1e:	fb02 f303 	mul.w	r3, r2, r3
 8003c22:	4a69      	ldr	r2, [pc, #420]	@ (8003dc8 <HAL_I2C_Init+0x284>)
 8003c24:	fba2 2303 	umull	r2, r3, r2, r3
 8003c28:	099b      	lsrs	r3, r3, #6
 8003c2a:	3301      	adds	r3, #1
 8003c2c:	687a      	ldr	r2, [r7, #4]
 8003c2e:	6812      	ldr	r2, [r2, #0]
 8003c30:	430b      	orrs	r3, r1
 8003c32:	6213      	str	r3, [r2, #32]
 8003c34:	687b      	ldr	r3, [r7, #4]
 8003c36:	681b      	ldr	r3, [r3, #0]
 8003c38:	69db      	ldr	r3, [r3, #28]
 8003c3a:	f423 424f 	bic.w	r2, r3, #52992	@ 0xcf00
 8003c3e:	f022 02ff 	bic.w	r2, r2, #255	@ 0xff
 8003c42:	687b      	ldr	r3, [r7, #4]
 8003c44:	685b      	ldr	r3, [r3, #4]
 8003c46:	495c      	ldr	r1, [pc, #368]	@ (8003db8 <HAL_I2C_Init+0x274>)
 8003c48:	428b      	cmp	r3, r1
 8003c4a:	d819      	bhi.n	8003c80 <HAL_I2C_Init+0x13c>
 8003c4c:	68fb      	ldr	r3, [r7, #12]
 8003c4e:	1e59      	subs	r1, r3, #1
 8003c50:	687b      	ldr	r3, [r7, #4]
 8003c52:	685b      	ldr	r3, [r3, #4]
 8003c54:	005b      	lsls	r3, r3, #1
 8003c56:	fbb1 f3f3 	udiv	r3, r1, r3
 8003c5a:	1c59      	adds	r1, r3, #1
 8003c5c:	f640 73fc 	movw	r3, #4092	@ 0xffc
 8003c60:	400b      	ands	r3, r1
 8003c62:	2b00      	cmp	r3, #0
 8003c64:	d00a      	beq.n	8003c7c <HAL_I2C_Init+0x138>
 8003c66:	68fb      	ldr	r3, [r7, #12]
 8003c68:	1e59      	subs	r1, r3, #1
 8003c6a:	687b      	ldr	r3, [r7, #4]
 8003c6c:	685b      	ldr	r3, [r3, #4]
 8003c6e:	005b      	lsls	r3, r3, #1
 8003c70:	fbb1 f3f3 	udiv	r3, r1, r3
 8003c74:	3301      	adds	r3, #1
 8003c76:	f3c3 030b 	ubfx	r3, r3, #0, #12
 8003c7a:	e051      	b.n	8003d20 <HAL_I2C_Init+0x1dc>
 8003c7c:	2304      	movs	r3, #4
 8003c7e:	e04f      	b.n	8003d20 <HAL_I2C_Init+0x1dc>
 8003c80:	687b      	ldr	r3, [r7, #4]
 8003c82:	689b      	ldr	r3, [r3, #8]
 8003c84:	2b00      	cmp	r3, #0
 8003c86:	d111      	bne.n	8003cac <HAL_I2C_Init+0x168>
 8003c88:	68fb      	ldr	r3, [r7, #12]
 8003c8a:	1e58      	subs	r0, r3, #1
 8003c8c:	687b      	ldr	r3, [r7, #4]
 8003c8e:	6859      	ldr	r1, [r3, #4]
 8003c90:	460b      	mov	r3, r1
 8003c92:	005b      	lsls	r3, r3, #1
 8003c94:	440b      	add	r3, r1
 8003c96:	fbb0 f3f3 	udiv	r3, r0, r3
 8003c9a:	3301      	adds	r3, #1
 8003c9c:	f3c3 030b 	ubfx	r3, r3, #0, #12
 8003ca0:	2b00      	cmp	r3, #0
 8003ca2:	bf0c      	ite	eq
 8003ca4:	2301      	moveq	r3, #1
 8003ca6:	2300      	movne	r3, #0
 8003ca8:	b2db      	uxtb	r3, r3
 8003caa:	e012      	b.n	8003cd2 <HAL_I2C_Init+0x18e>
 8003cac:	68fb      	ldr	r3, [r7, #12]
 8003cae:	1e58      	subs	r0, r3, #1
 8003cb0:	687b      	ldr	r3, [r7, #4]
 8003cb2:	6859      	ldr	r1, [r3, #4]
 8003cb4:	460b      	mov	r3, r1
 8003cb6:	009b      	lsls	r3, r3, #2
 8003cb8:	440b      	add	r3, r1
 8003cba:	0099      	lsls	r1, r3, #2
 8003cbc:	440b      	add	r3, r1
 8003cbe:	fbb0 f3f3 	udiv	r3, r0, r3
 8003cc2:	3301      	adds	r3, #1
 8003cc4:	f3c3 030b 	ubfx	r3, r3, #0, #12
 8003cc8:	2b00      	cmp	r3, #0
 8003cca:	bf0c      	ite	eq
 8003ccc:	2301      	moveq	r3, #1
 8003cce:	2300      	movne	r3, #0
 8003cd0:	b2db      	uxtb	r3, r3
 8003cd2:	2b00      	cmp	r3, #0
 8003cd4:	d001      	beq.n	8003cda <HAL_I2C_Init+0x196>
 8003cd6:	2301      	movs	r3, #1
 8003cd8:	e022      	b.n	8003d20 <HAL_I2C_Init+0x1dc>
 8003cda:	687b      	ldr	r3, [r7, #4]
 8003cdc:	689b      	ldr	r3, [r3, #8]
 8003cde:	2b00      	cmp	r3, #0
 8003ce0:	d10e      	bne.n	8003d00 <HAL_I2C_Init+0x1bc>
 8003ce2:	68fb      	ldr	r3, [r7, #12]
 8003ce4:	1e58      	subs	r0, r3, #1
 8003ce6:	687b      	ldr	r3, [r7, #4]
 8003ce8:	6859      	ldr	r1, [r3, #4]
 8003cea:	460b      	mov	r3, r1
 8003cec:	005b      	lsls	r3, r3, #1
 8003cee:	440b      	add	r3, r1
 8003cf0:	fbb0 f3f3 	udiv	r3, r0, r3
 8003cf4:	3301      	adds	r3, #1
 8003cf6:	f3c3 030b 	ubfx	r3, r3, #0, #12
 8003cfa:	f443 4300 	orr.w	r3, r3, #32768	@ 0x8000
 8003cfe:	e00f      	b.n	8003d20 <HAL_I2C_Init+0x1dc>
 8003d00:	68fb      	ldr	r3, [r7, #12]
 8003d02:	1e58      	subs	r0, r3, #1
 8003d04:	687b      	ldr	r3, [r7, #4]
 8003d06:	6859      	ldr	r1, [r3, #4]
 8003d08:	460b      	mov	r3, r1
 8003d0a:	009b      	lsls	r3, r3, #2
 8003d0c:	440b      	add	r3, r1
 8003d0e:	0099      	lsls	r1, r3, #2
 8003d10:	440b      	add	r3, r1
 8003d12:	fbb0 f3f3 	udiv	r3, r0, r3
 8003d16:	3301      	adds	r3, #1
 8003d18:	f3c3 030b 	ubfx	r3, r3, #0, #12
 8003d1c:	f443 4340 	orr.w	r3, r3, #49152	@ 0xc000
 8003d20:	6879      	ldr	r1, [r7, #4]
 8003d22:	6809      	ldr	r1, [r1, #0]
 8003d24:	4313      	orrs	r3, r2
 8003d26:	61cb      	str	r3, [r1, #28]
 8003d28:	687b      	ldr	r3, [r7, #4]
 8003d2a:	681b      	ldr	r3, [r3, #0]
 8003d2c:	681b      	ldr	r3, [r3, #0]
 8003d2e:	f023 01c0 	bic.w	r1, r3, #192	@ 0xc0
 8003d32:	687b      	ldr	r3, [r7, #4]
 8003d34:	69da      	ldr	r2, [r3, #28]
 8003d36:	687b      	ldr	r3, [r7, #4]
 8003d38:	6a1b      	ldr	r3, [r3, #32]
 8003d3a:	431a      	orrs	r2, r3
 8003d3c:	687b      	ldr	r3, [r7, #4]
 8003d3e:	681b      	ldr	r3, [r3, #0]
 8003d40:	430a      	orrs	r2, r1
 8003d42:	601a      	str	r2, [r3, #0]
 8003d44:	687b      	ldr	r3, [r7, #4]
 8003d46:	681b      	ldr	r3, [r3, #0]
 8003d48:	689b      	ldr	r3, [r3, #8]
 8003d4a:	f423 4303 	bic.w	r3, r3, #33536	@ 0x8300
 8003d4e:	f023 03ff 	bic.w	r3, r3, #255	@ 0xff
 8003d52:	687a      	ldr	r2, [r7, #4]
 8003d54:	6911      	ldr	r1, [r2, #16]
 8003d56:	687a      	ldr	r2, [r7, #4]
 8003d58:	68d2      	ldr	r2, [r2, #12]
 8003d5a:	4311      	orrs	r1, r2
 8003d5c:	687a      	ldr	r2, [r7, #4]
 8003d5e:	6812      	ldr	r2, [r2, #0]
 8003d60:	430b      	orrs	r3, r1
 8003d62:	6093      	str	r3, [r2, #8]
 8003d64:	687b      	ldr	r3, [r7, #4]
 8003d66:	681b      	ldr	r3, [r3, #0]
 8003d68:	68db      	ldr	r3, [r3, #12]
 8003d6a:	f023 01ff 	bic.w	r1, r3, #255	@ 0xff
 8003d6e:	687b      	ldr	r3, [r7, #4]
 8003d70:	695a      	ldr	r2, [r3, #20]
 8003d72:	687b      	ldr	r3, [r7, #4]
 8003d74:	699b      	ldr	r3, [r3, #24]
 8003d76:	431a      	orrs	r2, r3
 8003d78:	687b      	ldr	r3, [r7, #4]
 8003d7a:	681b      	ldr	r3, [r3, #0]
 8003d7c:	430a      	orrs	r2, r1
 8003d7e:	60da      	str	r2, [r3, #12]
 8003d80:	687b      	ldr	r3, [r7, #4]
 8003d82:	681b      	ldr	r3, [r3, #0]
 8003d84:	681a      	ldr	r2, [r3, #0]
 8003d86:	687b      	ldr	r3, [r7, #4]
 8003d88:	681b      	ldr	r3, [r3, #0]
 8003d8a:	f042 0201 	orr.w	r2, r2, #1
 8003d8e:	601a      	str	r2, [r3, #0]
 8003d90:	687b      	ldr	r3, [r7, #4]
 8003d92:	2200      	movs	r2, #0
 8003d94:	641a      	str	r2, [r3, #64]	@ 0x40
 8003d96:	687b      	ldr	r3, [r7, #4]
 8003d98:	2220      	movs	r2, #32
 8003d9a:	f883 203d 	strb.w	r2, [r3, #61]	@ 0x3d
 8003d9e:	687b      	ldr	r3, [r7, #4]
 8003da0:	2200      	movs	r2, #0
 8003da2:	631a      	str	r2, [r3, #48]	@ 0x30
 8003da4:	687b      	ldr	r3, [r7, #4]
 8003da6:	2200      	movs	r2, #0
 8003da8:	f883 203e 	strb.w	r2, [r3, #62]	@ 0x3e
 8003dac:	2300      	movs	r3, #0
 8003dae:	4618      	mov	r0, r3
 8003db0:	3710      	adds	r7, #16
 8003db2:	46bd      	mov	sp, r7
 8003db4:	bd80      	pop	{r7, pc}
 8003db6:	bf00      	nop
 8003db8:	000186a0 	.word	0x000186a0
 8003dbc:	001e847f 	.word	0x001e847f
 8003dc0:	003d08ff 	.word	0x003d08ff
 8003dc4:	431bde83 	.word	0x431bde83
 8003dc8:	10624dd3 	.word	0x10624dd3

08003dcc <HAL_RCC_OscConfig>:
 8003dcc:	b580      	push	{r7, lr}
 8003dce:	b086      	sub	sp, #24
 8003dd0:	af00      	add	r7, sp, #0
 8003dd2:	6078      	str	r0, [r7, #4]
 8003dd4:	687b      	ldr	r3, [r7, #4]
 8003dd6:	2b00      	cmp	r3, #0
 8003dd8:	d101      	bne.n	8003dde <HAL_RCC_OscConfig+0x12>
 8003dda:	2301      	movs	r3, #1
 8003ddc:	e267      	b.n	80042ae <HAL_RCC_OscConfig+0x4e2>
 8003dde:	687b      	ldr	r3, [r7, #4]
 8003de0:	681b      	ldr	r3, [r3, #0]
 8003de2:	f003 0301 	and.w	r3, r3, #1
 8003de6:	2b00      	cmp	r3, #0
 8003de8:	d075      	beq.n	8003ed6 <HAL_RCC_OscConfig+0x10a>
 8003dea:	4b88      	ldr	r3, [pc, #544]	@ (800400c <HAL_RCC_OscConfig+0x240>)
 8003dec:	689b      	ldr	r3, [r3, #8]
 8003dee:	f003 030c 	and.w	r3, r3, #12
 8003df2:	2b04      	cmp	r3, #4
 8003df4:	d00c      	beq.n	8003e10 <HAL_RCC_OscConfig+0x44>
 8003df6:	4b85      	ldr	r3, [pc, #532]	@ (800400c <HAL_RCC_OscConfig+0x240>)
 8003df8:	689b      	ldr	r3, [r3, #8]
 8003dfa:	f003 030c 	and.w	r3, r3, #12
 8003dfe:	2b08      	cmp	r3, #8
 8003e00:	d112      	bne.n	8003e28 <HAL_RCC_OscConfig+0x5c>
 8003e02:	4b82      	ldr	r3, [pc, #520]	@ (800400c <HAL_RCC_OscConfig+0x240>)
 8003e04:	685b      	ldr	r3, [r3, #4]
 8003e06:	f403 0380 	and.w	r3, r3, #4194304	@ 0x400000
 8003e0a:	f5b3 0f80 	cmp.w	r3, #4194304	@ 0x400000
 8003e0e:	d10b      	bne.n	8003e28 <HAL_RCC_OscConfig+0x5c>
 8003e10:	4b7e      	ldr	r3, [pc, #504]	@ (800400c <HAL_RCC_OscConfig+0x240>)
 8003e12:	681b      	ldr	r3, [r3, #0]
 8003e14:	f403 3300 	and.w	r3, r3, #131072	@ 0x20000
 8003e18:	2b00      	cmp	r3, #0
 8003e1a:	d05b      	beq.n	8003ed4 <HAL_RCC_OscConfig+0x108>
 8003e1c:	687b      	ldr	r3, [r7, #4]
 8003e1e:	685b      	ldr	r3, [r3, #4]
 8003e20:	2b00      	cmp	r3, #0
 8003e22:	d157      	bne.n	8003ed4 <HAL_RCC_OscConfig+0x108>
 8003e24:	2301      	movs	r3, #1
 8003e26:	e242      	b.n	80042ae <HAL_RCC_OscConfig+0x4e2>
 8003e28:	687b      	ldr	r3, [r7, #4]
 8003e2a:	685b      	ldr	r3, [r3, #4]
 8003e2c:	f5b3 3f80 	cmp.w	r3, #65536	@ 0x10000
 8003e30:	d106      	bne.n	8003e40 <HAL_RCC_OscConfig+0x74>
 8003e32:	4b76      	ldr	r3, [pc, #472]	@ (800400c <HAL_RCC_OscConfig+0x240>)
 8003e34:	681b      	ldr	r3, [r3, #0]
 8003e36:	4a75      	ldr	r2, [pc, #468]	@ (800400c <HAL_RCC_OscConfig+0x240>)
 8003e38:	f443 3380 	orr.w	r3, r3, #65536	@ 0x10000
 8003e3c:	6013      	str	r3, [r2, #0]
 8003e3e:	e01d      	b.n	8003e7c <HAL_RCC_OscConfig+0xb0>
 8003e40:	687b      	ldr	r3, [r7, #4]
 8003e42:	685b      	ldr	r3, [r3, #4]
 8003e44:	f5b3 2fa0 	cmp.w	r3, #327680	@ 0x50000
 8003e48:	d10c      	bne.n	8003e64 <HAL_RCC_OscConfig+0x98>
 8003e4a:	4b70      	ldr	r3, [pc, #448]	@ (800400c <HAL_RCC_OscConfig+0x240>)
 8003e4c:	681b      	ldr	r3, [r3, #0]
 8003e4e:	4a6f      	ldr	r2, [pc, #444]	@ (800400c <HAL_RCC_OscConfig+0x240>)
 8003e50:	f443 2380 	orr.w	r3, r3, #262144	@ 0x40000
 8003e54:	6013      	str	r3, [r2, #0]
 8003e56:	4b6d      	ldr	r3, [pc, #436]	@ (800400c <HAL_RCC_OscConfig+0x240>)
 8003e58:	681b      	ldr	r3, [r3, #0]
 8003e5a:	4a6c      	ldr	r2, [pc, #432]	@ (800400c <HAL_RCC_OscConfig+0x240>)
 8003e5c:	f443 3380 	orr.w	r3, r3, #65536	@ 0x10000
 8003e60:	6013      	str	r3, [r2, #0]
 8003e62:	e00b      	b.n	8003e7c <HAL_RCC_OscConfig+0xb0>
 8003e64:	4b69      	ldr	r3, [pc, #420]	@ (800400c <HAL_RCC_OscConfig+0x240>)
 8003e66:	681b      	ldr	r3, [r3, #0]
 8003e68:	4a68      	ldr	r2, [pc, #416]	@ (800400c <HAL_RCC_OscConfig+0x240>)
 8003e6a:	f423 3380 	bic.w	r3, r3, #65536	@ 0x10000
 8003e6e:	6013      	str	r3, [r2, #0]
 8003e70:	4b66      	ldr	r3, [pc, #408]	@ (800400c <HAL_RCC_OscConfig+0x240>)
 8003e72:	681b      	ldr	r3, [r3, #0]
 8003e74:	4a65      	ldr	r2, [pc, #404]	@ (800400c <HAL_RCC_OscConfig+0x240>)
 8003e76:	f423 2380 	bic.w	r3, r3, #262144	@ 0x40000
 8003e7a:	6013      	str	r3, [r2, #0]
 8003e7c:	687b      	ldr	r3, [r7, #4]
 8003e7e:	685b      	ldr	r3, [r3, #4]
 8003e80:	2b00      	cmp	r3, #0
 8003e82:	d013      	beq.n	8003eac <HAL_RCC_OscConfig+0xe0>
 8003e84:	f7fe fb38 	bl	80024f8 <HAL_GetTick>
 8003e88:	6138      	str	r0, [r7, #16]
 8003e8a:	e008      	b.n	8003e9e <HAL_RCC_OscConfig+0xd2>
 8003e8c:	f7fe fb34 	bl	80024f8 <HAL_GetTick>
 8003e90:	4602      	mov	r2, r0
 8003e92:	693b      	ldr	r3, [r7, #16]
 8003e94:	1ad3      	subs	r3, r2, r3
 8003e96:	2b64      	cmp	r3, #100	@ 0x64
 8003e98:	d901      	bls.n	8003e9e <HAL_RCC_OscConfig+0xd2>
 8003e9a:	2303      	movs	r3, #3
 8003e9c:	e207      	b.n	80042ae <HAL_RCC_OscConfig+0x4e2>
 8003e9e:	4b5b      	ldr	r3, [pc, #364]	@ (800400c <HAL_RCC_OscConfig+0x240>)
 8003ea0:	681b      	ldr	r3, [r3, #0]
 8003ea2:	f403 3300 	and.w	r3, r3, #131072	@ 0x20000
 8003ea6:	2b00      	cmp	r3, #0
 8003ea8:	d0f0      	beq.n	8003e8c <HAL_RCC_OscConfig+0xc0>
 8003eaa:	e014      	b.n	8003ed6 <HAL_RCC_OscConfig+0x10a>
 8003eac:	f7fe fb24 	bl	80024f8 <HAL_GetTick>
 8003eb0:	6138      	str	r0, [r7, #16]
 8003eb2:	e008      	b.n	8003ec6 <HAL_RCC_OscConfig+0xfa>
 8003eb4:	f7fe fb20 	bl	80024f8 <HAL_GetTick>
 8003eb8:	4602      	mov	r2, r0
 8003eba:	693b      	ldr	r3, [r7, #16]
 8003ebc:	1ad3      	subs	r3, r2, r3
 8003ebe:	2b64      	cmp	r3, #100	@ 0x64
 8003ec0:	d901      	bls.n	8003ec6 <HAL_RCC_OscConfig+0xfa>
 8003ec2:	2303      	movs	r3, #3
 8003ec4:	e1f3      	b.n	80042ae <HAL_RCC_OscConfig+0x4e2>
 8003ec6:	4b51      	ldr	r3, [pc, #324]	@ (800400c <HAL_RCC_OscConfig+0x240>)
 8003ec8:	681b      	ldr	r3, [r3, #0]
 8003eca:	f403 3300 	and.w	r3, r3, #131072	@ 0x20000
 8003ece:	2b00      	cmp	r3, #0
 8003ed0:	d1f0      	bne.n	8003eb4 <HAL_RCC_OscConfig+0xe8>
 8003ed2:	e000      	b.n	8003ed6 <HAL_RCC_OscConfig+0x10a>
 8003ed4:	bf00      	nop
 8003ed6:	687b      	ldr	r3, [r7, #4]
 8003ed8:	681b      	ldr	r3, [r3, #0]
 8003eda:	f003 0302 	and.w	r3, r3, #2
 8003ede:	2b00      	cmp	r3, #0
 8003ee0:	d063      	beq.n	8003faa <HAL_RCC_OscConfig+0x1de>
 8003ee2:	4b4a      	ldr	r3, [pc, #296]	@ (800400c <HAL_RCC_OscConfig+0x240>)
 8003ee4:	689b      	ldr	r3, [r3, #8]
 8003ee6:	f003 030c 	and.w	r3, r3, #12
 8003eea:	2b00      	cmp	r3, #0
 8003eec:	d00b      	beq.n	8003f06 <HAL_RCC_OscConfig+0x13a>
 8003eee:	4b47      	ldr	r3, [pc, #284]	@ (800400c <HAL_RCC_OscConfig+0x240>)
 8003ef0:	689b      	ldr	r3, [r3, #8]
 8003ef2:	f003 030c 	and.w	r3, r3, #12
 8003ef6:	2b08      	cmp	r3, #8
 8003ef8:	d11c      	bne.n	8003f34 <HAL_RCC_OscConfig+0x168>
 8003efa:	4b44      	ldr	r3, [pc, #272]	@ (800400c <HAL_RCC_OscConfig+0x240>)
 8003efc:	685b      	ldr	r3, [r3, #4]
 8003efe:	f403 0380 	and.w	r3, r3, #4194304	@ 0x400000
 8003f02:	2b00      	cmp	r3, #0
 8003f04:	d116      	bne.n	8003f34 <HAL_RCC_OscConfig+0x168>
 8003f06:	4b41      	ldr	r3, [pc, #260]	@ (800400c <HAL_RCC_OscConfig+0x240>)
 8003f08:	681b      	ldr	r3, [r3, #0]
 8003f0a:	f003 0302 	and.w	r3, r3, #2
 8003f0e:	2b00      	cmp	r3, #0
 8003f10:	d005      	beq.n	8003f1e <HAL_RCC_OscConfig+0x152>
 8003f12:	687b      	ldr	r3, [r7, #4]
 8003f14:	68db      	ldr	r3, [r3, #12]
 8003f16:	2b01      	cmp	r3, #1
 8003f18:	d001      	beq.n	8003f1e <HAL_RCC_OscConfig+0x152>
 8003f1a:	2301      	movs	r3, #1
 8003f1c:	e1c7      	b.n	80042ae <HAL_RCC_OscConfig+0x4e2>
 8003f1e:	4b3b      	ldr	r3, [pc, #236]	@ (800400c <HAL_RCC_OscConfig+0x240>)
 8003f20:	681b      	ldr	r3, [r3, #0]
 8003f22:	f023 02f8 	bic.w	r2, r3, #248	@ 0xf8
 8003f26:	687b      	ldr	r3, [r7, #4]
 8003f28:	691b      	ldr	r3, [r3, #16]
 8003f2a:	00db      	lsls	r3, r3, #3
 8003f2c:	4937      	ldr	r1, [pc, #220]	@ (800400c <HAL_RCC_OscConfig+0x240>)
 8003f2e:	4313      	orrs	r3, r2
 8003f30:	600b      	str	r3, [r1, #0]
 8003f32:	e03a      	b.n	8003faa <HAL_RCC_OscConfig+0x1de>
 8003f34:	687b      	ldr	r3, [r7, #4]
 8003f36:	68db      	ldr	r3, [r3, #12]
 8003f38:	2b00      	cmp	r3, #0
 8003f3a:	d020      	beq.n	8003f7e <HAL_RCC_OscConfig+0x1b2>
 8003f3c:	4b34      	ldr	r3, [pc, #208]	@ (8004010 <HAL_RCC_OscConfig+0x244>)
 8003f3e:	2201      	movs	r2, #1
 8003f40:	601a      	str	r2, [r3, #0]
 8003f42:	f7fe fad9 	bl	80024f8 <HAL_GetTick>
 8003f46:	6138      	str	r0, [r7, #16]
 8003f48:	e008      	b.n	8003f5c <HAL_RCC_OscConfig+0x190>
 8003f4a:	f7fe fad5 	bl	80024f8 <HAL_GetTick>
 8003f4e:	4602      	mov	r2, r0
 8003f50:	693b      	ldr	r3, [r7, #16]
 8003f52:	1ad3      	subs	r3, r2, r3
 8003f54:	2b02      	cmp	r3, #2
 8003f56:	d901      	bls.n	8003f5c <HAL_RCC_OscConfig+0x190>
 8003f58:	2303      	movs	r3, #3
 8003f5a:	e1a8      	b.n	80042ae <HAL_RCC_OscConfig+0x4e2>
 8003f5c:	4b2b      	ldr	r3, [pc, #172]	@ (800400c <HAL_RCC_OscConfig+0x240>)
 8003f5e:	681b      	ldr	r3, [r3, #0]
 8003f60:	f003 0302 	and.w	r3, r3, #2
 8003f64:	2b00      	cmp	r3, #0
 8003f66:	d0f0      	beq.n	8003f4a <HAL_RCC_OscConfig+0x17e>
 8003f68:	4b28      	ldr	r3, [pc, #160]	@ (800400c <HAL_RCC_OscConfig+0x240>)
 8003f6a:	681b      	ldr	r3, [r3, #0]
 8003f6c:	f023 02f8 	bic.w	r2, r3, #248	@ 0xf8
 8003f70:	687b      	ldr	r3, [r7, #4]
 8003f72:	691b      	ldr	r3, [r3, #16]
 8003f74:	00db      	lsls	r3, r3, #3
 8003f76:	4925      	ldr	r1, [pc, #148]	@ (800400c <HAL_RCC_OscConfig+0x240>)
 8003f78:	4313      	orrs	r3, r2
 8003f7a:	600b      	str	r3, [r1, #0]
 8003f7c:	e015      	b.n	8003faa <HAL_RCC_OscConfig+0x1de>
 8003f7e:	4b24      	ldr	r3, [pc, #144]	@ (8004010 <HAL_RCC_OscConfig+0x244>)
 8003f80:	2200      	movs	r2, #0
 8003f82:	601a      	str	r2, [r3, #0]
 8003f84:	f7fe fab8 	bl	80024f8 <HAL_GetTick>
 8003f88:	6138      	str	r0, [r7, #16]
 8003f8a:	e008      	b.n	8003f9e <HAL_RCC_OscConfig+0x1d2>
 8003f8c:	f7fe fab4 	bl	80024f8 <HAL_GetTick>
 8003f90:	4602      	mov	r2, r0
 8003f92:	693b      	ldr	r3, [r7, #16]
 8003f94:	1ad3      	subs	r3, r2, r3
 8003f96:	2b02      	cmp	r3, #2
 8003f98:	d901      	bls.n	8003f9e <HAL_RCC_OscConfig+0x1d2>
 8003f9a:	2303      	movs	r3, #3
 8003f9c:	e187      	b.n	80042ae <HAL_RCC_OscConfig+0x4e2>
 8003f9e:	4b1b      	ldr	r3, [pc, #108]	@ (800400c <HAL_RCC_OscConfig+0x240>)
 8003fa0:	681b      	ldr	r3, [r3, #0]
 8003fa2:	f003 0302 	and.w	r3, r3, #2
 8003fa6:	2b00      	cmp	r3, #0
 8003fa8:	d1f0      	bne.n	8003f8c <HAL_RCC_OscConfig+0x1c0>
 8003faa:	687b      	ldr	r3, [r7, #4]
 8003fac:	681b      	ldr	r3, [r3, #0]
 8003fae:	f003 0308 	and.w	r3, r3, #8
 8003fb2:	2b00      	cmp	r3, #0
 8003fb4:	d036      	beq.n	8004024 <HAL_RCC_OscConfig+0x258>
 8003fb6:	687b      	ldr	r3, [r7, #4]
 8003fb8:	695b      	ldr	r3, [r3, #20]
 8003fba:	2b00      	cmp	r3, #0
 8003fbc:	d016      	beq.n	8003fec <HAL_RCC_OscConfig+0x220>
 8003fbe:	4b15      	ldr	r3, [pc, #84]	@ (8004014 <HAL_RCC_OscConfig+0x248>)
 8003fc0:	2201      	movs	r2, #1
 8003fc2:	601a      	str	r2, [r3, #0]
 8003fc4:	f7fe fa98 	bl	80024f8 <HAL_GetTick>
 8003fc8:	6138      	str	r0, [r7, #16]
 8003fca:	e008      	b.n	8003fde <HAL_RCC_OscConfig+0x212>
 8003fcc:	f7fe fa94 	bl	80024f8 <HAL_GetTick>
 8003fd0:	4602      	mov	r2, r0
 8003fd2:	693b      	ldr	r3, [r7, #16]
 8003fd4:	1ad3      	subs	r3, r2, r3
 8003fd6:	2b02      	cmp	r3, #2
 8003fd8:	d901      	bls.n	8003fde <HAL_RCC_OscConfig+0x212>
 8003fda:	2303      	movs	r3, #3
 8003fdc:	e167      	b.n	80042ae <HAL_RCC_OscConfig+0x4e2>
 8003fde:	4b0b      	ldr	r3, [pc, #44]	@ (800400c <HAL_RCC_OscConfig+0x240>)
 8003fe0:	6f5b      	ldr	r3, [r3, #116]	@ 0x74
 8003fe2:	f003 0302 	and.w	r3, r3, #2
 8003fe6:	2b00      	cmp	r3, #0
 8003fe8:	d0f0      	beq.n	8003fcc <HAL_RCC_OscConfig+0x200>
 8003fea:	e01b      	b.n	8004024 <HAL_RCC_OscConfig+0x258>
 8003fec:	4b09      	ldr	r3, [pc, #36]	@ (8004014 <HAL_RCC_OscConfig+0x248>)
 8003fee:	2200      	movs	r2, #0
 8003ff0:	601a      	str	r2, [r3, #0]
 8003ff2:	f7fe fa81 	bl	80024f8 <HAL_GetTick>
 8003ff6:	6138      	str	r0, [r7, #16]
 8003ff8:	e00e      	b.n	8004018 <HAL_RCC_OscConfig+0x24c>
 8003ffa:	f7fe fa7d 	bl	80024f8 <HAL_GetTick>
 8003ffe:	4602      	mov	r2, r0
 8004000:	693b      	ldr	r3, [r7, #16]
 8004002:	1ad3      	subs	r3, r2, r3
 8004004:	2b02      	cmp	r3, #2
 8004006:	d907      	bls.n	8004018 <HAL_RCC_OscConfig+0x24c>
 8004008:	2303      	movs	r3, #3
 800400a:	e150      	b.n	80042ae <HAL_RCC_OscConfig+0x4e2>
 800400c:	40023800 	.word	0x40023800
 8004010:	42470000 	.word	0x42470000
 8004014:	42470e80 	.word	0x42470e80
 8004018:	4b88      	ldr	r3, [pc, #544]	@ (800423c <HAL_RCC_OscConfig+0x470>)
 800401a:	6f5b      	ldr	r3, [r3, #116]	@ 0x74
 800401c:	f003 0302 	and.w	r3, r3, #2
 8004020:	2b00      	cmp	r3, #0
 8004022:	d1ea      	bne.n	8003ffa <HAL_RCC_OscConfig+0x22e>
 8004024:	687b      	ldr	r3, [r7, #4]
 8004026:	681b      	ldr	r3, [r3, #0]
 8004028:	f003 0304 	and.w	r3, r3, #4
 800402c:	2b00      	cmp	r3, #0
 800402e:	f000 8097 	beq.w	8004160 <HAL_RCC_OscConfig+0x394>
 8004032:	2300      	movs	r3, #0
 8004034:	75fb      	strb	r3, [r7, #23]
 8004036:	4b81      	ldr	r3, [pc, #516]	@ (800423c <HAL_RCC_OscConfig+0x470>)
 8004038:	6c1b      	ldr	r3, [r3, #64]	@ 0x40
 800403a:	f003 5380 	and.w	r3, r3, #268435456	@ 0x10000000
 800403e:	2b00      	cmp	r3, #0
 8004040:	d10f      	bne.n	8004062 <HAL_RCC_OscConfig+0x296>
 8004042:	2300      	movs	r3, #0
 8004044:	60bb      	str	r3, [r7, #8]
 8004046:	4b7d      	ldr	r3, [pc, #500]	@ (800423c <HAL_RCC_OscConfig+0x470>)
 8004048:	6c1b      	ldr	r3, [r3, #64]	@ 0x40
 800404a:	4a7c      	ldr	r2, [pc, #496]	@ (800423c <HAL_RCC_OscConfig+0x470>)
 800404c:	f043 5380 	orr.w	r3, r3, #268435456	@ 0x10000000
 8004050:	6413      	str	r3, [r2, #64]	@ 0x40
 8004052:	4b7a      	ldr	r3, [pc, #488]	@ (800423c <HAL_RCC_OscConfig+0x470>)
 8004054:	6c1b      	ldr	r3, [r3, #64]	@ 0x40
 8004056:	f003 5380 	and.w	r3, r3, #268435456	@ 0x10000000
 800405a:	60bb      	str	r3, [r7, #8]
 800405c:	68bb      	ldr	r3, [r7, #8]
 800405e:	2301      	movs	r3, #1
 8004060:	75fb      	strb	r3, [r7, #23]
 8004062:	4b77      	ldr	r3, [pc, #476]	@ (8004240 <HAL_RCC_OscConfig+0x474>)
 8004064:	681b      	ldr	r3, [r3, #0]
 8004066:	f403 7380 	and.w	r3, r3, #256	@ 0x100
 800406a:	2b00      	cmp	r3, #0
 800406c:	d118      	bne.n	80040a0 <HAL_RCC_OscConfig+0x2d4>
 800406e:	4b74      	ldr	r3, [pc, #464]	@ (8004240 <HAL_RCC_OscConfig+0x474>)
 8004070:	681b      	ldr	r3, [r3, #0]
 8004072:	4a73      	ldr	r2, [pc, #460]	@ (8004240 <HAL_RCC_OscConfig+0x474>)
 8004074:	f443 7380 	orr.w	r3, r3, #256	@ 0x100
 8004078:	6013      	str	r3, [r2, #0]
 800407a:	f7fe fa3d 	bl	80024f8 <HAL_GetTick>
 800407e:	6138      	str	r0, [r7, #16]
 8004080:	e008      	b.n	8004094 <HAL_RCC_OscConfig+0x2c8>
 8004082:	f7fe fa39 	bl	80024f8 <HAL_GetTick>
 8004086:	4602      	mov	r2, r0
 8004088:	693b      	ldr	r3, [r7, #16]
 800408a:	1ad3      	subs	r3, r2, r3
 800408c:	2b02      	cmp	r3, #2
 800408e:	d901      	bls.n	8004094 <HAL_RCC_OscConfig+0x2c8>
 8004090:	2303      	movs	r3, #3
 8004092:	e10c      	b.n	80042ae <HAL_RCC_OscConfig+0x4e2>
 8004094:	4b6a      	ldr	r3, [pc, #424]	@ (8004240 <HAL_RCC_OscConfig+0x474>)
 8004096:	681b      	ldr	r3, [r3, #0]
 8004098:	f403 7380 	and.w	r3, r3, #256	@ 0x100
 800409c:	2b00      	cmp	r3, #0
 800409e:	d0f0      	beq.n	8004082 <HAL_RCC_OscConfig+0x2b6>
 80040a0:	687b      	ldr	r3, [r7, #4]
 80040a2:	689b      	ldr	r3, [r3, #8]
 80040a4:	2b01      	cmp	r3, #1
 80040a6:	d106      	bne.n	80040b6 <HAL_RCC_OscConfig+0x2ea>
 80040a8:	4b64      	ldr	r3, [pc, #400]	@ (800423c <HAL_RCC_OscConfig+0x470>)
 80040aa:	6f1b      	ldr	r3, [r3, #112]	@ 0x70
 80040ac:	4a63      	ldr	r2, [pc, #396]	@ (800423c <HAL_RCC_OscConfig+0x470>)
 80040ae:	f043 0301 	orr.w	r3, r3, #1
 80040b2:	6713      	str	r3, [r2, #112]	@ 0x70
 80040b4:	e01c      	b.n	80040f0 <HAL_RCC_OscConfig+0x324>
 80040b6:	687b      	ldr	r3, [r7, #4]
 80040b8:	689b      	ldr	r3, [r3, #8]
 80040ba:	2b05      	cmp	r3, #5
 80040bc:	d10c      	bne.n	80040d8 <HAL_RCC_OscConfig+0x30c>
 80040be:	4b5f      	ldr	r3, [pc, #380]	@ (800423c <HAL_RCC_OscConfig+0x470>)
 80040c0:	6f1b      	ldr	r3, [r3, #112]	@ 0x70
 80040c2:	4a5e      	ldr	r2, [pc, #376]	@ (800423c <HAL_RCC_OscConfig+0x470>)
 80040c4:	f043 0304 	orr.w	r3, r3, #4
 80040c8:	6713      	str	r3, [r2, #112]	@ 0x70
 80040ca:	4b5c      	ldr	r3, [pc, #368]	@ (800423c <HAL_RCC_OscConfig+0x470>)
 80040cc:	6f1b      	ldr	r3, [r3, #112]	@ 0x70
 80040ce:	4a5b      	ldr	r2, [pc, #364]	@ (800423c <HAL_RCC_OscConfig+0x470>)
 80040d0:	f043 0301 	orr.w	r3, r3, #1
 80040d4:	6713      	str	r3, [r2, #112]	@ 0x70
 80040d6:	e00b      	b.n	80040f0 <HAL_RCC_OscConfig+0x324>
 80040d8:	4b58      	ldr	r3, [pc, #352]	@ (800423c <HAL_RCC_OscConfig+0x470>)
 80040da:	6f1b      	ldr	r3, [r3, #112]	@ 0x70
 80040dc:	4a57      	ldr	r2, [pc, #348]	@ (800423c <HAL_RCC_OscConfig+0x470>)
 80040de:	f023 0301 	bic.w	r3, r3, #1
 80040e2:	6713      	str	r3, [r2, #112]	@ 0x70
 80040e4:	4b55      	ldr	r3, [pc, #340]	@ (800423c <HAL_RCC_OscConfig+0x470>)
 80040e6:	6f1b      	ldr	r3, [r3, #112]	@ 0x70
 80040e8:	4a54      	ldr	r2, [pc, #336]	@ (800423c <HAL_RCC_OscConfig+0x470>)
 80040ea:	f023 0304 	bic.w	r3, r3, #4
 80040ee:	6713      	str	r3, [r2, #112]	@ 0x70
 80040f0:	687b      	ldr	r3, [r7, #4]
 80040f2:	689b      	ldr	r3, [r3, #8]
 80040f4:	2b00      	cmp	r3, #0
 80040f6:	d015      	beq.n	8004124 <HAL_RCC_OscConfig+0x358>
 80040f8:	f7fe f9fe 	bl	80024f8 <HAL_GetTick>
 80040fc:	6138      	str	r0, [r7, #16]
 80040fe:	e00a      	b.n	8004116 <HAL_RCC_OscConfig+0x34a>
 8004100:	f7fe f9fa 	bl	80024f8 <HAL_GetTick>
 8004104:	4602      	mov	r2, r0
 8004106:	693b      	ldr	r3, [r7, #16]
 8004108:	1ad3      	subs	r3, r2, r3
 800410a:	f241 3288 	movw	r2, #5000	@ 0x1388
 800410e:	4293      	cmp	r3, r2
 8004110:	d901      	bls.n	8004116 <HAL_RCC_OscConfig+0x34a>
 8004112:	2303      	movs	r3, #3
 8004114:	e0cb      	b.n	80042ae <HAL_RCC_OscConfig+0x4e2>
 8004116:	4b49      	ldr	r3, [pc, #292]	@ (800423c <HAL_RCC_OscConfig+0x470>)
 8004118:	6f1b      	ldr	r3, [r3, #112]	@ 0x70
 800411a:	f003 0302 	and.w	r3, r3, #2
 800411e:	2b00      	cmp	r3, #0
 8004120:	d0ee      	beq.n	8004100 <HAL_RCC_OscConfig+0x334>
 8004122:	e014      	b.n	800414e <HAL_RCC_OscConfig+0x382>
 8004124:	f7fe f9e8 	bl	80024f8 <HAL_GetTick>
 8004128:	6138      	str	r0, [r7, #16]
 800412a:	e00a      	b.n	8004142 <HAL_RCC_OscConfig+0x376>
 800412c:	f7fe f9e4 	bl	80024f8 <HAL_GetTick>
 8004130:	4602      	mov	r2, r0
 8004132:	693b      	ldr	r3, [r7, #16]
 8004134:	1ad3      	subs	r3, r2, r3
 8004136:	f241 3288 	movw	r2, #5000	@ 0x1388
 800413a:	4293      	cmp	r3, r2
 800413c:	d901      	bls.n	8004142 <HAL_RCC_OscConfig+0x376>
 800413e:	2303      	movs	r3, #3
 8004140:	e0b5      	b.n	80042ae <HAL_RCC_OscConfig+0x4e2>
 8004142:	4b3e      	ldr	r3, [pc, #248]	@ (800423c <HAL_RCC_OscConfig+0x470>)
 8004144:	6f1b      	ldr	r3, [r3, #112]	@ 0x70
 8004146:	f003 0302 	and.w	r3, r3, #2
 800414a:	2b00      	cmp	r3, #0
 800414c:	d1ee      	bne.n	800412c <HAL_RCC_OscConfig+0x360>
 800414e:	7dfb      	ldrb	r3, [r7, #23]
 8004150:	2b01      	cmp	r3, #1
 8004152:	d105      	bne.n	8004160 <HAL_RCC_OscConfig+0x394>
 8004154:	4b39      	ldr	r3, [pc, #228]	@ (800423c <HAL_RCC_OscConfig+0x470>)
 8004156:	6c1b      	ldr	r3, [r3, #64]	@ 0x40
 8004158:	4a38      	ldr	r2, [pc, #224]	@ (800423c <HAL_RCC_OscConfig+0x470>)
 800415a:	f023 5380 	bic.w	r3, r3, #268435456	@ 0x10000000
 800415e:	6413      	str	r3, [r2, #64]	@ 0x40
 8004160:	687b      	ldr	r3, [r7, #4]
 8004162:	699b      	ldr	r3, [r3, #24]
 8004164:	2b00      	cmp	r3, #0
 8004166:	f000 80a1 	beq.w	80042ac <HAL_RCC_OscConfig+0x4e0>
 800416a:	4b34      	ldr	r3, [pc, #208]	@ (800423c <HAL_RCC_OscConfig+0x470>)
 800416c:	689b      	ldr	r3, [r3, #8]
 800416e:	f003 030c 	and.w	r3, r3, #12
 8004172:	2b08      	cmp	r3, #8
 8004174:	d05c      	beq.n	8004230 <HAL_RCC_OscConfig+0x464>
 8004176:	687b      	ldr	r3, [r7, #4]
 8004178:	699b      	ldr	r3, [r3, #24]
 800417a:	2b02      	cmp	r3, #2
 800417c:	d141      	bne.n	8004202 <HAL_RCC_OscConfig+0x436>
 800417e:	4b31      	ldr	r3, [pc, #196]	@ (8004244 <HAL_RCC_OscConfig+0x478>)
 8004180:	2200      	movs	r2, #0
 8004182:	601a      	str	r2, [r3, #0]
 8004184:	f7fe f9b8 	bl	80024f8 <HAL_GetTick>
 8004188:	6138      	str	r0, [r7, #16]
 800418a:	e008      	b.n	800419e <HAL_RCC_OscConfig+0x3d2>
 800418c:	f7fe f9b4 	bl	80024f8 <HAL_GetTick>
 8004190:	4602      	mov	r2, r0
 8004192:	693b      	ldr	r3, [r7, #16]
 8004194:	1ad3      	subs	r3, r2, r3
 8004196:	2b02      	cmp	r3, #2
 8004198:	d901      	bls.n	800419e <HAL_RCC_OscConfig+0x3d2>
 800419a:	2303      	movs	r3, #3
 800419c:	e087      	b.n	80042ae <HAL_RCC_OscConfig+0x4e2>
 800419e:	4b27      	ldr	r3, [pc, #156]	@ (800423c <HAL_RCC_OscConfig+0x470>)
 80041a0:	681b      	ldr	r3, [r3, #0]
 80041a2:	f003 7300 	and.w	r3, r3, #33554432	@ 0x2000000
 80041a6:	2b00      	cmp	r3, #0
 80041a8:	d1f0      	bne.n	800418c <HAL_RCC_OscConfig+0x3c0>
 80041aa:	687b      	ldr	r3, [r7, #4]
 80041ac:	69da      	ldr	r2, [r3, #28]
 80041ae:	687b      	ldr	r3, [r7, #4]
 80041b0:	6a1b      	ldr	r3, [r3, #32]
 80041b2:	431a      	orrs	r2, r3
 80041b4:	687b      	ldr	r3, [r7, #4]
 80041b6:	6a5b      	ldr	r3, [r3, #36]	@ 0x24
 80041b8:	019b      	lsls	r3, r3, #6
 80041ba:	431a      	orrs	r2, r3
 80041bc:	687b      	ldr	r3, [r7, #4]
 80041be:	6a9b      	ldr	r3, [r3, #40]	@ 0x28
 80041c0:	085b      	lsrs	r3, r3, #1
 80041c2:	3b01      	subs	r3, #1
 80041c4:	041b      	lsls	r3, r3, #16
 80041c6:	431a      	orrs	r2, r3
 80041c8:	687b      	ldr	r3, [r7, #4]
 80041ca:	6adb      	ldr	r3, [r3, #44]	@ 0x2c
 80041cc:	061b      	lsls	r3, r3, #24
 80041ce:	491b      	ldr	r1, [pc, #108]	@ (800423c <HAL_RCC_OscConfig+0x470>)
 80041d0:	4313      	orrs	r3, r2
 80041d2:	604b      	str	r3, [r1, #4]
 80041d4:	4b1b      	ldr	r3, [pc, #108]	@ (8004244 <HAL_RCC_OscConfig+0x478>)
 80041d6:	2201      	movs	r2, #1
 80041d8:	601a      	str	r2, [r3, #0]
 80041da:	f7fe f98d 	bl	80024f8 <HAL_GetTick>
 80041de:	6138      	str	r0, [r7, #16]
 80041e0:	e008      	b.n	80041f4 <HAL_RCC_OscConfig+0x428>
 80041e2:	f7fe f989 	bl	80024f8 <HAL_GetTick>
 80041e6:	4602      	mov	r2, r0
 80041e8:	693b      	ldr	r3, [r7, #16]
 80041ea:	1ad3      	subs	r3, r2, r3
 80041ec:	2b02      	cmp	r3, #2
 80041ee:	d901      	bls.n	80041f4 <HAL_RCC_OscConfig+0x428>
 80041f0:	2303      	movs	r3, #3
 80041f2:	e05c      	b.n	80042ae <HAL_RCC_OscConfig+0x4e2>
 80041f4:	4b11      	ldr	r3, [pc, #68]	@ (800423c <HAL_RCC_OscConfig+0x470>)
 80041f6:	681b      	ldr	r3, [r3, #0]
 80041f8:	f003 7300 	and.w	r3, r3, #33554432	@ 0x2000000
 80041fc:	2b00      	cmp	r3, #0
 80041fe:	d0f0      	beq.n	80041e2 <HAL_RCC_OscConfig+0x416>
 8004200:	e054      	b.n	80042ac <HAL_RCC_OscConfig+0x4e0>
 8004202:	4b10      	ldr	r3, [pc, #64]	@ (8004244 <HAL_RCC_OscConfig+0x478>)
 8004204:	2200      	movs	r2, #0
 8004206:	601a      	str	r2, [r3, #0]
 8004208:	f7fe f976 	bl	80024f8 <HAL_GetTick>
 800420c:	6138      	str	r0, [r7, #16]
 800420e:	e008      	b.n	8004222 <HAL_RCC_OscConfig+0x456>
 8004210:	f7fe f972 	bl	80024f8 <HAL_GetTick>
 8004214:	4602      	mov	r2, r0
 8004216:	693b      	ldr	r3, [r7, #16]
 8004218:	1ad3      	subs	r3, r2, r3
 800421a:	2b02      	cmp	r3, #2
 800421c:	d901      	bls.n	8004222 <HAL_RCC_OscConfig+0x456>
 800421e:	2303      	movs	r3, #3
 8004220:	e045      	b.n	80042ae <HAL_RCC_OscConfig+0x4e2>
 8004222:	4b06      	ldr	r3, [pc, #24]	@ (800423c <HAL_RCC_OscConfig+0x470>)
 8004224:	681b      	ldr	r3, [r3, #0]
 8004226:	f003 7300 	and.w	r3, r3, #33554432	@ 0x2000000
 800422a:	2b00      	cmp	r3, #0
 800422c:	d1f0      	bne.n	8004210 <HAL_RCC_OscConfig+0x444>
 800422e:	e03d      	b.n	80042ac <HAL_RCC_OscConfig+0x4e0>
 8004230:	687b      	ldr	r3, [r7, #4]
 8004232:	699b      	ldr	r3, [r3, #24]
 8004234:	2b01      	cmp	r3, #1
 8004236:	d107      	bne.n	8004248 <HAL_RCC_OscConfig+0x47c>
 8004238:	2301      	movs	r3, #1
 800423a:	e038      	b.n	80042ae <HAL_RCC_OscConfig+0x4e2>
 800423c:	40023800 	.word	0x40023800
 8004240:	40007000 	.word	0x40007000
 8004244:	42470060 	.word	0x42470060
 8004248:	4b1b      	ldr	r3, [pc, #108]	@ (80042b8 <HAL_RCC_OscConfig+0x4ec>)
 800424a:	685b      	ldr	r3, [r3, #4]
 800424c:	60fb      	str	r3, [r7, #12]
 800424e:	687b      	ldr	r3, [r7, #4]
 8004250:	699b      	ldr	r3, [r3, #24]
 8004252:	2b01      	cmp	r3, #1
 8004254:	d028      	beq.n	80042a8 <HAL_RCC_OscConfig+0x4dc>
 8004256:	68fb      	ldr	r3, [r7, #12]
 8004258:	f403 0280 	and.w	r2, r3, #4194304	@ 0x400000
 800425c:	687b      	ldr	r3, [r7, #4]
 800425e:	69db      	ldr	r3, [r3, #28]
 8004260:	429a      	cmp	r2, r3
 8004262:	d121      	bne.n	80042a8 <HAL_RCC_OscConfig+0x4dc>
 8004264:	68fb      	ldr	r3, [r7, #12]
 8004266:	f003 023f 	and.w	r2, r3, #63	@ 0x3f
 800426a:	687b      	ldr	r3, [r7, #4]
 800426c:	6a1b      	ldr	r3, [r3, #32]
 800426e:	429a      	cmp	r2, r3
 8004270:	d11a      	bne.n	80042a8 <HAL_RCC_OscConfig+0x4dc>
 8004272:	68fa      	ldr	r2, [r7, #12]
 8004274:	f647 73c0 	movw	r3, #32704	@ 0x7fc0
 8004278:	4013      	ands	r3, r2
 800427a:	687a      	ldr	r2, [r7, #4]
 800427c:	6a52      	ldr	r2, [r2, #36]	@ 0x24
 800427e:	0192      	lsls	r2, r2, #6
 8004280:	4293      	cmp	r3, r2
 8004282:	d111      	bne.n	80042a8 <HAL_RCC_OscConfig+0x4dc>
 8004284:	68fb      	ldr	r3, [r7, #12]
 8004286:	f403 3240 	and.w	r2, r3, #196608	@ 0x30000
 800428a:	687b      	ldr	r3, [r7, #4]
 800428c:	6a9b      	ldr	r3, [r3, #40]	@ 0x28
 800428e:	085b      	lsrs	r3, r3, #1
 8004290:	3b01      	subs	r3, #1
 8004292:	041b      	lsls	r3, r3, #16
 8004294:	429a      	cmp	r2, r3
 8004296:	d107      	bne.n	80042a8 <HAL_RCC_OscConfig+0x4dc>
 8004298:	68fb      	ldr	r3, [r7, #12]
 800429a:	f003 6270 	and.w	r2, r3, #251658240	@ 0xf000000
 800429e:	687b      	ldr	r3, [r7, #4]
 80042a0:	6adb      	ldr	r3, [r3, #44]	@ 0x2c
 80042a2:	061b      	lsls	r3, r3, #24
 80042a4:	429a      	cmp	r2, r3
 80042a6:	d001      	beq.n	80042ac <HAL_RCC_OscConfig+0x4e0>
 80042a8:	2301      	movs	r3, #1
 80042aa:	e000      	b.n	80042ae <HAL_RCC_OscConfig+0x4e2>
 80042ac:	2300      	movs	r3, #0
 80042ae:	4618      	mov	r0, r3
 80042b0:	3718      	adds	r7, #24
 80042b2:	46bd      	mov	sp, r7
 80042b4:	bd80      	pop	{r7, pc}
 80042b6:	bf00      	nop
 80042b8:	40023800 	.word	0x40023800

080042bc <HAL_RCC_ClockConfig>:
 80042bc:	b580      	push	{r7, lr}
 80042be:	b084      	sub	sp, #16
 80042c0:	af00      	add	r7, sp, #0
 80042c2:	6078      	str	r0, [r7, #4]
 80042c4:	6039      	str	r1, [r7, #0]
 80042c6:	687b      	ldr	r3, [r7, #4]
 80042c8:	2b00      	cmp	r3, #0
 80042ca:	d101      	bne.n	80042d0 <HAL_RCC_ClockConfig+0x14>
 80042cc:	2301      	movs	r3, #1
 80042ce:	e0cc      	b.n	800446a <HAL_RCC_ClockConfig+0x1ae>
 80042d0:	4b68      	ldr	r3, [pc, #416]	@ (8004474 <HAL_RCC_ClockConfig+0x1b8>)
 80042d2:	681b      	ldr	r3, [r3, #0]
 80042d4:	f003 0307 	and.w	r3, r3, #7
 80042d8:	683a      	ldr	r2, [r7, #0]
 80042da:	429a      	cmp	r2, r3
 80042dc:	d90c      	bls.n	80042f8 <HAL_RCC_ClockConfig+0x3c>
 80042de:	4b65      	ldr	r3, [pc, #404]	@ (8004474 <HAL_RCC_ClockConfig+0x1b8>)
 80042e0:	683a      	ldr	r2, [r7, #0]
 80042e2:	b2d2      	uxtb	r2, r2
 80042e4:	701a      	strb	r2, [r3, #0]
 80042e6:	4b63      	ldr	r3, [pc, #396]	@ (8004474 <HAL_RCC_ClockConfig+0x1b8>)
 80042e8:	681b      	ldr	r3, [r3, #0]
 80042ea:	f003 0307 	and.w	r3, r3, #7
 80042ee:	683a      	ldr	r2, [r7, #0]
 80042f0:	429a      	cmp	r2, r3
 80042f2:	d001      	beq.n	80042f8 <HAL_RCC_ClockConfig+0x3c>
 80042f4:	2301      	movs	r3, #1
 80042f6:	e0b8      	b.n	800446a <HAL_RCC_ClockConfig+0x1ae>
 80042f8:	687b      	ldr	r3, [r7, #4]
 80042fa:	681b      	ldr	r3, [r3, #0]
 80042fc:	f003 0302 	and.w	r3, r3, #2
 8004300:	2b00      	cmp	r3, #0
 8004302:	d020      	beq.n	8004346 <HAL_RCC_ClockConfig+0x8a>
 8004304:	687b      	ldr	r3, [r7, #4]
 8004306:	681b      	ldr	r3, [r3, #0]
 8004308:	f003 0304 	and.w	r3, r3, #4
 800430c:	2b00      	cmp	r3, #0
 800430e:	d005      	beq.n	800431c <HAL_RCC_ClockConfig+0x60>
 8004310:	4b59      	ldr	r3, [pc, #356]	@ (8004478 <HAL_RCC_ClockConfig+0x1bc>)
 8004312:	689b      	ldr	r3, [r3, #8]
 8004314:	4a58      	ldr	r2, [pc, #352]	@ (8004478 <HAL_RCC_ClockConfig+0x1bc>)
 8004316:	f443 53e0 	orr.w	r3, r3, #7168	@ 0x1c00
 800431a:	6093      	str	r3, [r2, #8]
 800431c:	687b      	ldr	r3, [r7, #4]
 800431e:	681b      	ldr	r3, [r3, #0]
 8004320:	f003 0308 	and.w	r3, r3, #8
 8004324:	2b00      	cmp	r3, #0
 8004326:	d005      	beq.n	8004334 <HAL_RCC_ClockConfig+0x78>
 8004328:	4b53      	ldr	r3, [pc, #332]	@ (8004478 <HAL_RCC_ClockConfig+0x1bc>)
 800432a:	689b      	ldr	r3, [r3, #8]
 800432c:	4a52      	ldr	r2, [pc, #328]	@ (8004478 <HAL_RCC_ClockConfig+0x1bc>)
 800432e:	f443 4360 	orr.w	r3, r3, #57344	@ 0xe000
 8004332:	6093      	str	r3, [r2, #8]
 8004334:	4b50      	ldr	r3, [pc, #320]	@ (8004478 <HAL_RCC_ClockConfig+0x1bc>)
 8004336:	689b      	ldr	r3, [r3, #8]
 8004338:	f023 02f0 	bic.w	r2, r3, #240	@ 0xf0
 800433c:	687b      	ldr	r3, [r7, #4]
 800433e:	689b      	ldr	r3, [r3, #8]
 8004340:	494d      	ldr	r1, [pc, #308]	@ (8004478 <HAL_RCC_ClockConfig+0x1bc>)
 8004342:	4313      	orrs	r3, r2
 8004344:	608b      	str	r3, [r1, #8]
 8004346:	687b      	ldr	r3, [r7, #4]
 8004348:	681b      	ldr	r3, [r3, #0]
 800434a:	f003 0301 	and.w	r3, r3, #1
 800434e:	2b00      	cmp	r3, #0
 8004350:	d044      	beq.n	80043dc <HAL_RCC_ClockConfig+0x120>
 8004352:	687b      	ldr	r3, [r7, #4]
 8004354:	685b      	ldr	r3, [r3, #4]
 8004356:	2b01      	cmp	r3, #1
 8004358:	d107      	bne.n	800436a <HAL_RCC_ClockConfig+0xae>
 800435a:	4b47      	ldr	r3, [pc, #284]	@ (8004478 <HAL_RCC_ClockConfig+0x1bc>)
 800435c:	681b      	ldr	r3, [r3, #0]
 800435e:	f403 3300 	and.w	r3, r3, #131072	@ 0x20000
 8004362:	2b00      	cmp	r3, #0
 8004364:	d119      	bne.n	800439a <HAL_RCC_ClockConfig+0xde>
 8004366:	2301      	movs	r3, #1
 8004368:	e07f      	b.n	800446a <HAL_RCC_ClockConfig+0x1ae>
 800436a:	687b      	ldr	r3, [r7, #4]
 800436c:	685b      	ldr	r3, [r3, #4]
 800436e:	2b02      	cmp	r3, #2
 8004370:	d003      	beq.n	800437a <HAL_RCC_ClockConfig+0xbe>
 8004372:	687b      	ldr	r3, [r7, #4]
 8004374:	685b      	ldr	r3, [r3, #4]
 8004376:	2b03      	cmp	r3, #3
 8004378:	d107      	bne.n	800438a <HAL_RCC_ClockConfig+0xce>
 800437a:	4b3f      	ldr	r3, [pc, #252]	@ (8004478 <HAL_RCC_ClockConfig+0x1bc>)
 800437c:	681b      	ldr	r3, [r3, #0]
 800437e:	f003 7300 	and.w	r3, r3, #33554432	@ 0x2000000
 8004382:	2b00      	cmp	r3, #0
 8004384:	d109      	bne.n	800439a <HAL_RCC_ClockConfig+0xde>
 8004386:	2301      	movs	r3, #1
 8004388:	e06f      	b.n	800446a <HAL_RCC_ClockConfig+0x1ae>
 800438a:	4b3b      	ldr	r3, [pc, #236]	@ (8004478 <HAL_RCC_ClockConfig+0x1bc>)
 800438c:	681b      	ldr	r3, [r3, #0]
 800438e:	f003 0302 	and.w	r3, r3, #2
 8004392:	2b00      	cmp	r3, #0
 8004394:	d101      	bne.n	800439a <HAL_RCC_ClockConfig+0xde>
 8004396:	2301      	movs	r3, #1
 8004398:	e067      	b.n	800446a <HAL_RCC_ClockConfig+0x1ae>
 800439a:	4b37      	ldr	r3, [pc, #220]	@ (8004478 <HAL_RCC_ClockConfig+0x1bc>)
 800439c:	689b      	ldr	r3, [r3, #8]
 800439e:	f023 0203 	bic.w	r2, r3, #3
 80043a2:	687b      	ldr	r3, [r7, #4]
 80043a4:	685b      	ldr	r3, [r3, #4]
 80043a6:	4934      	ldr	r1, [pc, #208]	@ (8004478 <HAL_RCC_ClockConfig+0x1bc>)
 80043a8:	4313      	orrs	r3, r2
 80043aa:	608b      	str	r3, [r1, #8]
 80043ac:	f7fe f8a4 	bl	80024f8 <HAL_GetTick>
 80043b0:	60f8      	str	r0, [r7, #12]
 80043b2:	e00a      	b.n	80043ca <HAL_RCC_ClockConfig+0x10e>
 80043b4:	f7fe f8a0 	bl	80024f8 <HAL_GetTick>
 80043b8:	4602      	mov	r2, r0
 80043ba:	68fb      	ldr	r3, [r7, #12]
 80043bc:	1ad3      	subs	r3, r2, r3
 80043be:	f241 3288 	movw	r2, #5000	@ 0x1388
 80043c2:	4293      	cmp	r3, r2
 80043c4:	d901      	bls.n	80043ca <HAL_RCC_ClockConfig+0x10e>
 80043c6:	2303      	movs	r3, #3
 80043c8:	e04f      	b.n	800446a <HAL_RCC_ClockConfig+0x1ae>
 80043ca:	4b2b      	ldr	r3, [pc, #172]	@ (8004478 <HAL_RCC_ClockConfig+0x1bc>)
 80043cc:	689b      	ldr	r3, [r3, #8]
 80043ce:	f003 020c 	and.w	r2, r3, #12
 80043d2:	687b      	ldr	r3, [r7, #4]
 80043d4:	685b      	ldr	r3, [r3, #4]
 80043d6:	009b      	lsls	r3, r3, #2
 80043d8:	429a      	cmp	r2, r3
 80043da:	d1eb      	bne.n	80043b4 <HAL_RCC_ClockConfig+0xf8>
 80043dc:	4b25      	ldr	r3, [pc, #148]	@ (8004474 <HAL_RCC_ClockConfig+0x1b8>)
 80043de:	681b      	ldr	r3, [r3, #0]
 80043e0:	f003 0307 	and.w	r3, r3, #7
 80043e4:	683a      	ldr	r2, [r7, #0]
 80043e6:	429a      	cmp	r2, r3
 80043e8:	d20c      	bcs.n	8004404 <HAL_RCC_ClockConfig+0x148>
 80043ea:	4b22      	ldr	r3, [pc, #136]	@ (8004474 <HAL_RCC_ClockConfig+0x1b8>)
 80043ec:	683a      	ldr	r2, [r7, #0]
 80043ee:	b2d2      	uxtb	r2, r2
 80043f0:	701a      	strb	r2, [r3, #0]
 80043f2:	4b20      	ldr	r3, [pc, #128]	@ (8004474 <HAL_RCC_ClockConfig+0x1b8>)
 80043f4:	681b      	ldr	r3, [r3, #0]
 80043f6:	f003 0307 	and.w	r3, r3, #7
 80043fa:	683a      	ldr	r2, [r7, #0]
 80043fc:	429a      	cmp	r2, r3
 80043fe:	d001      	beq.n	8004404 <HAL_RCC_ClockConfig+0x148>
 8004400:	2301      	movs	r3, #1
 8004402:	e032      	b.n	800446a <HAL_RCC_ClockConfig+0x1ae>
 8004404:	687b      	ldr	r3, [r7, #4]
 8004406:	681b      	ldr	r3, [r3, #0]
 8004408:	f003 0304 	and.w	r3, r3, #4
 800440c:	2b00      	cmp	r3, #0
 800440e:	d008      	beq.n	8004422 <HAL_RCC_ClockConfig+0x166>
 8004410:	4b19      	ldr	r3, [pc, #100]	@ (8004478 <HAL_RCC_ClockConfig+0x1bc>)
 8004412:	689b      	ldr	r3, [r3, #8]
 8004414:	f423 52e0 	bic.w	r2, r3, #7168	@ 0x1c00
 8004418:	687b      	ldr	r3, [r7, #4]
 800441a:	68db      	ldr	r3, [r3, #12]
 800441c:	4916      	ldr	r1, [pc, #88]	@ (8004478 <HAL_RCC_ClockConfig+0x1bc>)
 800441e:	4313      	orrs	r3, r2
 8004420:	608b      	str	r3, [r1, #8]
 8004422:	687b      	ldr	r3, [r7, #4]
 8004424:	681b      	ldr	r3, [r3, #0]
 8004426:	f003 0308 	and.w	r3, r3, #8
 800442a:	2b00      	cmp	r3, #0
 800442c:	d009      	beq.n	8004442 <HAL_RCC_ClockConfig+0x186>
 800442e:	4b12      	ldr	r3, [pc, #72]	@ (8004478 <HAL_RCC_ClockConfig+0x1bc>)
 8004430:	689b      	ldr	r3, [r3, #8]
 8004432:	f423 4260 	bic.w	r2, r3, #57344	@ 0xe000
 8004436:	687b      	ldr	r3, [r7, #4]
 8004438:	691b      	ldr	r3, [r3, #16]
 800443a:	00db      	lsls	r3, r3, #3
 800443c:	490e      	ldr	r1, [pc, #56]	@ (8004478 <HAL_RCC_ClockConfig+0x1bc>)
 800443e:	4313      	orrs	r3, r2
 8004440:	608b      	str	r3, [r1, #8]
 8004442:	f000 f821 	bl	8004488 <HAL_RCC_GetSysClockFreq>
 8004446:	4602      	mov	r2, r0
 8004448:	4b0b      	ldr	r3, [pc, #44]	@ (8004478 <HAL_RCC_ClockConfig+0x1bc>)
 800444a:	689b      	ldr	r3, [r3, #8]
 800444c:	091b      	lsrs	r3, r3, #4
 800444e:	f003 030f 	and.w	r3, r3, #15
 8004452:	490a      	ldr	r1, [pc, #40]	@ (800447c <HAL_RCC_ClockConfig+0x1c0>)
 8004454:	5ccb      	ldrb	r3, [r1, r3]
 8004456:	fa22 f303 	lsr.w	r3, r2, r3
 800445a:	4a09      	ldr	r2, [pc, #36]	@ (8004480 <HAL_RCC_ClockConfig+0x1c4>)
 800445c:	6013      	str	r3, [r2, #0]
 800445e:	4b09      	ldr	r3, [pc, #36]	@ (8004484 <HAL_RCC_ClockConfig+0x1c8>)
 8004460:	681b      	ldr	r3, [r3, #0]
 8004462:	4618      	mov	r0, r3
 8004464:	f7fe f804 	bl	8002470 <HAL_InitTick>
 8004468:	2300      	movs	r3, #0
 800446a:	4618      	mov	r0, r3
 800446c:	3710      	adds	r7, #16
 800446e:	46bd      	mov	sp, r7
 8004470:	bd80      	pop	{r7, pc}
 8004472:	bf00      	nop
 8004474:	40023c00 	.word	0x40023c00
 8004478:	40023800 	.word	0x40023800
 800447c:	0800b2dc 	.word	0x0800b2dc
 8004480:	20000008 	.word	0x20000008
 8004484:	2000000c 	.word	0x2000000c

08004488 <HAL_RCC_GetSysClockFreq>:
 8004488:	e92d 4fb0 	stmdb	sp!, {r4, r5, r7, r8, r9, sl, fp, lr}
 800448c:	b094      	sub	sp, #80	@ 0x50
 800448e:	af00      	add	r7, sp, #0
 8004490:	2300      	movs	r3, #0
 8004492:	647b      	str	r3, [r7, #68]	@ 0x44
 8004494:	2300      	movs	r3, #0
 8004496:	64fb      	str	r3, [r7, #76]	@ 0x4c
 8004498:	2300      	movs	r3, #0
 800449a:	643b      	str	r3, [r7, #64]	@ 0x40
 800449c:	2300      	movs	r3, #0
 800449e:	64bb      	str	r3, [r7, #72]	@ 0x48
 80044a0:	4b79      	ldr	r3, [pc, #484]	@ (8004688 <HAL_RCC_GetSysClockFreq+0x200>)
 80044a2:	689b      	ldr	r3, [r3, #8]
 80044a4:	f003 030c 	and.w	r3, r3, #12
 80044a8:	2b08      	cmp	r3, #8
 80044aa:	d00d      	beq.n	80044c8 <HAL_RCC_GetSysClockFreq+0x40>
 80044ac:	2b08      	cmp	r3, #8
 80044ae:	f200 80e1 	bhi.w	8004674 <HAL_RCC_GetSysClockFreq+0x1ec>
 80044b2:	2b00      	cmp	r3, #0
 80044b4:	d002      	beq.n	80044bc <HAL_RCC_GetSysClockFreq+0x34>
 80044b6:	2b04      	cmp	r3, #4
 80044b8:	d003      	beq.n	80044c2 <HAL_RCC_GetSysClockFreq+0x3a>
 80044ba:	e0db      	b.n	8004674 <HAL_RCC_GetSysClockFreq+0x1ec>
 80044bc:	4b73      	ldr	r3, [pc, #460]	@ (800468c <HAL_RCC_GetSysClockFreq+0x204>)
 80044be:	64bb      	str	r3, [r7, #72]	@ 0x48
 80044c0:	e0db      	b.n	800467a <HAL_RCC_GetSysClockFreq+0x1f2>
 80044c2:	4b73      	ldr	r3, [pc, #460]	@ (8004690 <HAL_RCC_GetSysClockFreq+0x208>)
 80044c4:	64bb      	str	r3, [r7, #72]	@ 0x48
 80044c6:	e0d8      	b.n	800467a <HAL_RCC_GetSysClockFreq+0x1f2>
 80044c8:	4b6f      	ldr	r3, [pc, #444]	@ (8004688 <HAL_RCC_GetSysClockFreq+0x200>)
 80044ca:	685b      	ldr	r3, [r3, #4]
 80044cc:	f003 033f 	and.w	r3, r3, #63	@ 0x3f
 80044d0:	647b      	str	r3, [r7, #68]	@ 0x44
 80044d2:	4b6d      	ldr	r3, [pc, #436]	@ (8004688 <HAL_RCC_GetSysClockFreq+0x200>)
 80044d4:	685b      	ldr	r3, [r3, #4]
 80044d6:	f403 0380 	and.w	r3, r3, #4194304	@ 0x400000
 80044da:	2b00      	cmp	r3, #0
 80044dc:	d063      	beq.n	80045a6 <HAL_RCC_GetSysClockFreq+0x11e>
 80044de:	4b6a      	ldr	r3, [pc, #424]	@ (8004688 <HAL_RCC_GetSysClockFreq+0x200>)
 80044e0:	685b      	ldr	r3, [r3, #4]
 80044e2:	099b      	lsrs	r3, r3, #6
 80044e4:	2200      	movs	r2, #0
 80044e6:	63bb      	str	r3, [r7, #56]	@ 0x38
 80044e8:	63fa      	str	r2, [r7, #60]	@ 0x3c
 80044ea:	6bbb      	ldr	r3, [r7, #56]	@ 0x38
 80044ec:	f3c3 0308 	ubfx	r3, r3, #0, #9
 80044f0:	633b      	str	r3, [r7, #48]	@ 0x30
 80044f2:	2300      	movs	r3, #0
 80044f4:	637b      	str	r3, [r7, #52]	@ 0x34
 80044f6:	e9d7 450c 	ldrd	r4, r5, [r7, #48]	@ 0x30
 80044fa:	4622      	mov	r2, r4
 80044fc:	462b      	mov	r3, r5
 80044fe:	f04f 0000 	mov.w	r0, #0
 8004502:	f04f 0100 	mov.w	r1, #0
 8004506:	0159      	lsls	r1, r3, #5
 8004508:	ea41 61d2 	orr.w	r1, r1, r2, lsr #27
 800450c:	0150      	lsls	r0, r2, #5
 800450e:	4602      	mov	r2, r0
 8004510:	460b      	mov	r3, r1
 8004512:	4621      	mov	r1, r4
 8004514:	1a51      	subs	r1, r2, r1
 8004516:	6139      	str	r1, [r7, #16]
 8004518:	4629      	mov	r1, r5
 800451a:	eb63 0301 	sbc.w	r3, r3, r1
 800451e:	617b      	str	r3, [r7, #20]
 8004520:	f04f 0200 	mov.w	r2, #0
 8004524:	f04f 0300 	mov.w	r3, #0
 8004528:	e9d7 ab04 	ldrd	sl, fp, [r7, #16]
 800452c:	4659      	mov	r1, fp
 800452e:	018b      	lsls	r3, r1, #6
 8004530:	4651      	mov	r1, sl
 8004532:	ea43 6391 	orr.w	r3, r3, r1, lsr #26
 8004536:	4651      	mov	r1, sl
 8004538:	018a      	lsls	r2, r1, #6
 800453a:	4651      	mov	r1, sl
 800453c:	ebb2 0801 	subs.w	r8, r2, r1
 8004540:	4659      	mov	r1, fp
 8004542:	eb63 0901 	sbc.w	r9, r3, r1
 8004546:	f04f 0200 	mov.w	r2, #0
 800454a:	f04f 0300 	mov.w	r3, #0
 800454e:	ea4f 03c9 	mov.w	r3, r9, lsl #3
 8004552:	ea43 7358 	orr.w	r3, r3, r8, lsr #29
 8004556:	ea4f 02c8 	mov.w	r2, r8, lsl #3
 800455a:	4690      	mov	r8, r2
 800455c:	4699      	mov	r9, r3
 800455e:	4623      	mov	r3, r4
 8004560:	eb18 0303 	adds.w	r3, r8, r3
 8004564:	60bb      	str	r3, [r7, #8]
 8004566:	462b      	mov	r3, r5
 8004568:	eb49 0303 	adc.w	r3, r9, r3
 800456c:	60fb      	str	r3, [r7, #12]
 800456e:	f04f 0200 	mov.w	r2, #0
 8004572:	f04f 0300 	mov.w	r3, #0
 8004576:	e9d7 4502 	ldrd	r4, r5, [r7, #8]
 800457a:	4629      	mov	r1, r5
 800457c:	024b      	lsls	r3, r1, #9
 800457e:	4621      	mov	r1, r4
 8004580:	ea43 53d1 	orr.w	r3, r3, r1, lsr #23
 8004584:	4621      	mov	r1, r4
 8004586:	024a      	lsls	r2, r1, #9
 8004588:	4610      	mov	r0, r2
 800458a:	4619      	mov	r1, r3
 800458c:	6c7b      	ldr	r3, [r7, #68]	@ 0x44
 800458e:	2200      	movs	r2, #0
 8004590:	62bb      	str	r3, [r7, #40]	@ 0x28
 8004592:	62fa      	str	r2, [r7, #44]	@ 0x2c
 8004594:	e9d7 230a 	ldrd	r2, r3, [r7, #40]	@ 0x28
 8004598:	f7fb fe72 	bl	8000280 <__aeabi_uldivmod>
 800459c:	4602      	mov	r2, r0
 800459e:	460b      	mov	r3, r1
 80045a0:	4613      	mov	r3, r2
 80045a2:	64fb      	str	r3, [r7, #76]	@ 0x4c
 80045a4:	e058      	b.n	8004658 <HAL_RCC_GetSysClockFreq+0x1d0>
 80045a6:	4b38      	ldr	r3, [pc, #224]	@ (8004688 <HAL_RCC_GetSysClockFreq+0x200>)
 80045a8:	685b      	ldr	r3, [r3, #4]
 80045aa:	099b      	lsrs	r3, r3, #6
 80045ac:	2200      	movs	r2, #0
 80045ae:	4618      	mov	r0, r3
 80045b0:	4611      	mov	r1, r2
 80045b2:	f3c0 0308 	ubfx	r3, r0, #0, #9
 80045b6:	623b      	str	r3, [r7, #32]
 80045b8:	2300      	movs	r3, #0
 80045ba:	627b      	str	r3, [r7, #36]	@ 0x24
 80045bc:	e9d7 8908 	ldrd	r8, r9, [r7, #32]
 80045c0:	4642      	mov	r2, r8
 80045c2:	464b      	mov	r3, r9
 80045c4:	f04f 0000 	mov.w	r0, #0
 80045c8:	f04f 0100 	mov.w	r1, #0
 80045cc:	0159      	lsls	r1, r3, #5
 80045ce:	ea41 61d2 	orr.w	r1, r1, r2, lsr #27
 80045d2:	0150      	lsls	r0, r2, #5
 80045d4:	4602      	mov	r2, r0
 80045d6:	460b      	mov	r3, r1
 80045d8:	4641      	mov	r1, r8
 80045da:	ebb2 0a01 	subs.w	sl, r2, r1
 80045de:	4649      	mov	r1, r9
 80045e0:	eb63 0b01 	sbc.w	fp, r3, r1
 80045e4:	f04f 0200 	mov.w	r2, #0
 80045e8:	f04f 0300 	mov.w	r3, #0
 80045ec:	ea4f 138b 	mov.w	r3, fp, lsl #6
 80045f0:	ea43 639a 	orr.w	r3, r3, sl, lsr #26
 80045f4:	ea4f 128a 	mov.w	r2, sl, lsl #6
 80045f8:	ebb2 040a 	subs.w	r4, r2, sl
 80045fc:	eb63 050b 	sbc.w	r5, r3, fp
 8004600:	f04f 0200 	mov.w	r2, #0
 8004604:	f04f 0300 	mov.w	r3, #0
 8004608:	00eb      	lsls	r3, r5, #3
 800460a:	ea43 7354 	orr.w	r3, r3, r4, lsr #29
 800460e:	00e2      	lsls	r2, r4, #3
 8004610:	4614      	mov	r4, r2
 8004612:	461d      	mov	r5, r3
 8004614:	4643      	mov	r3, r8
 8004616:	18e3      	adds	r3, r4, r3
 8004618:	603b      	str	r3, [r7, #0]
 800461a:	464b      	mov	r3, r9
 800461c:	eb45 0303 	adc.w	r3, r5, r3
 8004620:	607b      	str	r3, [r7, #4]
 8004622:	f04f 0200 	mov.w	r2, #0
 8004626:	f04f 0300 	mov.w	r3, #0
 800462a:	e9d7 4500 	ldrd	r4, r5, [r7]
 800462e:	4629      	mov	r1, r5
 8004630:	028b      	lsls	r3, r1, #10
 8004632:	4621      	mov	r1, r4
 8004634:	ea43 5391 	orr.w	r3, r3, r1, lsr #22
 8004638:	4621      	mov	r1, r4
 800463a:	028a      	lsls	r2, r1, #10
 800463c:	4610      	mov	r0, r2
 800463e:	4619      	mov	r1, r3
 8004640:	6c7b      	ldr	r3, [r7, #68]	@ 0x44
 8004642:	2200      	movs	r2, #0
 8004644:	61bb      	str	r3, [r7, #24]
 8004646:	61fa      	str	r2, [r7, #28]
 8004648:	e9d7 2306 	ldrd	r2, r3, [r7, #24]
 800464c:	f7fb fe18 	bl	8000280 <__aeabi_uldivmod>
 8004650:	4602      	mov	r2, r0
 8004652:	460b      	mov	r3, r1
 8004654:	4613      	mov	r3, r2
 8004656:	64fb      	str	r3, [r7, #76]	@ 0x4c
 8004658:	4b0b      	ldr	r3, [pc, #44]	@ (8004688 <HAL_RCC_GetSysClockFreq+0x200>)
 800465a:	685b      	ldr	r3, [r3, #4]
 800465c:	0c1b      	lsrs	r3, r3, #16
 800465e:	f003 0303 	and.w	r3, r3, #3
 8004662:	3301      	adds	r3, #1
 8004664:	005b      	lsls	r3, r3, #1
 8004666:	643b      	str	r3, [r7, #64]	@ 0x40
 8004668:	6cfa      	ldr	r2, [r7, #76]	@ 0x4c
 800466a:	6c3b      	ldr	r3, [r7, #64]	@ 0x40
 800466c:	fbb2 f3f3 	udiv	r3, r2, r3
 8004670:	64bb      	str	r3, [r7, #72]	@ 0x48
 8004672:	e002      	b.n	800467a <HAL_RCC_GetSysClockFreq+0x1f2>
 8004674:	4b05      	ldr	r3, [pc, #20]	@ (800468c <HAL_RCC_GetSysClockFreq+0x204>)
 8004676:	64bb      	str	r3, [r7, #72]	@ 0x48
 8004678:	bf00      	nop
 800467a:	6cbb      	ldr	r3, [r7, #72]	@ 0x48
 800467c:	4618      	mov	r0, r3
 800467e:	3750      	adds	r7, #80	@ 0x50
 8004680:	46bd      	mov	sp, r7
 8004682:	e8bd 8fb0 	ldmia.w	sp!, {r4, r5, r7, r8, r9, sl, fp, pc}
 8004686:	bf00      	nop
 8004688:	40023800 	.word	0x40023800
 800468c:	00f42400 	.word	0x00f42400
 8004690:	007a1200 	.word	0x007a1200

08004694 <HAL_RCC_GetHCLKFreq>:
 8004694:	b480      	push	{r7}
 8004696:	af00      	add	r7, sp, #0
 8004698:	4b03      	ldr	r3, [pc, #12]	@ (80046a8 <HAL_RCC_GetHCLKFreq+0x14>)
 800469a:	681b      	ldr	r3, [r3, #0]
 800469c:	4618      	mov	r0, r3
 800469e:	46bd      	mov	sp, r7
 80046a0:	f85d 7b04 	ldr.w	r7, [sp], #4
 80046a4:	4770      	bx	lr
 80046a6:	bf00      	nop
 80046a8:	20000008 	.word	0x20000008

080046ac <HAL_RCC_GetPCLK1Freq>:
 80046ac:	b580      	push	{r7, lr}
 80046ae:	af00      	add	r7, sp, #0
 80046b0:	f7ff fff0 	bl	8004694 <HAL_RCC_GetHCLKFreq>
 80046b4:	4602      	mov	r2, r0
 80046b6:	4b05      	ldr	r3, [pc, #20]	@ (80046cc <HAL_RCC_GetPCLK1Freq+0x20>)
 80046b8:	689b      	ldr	r3, [r3, #8]
 80046ba:	0a9b      	lsrs	r3, r3, #10
 80046bc:	f003 0307 	and.w	r3, r3, #7
 80046c0:	4903      	ldr	r1, [pc, #12]	@ (80046d0 <HAL_RCC_GetPCLK1Freq+0x24>)
 80046c2:	5ccb      	ldrb	r3, [r1, r3]
 80046c4:	fa22 f303 	lsr.w	r3, r2, r3
 80046c8:	4618      	mov	r0, r3
 80046ca:	bd80      	pop	{r7, pc}
 80046cc:	40023800 	.word	0x40023800
 80046d0:	0800b2ec 	.word	0x0800b2ec

080046d4 <HAL_RCC_GetPCLK2Freq>:
 80046d4:	b580      	push	{r7, lr}
 80046d6:	af00      	add	r7, sp, #0
 80046d8:	f7ff ffdc 	bl	8004694 <HAL_RCC_GetHCLKFreq>
 80046dc:	4602      	mov	r2, r0
 80046de:	4b05      	ldr	r3, [pc, #20]	@ (80046f4 <HAL_RCC_GetPCLK2Freq+0x20>)
 80046e0:	689b      	ldr	r3, [r3, #8]
 80046e2:	0b5b      	lsrs	r3, r3, #13
 80046e4:	f003 0307 	and.w	r3, r3, #7
 80046e8:	4903      	ldr	r1, [pc, #12]	@ (80046f8 <HAL_RCC_GetPCLK2Freq+0x24>)
 80046ea:	5ccb      	ldrb	r3, [r1, r3]
 80046ec:	fa22 f303 	lsr.w	r3, r2, r3
 80046f0:	4618      	mov	r0, r3
 80046f2:	bd80      	pop	{r7, pc}
 80046f4:	40023800 	.word	0x40023800
 80046f8:	0800b2ec 	.word	0x0800b2ec

080046fc <HAL_SPI_Init>:
 80046fc:	b580      	push	{r7, lr}
 80046fe:	b082      	sub	sp, #8
 8004700:	af00      	add	r7, sp, #0
 8004702:	6078      	str	r0, [r7, #4]
 8004704:	687b      	ldr	r3, [r7, #4]
 8004706:	2b00      	cmp	r3, #0
 8004708:	d101      	bne.n	800470e <HAL_SPI_Init+0x12>
 800470a:	2301      	movs	r3, #1
 800470c:	e07b      	b.n	8004806 <HAL_SPI_Init+0x10a>
 800470e:	687b      	ldr	r3, [r7, #4]
 8004710:	6a5b      	ldr	r3, [r3, #36]	@ 0x24
 8004712:	2b00      	cmp	r3, #0
 8004714:	d108      	bne.n	8004728 <HAL_SPI_Init+0x2c>
 8004716:	687b      	ldr	r3, [r7, #4]
 8004718:	685b      	ldr	r3, [r3, #4]
 800471a:	f5b3 7f82 	cmp.w	r3, #260	@ 0x104
 800471e:	d009      	beq.n	8004734 <HAL_SPI_Init+0x38>
 8004720:	687b      	ldr	r3, [r7, #4]
 8004722:	2200      	movs	r2, #0
 8004724:	61da      	str	r2, [r3, #28]
 8004726:	e005      	b.n	8004734 <HAL_SPI_Init+0x38>
 8004728:	687b      	ldr	r3, [r7, #4]
 800472a:	2200      	movs	r2, #0
 800472c:	611a      	str	r2, [r3, #16]
 800472e:	687b      	ldr	r3, [r7, #4]
 8004730:	2200      	movs	r2, #0
 8004732:	615a      	str	r2, [r3, #20]
 8004734:	687b      	ldr	r3, [r7, #4]
 8004736:	2200      	movs	r2, #0
 8004738:	629a      	str	r2, [r3, #40]	@ 0x28
 800473a:	687b      	ldr	r3, [r7, #4]
 800473c:	f893 3051 	ldrb.w	r3, [r3, #81]	@ 0x51
 8004740:	b2db      	uxtb	r3, r3
 8004742:	2b00      	cmp	r3, #0
 8004744:	d106      	bne.n	8004754 <HAL_SPI_Init+0x58>
 8004746:	687b      	ldr	r3, [r7, #4]
 8004748:	2200      	movs	r2, #0
 800474a:	f883 2050 	strb.w	r2, [r3, #80]	@ 0x50
 800474e:	6878      	ldr	r0, [r7, #4]
 8004750:	f7fd f9aa 	bl	8001aa8 <HAL_SPI_MspInit>
 8004754:	687b      	ldr	r3, [r7, #4]
 8004756:	2202      	movs	r2, #2
 8004758:	f883 2051 	strb.w	r2, [r3, #81]	@ 0x51
 800475c:	687b      	ldr	r3, [r7, #4]
 800475e:	681b      	ldr	r3, [r3, #0]
 8004760:	681a      	ldr	r2, [r3, #0]
 8004762:	687b      	ldr	r3, [r7, #4]
 8004764:	681b      	ldr	r3, [r3, #0]
 8004766:	f022 0240 	bic.w	r2, r2, #64	@ 0x40
 800476a:	601a      	str	r2, [r3, #0]
 800476c:	687b      	ldr	r3, [r7, #4]
 800476e:	685b      	ldr	r3, [r3, #4]
 8004770:	f403 7282 	and.w	r2, r3, #260	@ 0x104
 8004774:	687b      	ldr	r3, [r7, #4]
 8004776:	689b      	ldr	r3, [r3, #8]
 8004778:	f403 4304 	and.w	r3, r3, #33792	@ 0x8400
 800477c:	431a      	orrs	r2, r3
 800477e:	687b      	ldr	r3, [r7, #4]
 8004780:	68db      	ldr	r3, [r3, #12]
 8004782:	f403 6300 	and.w	r3, r3, #2048	@ 0x800
 8004786:	431a      	orrs	r2, r3
 8004788:	687b      	ldr	r3, [r7, #4]
 800478a:	691b      	ldr	r3, [r3, #16]
 800478c:	f003 0302 	and.w	r3, r3, #2
 8004790:	431a      	orrs	r2, r3
 8004792:	687b      	ldr	r3, [r7, #4]
 8004794:	695b      	ldr	r3, [r3, #20]
 8004796:	f003 0301 	and.w	r3, r3, #1
 800479a:	431a      	orrs	r2, r3
 800479c:	687b      	ldr	r3, [r7, #4]
 800479e:	699b      	ldr	r3, [r3, #24]
 80047a0:	f403 7300 	and.w	r3, r3, #512	@ 0x200
 80047a4:	431a      	orrs	r2, r3
 80047a6:	687b      	ldr	r3, [r7, #4]
 80047a8:	69db      	ldr	r3, [r3, #28]
 80047aa:	f003 0338 	and.w	r3, r3, #56	@ 0x38
 80047ae:	431a      	orrs	r2, r3
 80047b0:	687b      	ldr	r3, [r7, #4]
 80047b2:	6a1b      	ldr	r3, [r3, #32]
 80047b4:	f003 0380 	and.w	r3, r3, #128	@ 0x80
 80047b8:	ea42 0103 	orr.w	r1, r2, r3
 80047bc:	687b      	ldr	r3, [r7, #4]
 80047be:	6a9b      	ldr	r3, [r3, #40]	@ 0x28
 80047c0:	f403 5200 	and.w	r2, r3, #8192	@ 0x2000
 80047c4:	687b      	ldr	r3, [r7, #4]
 80047c6:	681b      	ldr	r3, [r3, #0]
 80047c8:	430a      	orrs	r2, r1
 80047ca:	601a      	str	r2, [r3, #0]
 80047cc:	687b      	ldr	r3, [r7, #4]
 80047ce:	699b      	ldr	r3, [r3, #24]
 80047d0:	0c1b      	lsrs	r3, r3, #16
 80047d2:	f003 0104 	and.w	r1, r3, #4
 80047d6:	687b      	ldr	r3, [r7, #4]
 80047d8:	6a5b      	ldr	r3, [r3, #36]	@ 0x24
 80047da:	f003 0210 	and.w	r2, r3, #16
 80047de:	687b      	ldr	r3, [r7, #4]
 80047e0:	681b      	ldr	r3, [r3, #0]
 80047e2:	430a      	orrs	r2, r1
 80047e4:	605a      	str	r2, [r3, #4]
 80047e6:	687b      	ldr	r3, [r7, #4]
 80047e8:	681b      	ldr	r3, [r3, #0]
 80047ea:	69da      	ldr	r2, [r3, #28]
 80047ec:	687b      	ldr	r3, [r7, #4]
 80047ee:	681b      	ldr	r3, [r3, #0]
 80047f0:	f422 6200 	bic.w	r2, r2, #2048	@ 0x800
 80047f4:	61da      	str	r2, [r3, #28]
 80047f6:	687b      	ldr	r3, [r7, #4]
 80047f8:	2200      	movs	r2, #0
 80047fa:	655a      	str	r2, [r3, #84]	@ 0x54
 80047fc:	687b      	ldr	r3, [r7, #4]
 80047fe:	2201      	movs	r2, #1
 8004800:	f883 2051 	strb.w	r2, [r3, #81]	@ 0x51
 8004804:	2300      	movs	r3, #0
 8004806:	4618      	mov	r0, r3
 8004808:	3708      	adds	r7, #8
 800480a:	46bd      	mov	sp, r7
 800480c:	bd80      	pop	{r7, pc}

0800480e <HAL_SPI_Transmit>:
 800480e:	b580      	push	{r7, lr}
 8004810:	b088      	sub	sp, #32
 8004812:	af00      	add	r7, sp, #0
 8004814:	60f8      	str	r0, [r7, #12]
 8004816:	60b9      	str	r1, [r7, #8]
 8004818:	603b      	str	r3, [r7, #0]
 800481a:	4613      	mov	r3, r2
 800481c:	80fb      	strh	r3, [r7, #6]
 800481e:	2300      	movs	r3, #0
 8004820:	77fb      	strb	r3, [r7, #31]
 8004822:	68fb      	ldr	r3, [r7, #12]
 8004824:	f893 3050 	ldrb.w	r3, [r3, #80]	@ 0x50
 8004828:	2b01      	cmp	r3, #1
 800482a:	d101      	bne.n	8004830 <HAL_SPI_Transmit+0x22>
 800482c:	2302      	movs	r3, #2
 800482e:	e126      	b.n	8004a7e <HAL_SPI_Transmit+0x270>
 8004830:	68fb      	ldr	r3, [r7, #12]
 8004832:	2201      	movs	r2, #1
 8004834:	f883 2050 	strb.w	r2, [r3, #80]	@ 0x50
 8004838:	f7fd fe5e 	bl	80024f8 <HAL_GetTick>
 800483c:	61b8      	str	r0, [r7, #24]
 800483e:	88fb      	ldrh	r3, [r7, #6]
 8004840:	82fb      	strh	r3, [r7, #22]
 8004842:	68fb      	ldr	r3, [r7, #12]
 8004844:	f893 3051 	ldrb.w	r3, [r3, #81]	@ 0x51
 8004848:	b2db      	uxtb	r3, r3
 800484a:	2b01      	cmp	r3, #1
 800484c:	d002      	beq.n	8004854 <HAL_SPI_Transmit+0x46>
 800484e:	2302      	movs	r3, #2
 8004850:	77fb      	strb	r3, [r7, #31]
 8004852:	e10b      	b.n	8004a6c <HAL_SPI_Transmit+0x25e>
 8004854:	68bb      	ldr	r3, [r7, #8]
 8004856:	2b00      	cmp	r3, #0
 8004858:	d002      	beq.n	8004860 <HAL_SPI_Transmit+0x52>
 800485a:	88fb      	ldrh	r3, [r7, #6]
 800485c:	2b00      	cmp	r3, #0
 800485e:	d102      	bne.n	8004866 <HAL_SPI_Transmit+0x58>
 8004860:	2301      	movs	r3, #1
 8004862:	77fb      	strb	r3, [r7, #31]
 8004864:	e102      	b.n	8004a6c <HAL_SPI_Transmit+0x25e>
 8004866:	68fb      	ldr	r3, [r7, #12]
 8004868:	2203      	movs	r2, #3
 800486a:	f883 2051 	strb.w	r2, [r3, #81]	@ 0x51
 800486e:	68fb      	ldr	r3, [r7, #12]
 8004870:	2200      	movs	r2, #0
 8004872:	655a      	str	r2, [r3, #84]	@ 0x54
 8004874:	68fb      	ldr	r3, [r7, #12]
 8004876:	68ba      	ldr	r2, [r7, #8]
 8004878:	631a      	str	r2, [r3, #48]	@ 0x30
 800487a:	68fb      	ldr	r3, [r7, #12]
 800487c:	88fa      	ldrh	r2, [r7, #6]
 800487e:	869a      	strh	r2, [r3, #52]	@ 0x34
 8004880:	68fb      	ldr	r3, [r7, #12]
 8004882:	88fa      	ldrh	r2, [r7, #6]
 8004884:	86da      	strh	r2, [r3, #54]	@ 0x36
 8004886:	68fb      	ldr	r3, [r7, #12]
 8004888:	2200      	movs	r2, #0
 800488a:	639a      	str	r2, [r3, #56]	@ 0x38
 800488c:	68fb      	ldr	r3, [r7, #12]
 800488e:	2200      	movs	r2, #0
 8004890:	879a      	strh	r2, [r3, #60]	@ 0x3c
 8004892:	68fb      	ldr	r3, [r7, #12]
 8004894:	2200      	movs	r2, #0
 8004896:	87da      	strh	r2, [r3, #62]	@ 0x3e
 8004898:	68fb      	ldr	r3, [r7, #12]
 800489a:	2200      	movs	r2, #0
 800489c:	645a      	str	r2, [r3, #68]	@ 0x44
 800489e:	68fb      	ldr	r3, [r7, #12]
 80048a0:	2200      	movs	r2, #0
 80048a2:	641a      	str	r2, [r3, #64]	@ 0x40
 80048a4:	68fb      	ldr	r3, [r7, #12]
 80048a6:	689b      	ldr	r3, [r3, #8]
 80048a8:	f5b3 4f00 	cmp.w	r3, #32768	@ 0x8000
 80048ac:	d10f      	bne.n	80048ce <HAL_SPI_Transmit+0xc0>
 80048ae:	68fb      	ldr	r3, [r7, #12]
 80048b0:	681b      	ldr	r3, [r3, #0]
 80048b2:	681a      	ldr	r2, [r3, #0]
 80048b4:	68fb      	ldr	r3, [r7, #12]
 80048b6:	681b      	ldr	r3, [r3, #0]
 80048b8:	f022 0240 	bic.w	r2, r2, #64	@ 0x40
 80048bc:	601a      	str	r2, [r3, #0]
 80048be:	68fb      	ldr	r3, [r7, #12]
 80048c0:	681b      	ldr	r3, [r3, #0]
 80048c2:	681a      	ldr	r2, [r3, #0]
 80048c4:	68fb      	ldr	r3, [r7, #12]
 80048c6:	681b      	ldr	r3, [r3, #0]
 80048c8:	f442 4280 	orr.w	r2, r2, #16384	@ 0x4000
 80048cc:	601a      	str	r2, [r3, #0]
 80048ce:	68fb      	ldr	r3, [r7, #12]
 80048d0:	681b      	ldr	r3, [r3, #0]
 80048d2:	681b      	ldr	r3, [r3, #0]
 80048d4:	f003 0340 	and.w	r3, r3, #64	@ 0x40
 80048d8:	2b40      	cmp	r3, #64	@ 0x40
 80048da:	d007      	beq.n	80048ec <HAL_SPI_Transmit+0xde>
 80048dc:	68fb      	ldr	r3, [r7, #12]
 80048de:	681b      	ldr	r3, [r3, #0]
 80048e0:	681a      	ldr	r2, [r3, #0]
 80048e2:	68fb      	ldr	r3, [r7, #12]
 80048e4:	681b      	ldr	r3, [r3, #0]
 80048e6:	f042 0240 	orr.w	r2, r2, #64	@ 0x40
 80048ea:	601a      	str	r2, [r3, #0]
 80048ec:	68fb      	ldr	r3, [r7, #12]
 80048ee:	68db      	ldr	r3, [r3, #12]
 80048f0:	f5b3 6f00 	cmp.w	r3, #2048	@ 0x800
 80048f4:	d14b      	bne.n	800498e <HAL_SPI_Transmit+0x180>
 80048f6:	68fb      	ldr	r3, [r7, #12]
 80048f8:	685b      	ldr	r3, [r3, #4]
 80048fa:	2b00      	cmp	r3, #0
 80048fc:	d002      	beq.n	8004904 <HAL_SPI_Transmit+0xf6>
 80048fe:	8afb      	ldrh	r3, [r7, #22]
 8004900:	2b01      	cmp	r3, #1
 8004902:	d13e      	bne.n	8004982 <HAL_SPI_Transmit+0x174>
 8004904:	68fb      	ldr	r3, [r7, #12]
 8004906:	6b1b      	ldr	r3, [r3, #48]	@ 0x30
 8004908:	881a      	ldrh	r2, [r3, #0]
 800490a:	68fb      	ldr	r3, [r7, #12]
 800490c:	681b      	ldr	r3, [r3, #0]
 800490e:	60da      	str	r2, [r3, #12]
 8004910:	68fb      	ldr	r3, [r7, #12]
 8004912:	6b1b      	ldr	r3, [r3, #48]	@ 0x30
 8004914:	1c9a      	adds	r2, r3, #2
 8004916:	68fb      	ldr	r3, [r7, #12]
 8004918:	631a      	str	r2, [r3, #48]	@ 0x30
 800491a:	68fb      	ldr	r3, [r7, #12]
 800491c:	8edb      	ldrh	r3, [r3, #54]	@ 0x36
 800491e:	b29b      	uxth	r3, r3
 8004920:	3b01      	subs	r3, #1
 8004922:	b29a      	uxth	r2, r3
 8004924:	68fb      	ldr	r3, [r7, #12]
 8004926:	86da      	strh	r2, [r3, #54]	@ 0x36
 8004928:	e02b      	b.n	8004982 <HAL_SPI_Transmit+0x174>
 800492a:	68fb      	ldr	r3, [r7, #12]
 800492c:	681b      	ldr	r3, [r3, #0]
 800492e:	689b      	ldr	r3, [r3, #8]
 8004930:	f003 0302 	and.w	r3, r3, #2
 8004934:	2b02      	cmp	r3, #2
 8004936:	d112      	bne.n	800495e <HAL_SPI_Transmit+0x150>
 8004938:	68fb      	ldr	r3, [r7, #12]
 800493a:	6b1b      	ldr	r3, [r3, #48]	@ 0x30
 800493c:	881a      	ldrh	r2, [r3, #0]
 800493e:	68fb      	ldr	r3, [r7, #12]
 8004940:	681b      	ldr	r3, [r3, #0]
 8004942:	60da      	str	r2, [r3, #12]
 8004944:	68fb      	ldr	r3, [r7, #12]
 8004946:	6b1b      	ldr	r3, [r3, #48]	@ 0x30
 8004948:	1c9a      	adds	r2, r3, #2
 800494a:	68fb      	ldr	r3, [r7, #12]
 800494c:	631a      	str	r2, [r3, #48]	@ 0x30
 800494e:	68fb      	ldr	r3, [r7, #12]
 8004950:	8edb      	ldrh	r3, [r3, #54]	@ 0x36
 8004952:	b29b      	uxth	r3, r3
 8004954:	3b01      	subs	r3, #1
 8004956:	b29a      	uxth	r2, r3
 8004958:	68fb      	ldr	r3, [r7, #12]
 800495a:	86da      	strh	r2, [r3, #54]	@ 0x36
 800495c:	e011      	b.n	8004982 <HAL_SPI_Transmit+0x174>
 800495e:	f7fd fdcb 	bl	80024f8 <HAL_GetTick>
 8004962:	4602      	mov	r2, r0
 8004964:	69bb      	ldr	r3, [r7, #24]
 8004966:	1ad3      	subs	r3, r2, r3
 8004968:	683a      	ldr	r2, [r7, #0]
 800496a:	429a      	cmp	r2, r3
 800496c:	d803      	bhi.n	8004976 <HAL_SPI_Transmit+0x168>
 800496e:	683b      	ldr	r3, [r7, #0]
 8004970:	f1b3 3fff 	cmp.w	r3, #4294967295
 8004974:	d102      	bne.n	800497c <HAL_SPI_Transmit+0x16e>
 8004976:	683b      	ldr	r3, [r7, #0]
 8004978:	2b00      	cmp	r3, #0
 800497a:	d102      	bne.n	8004982 <HAL_SPI_Transmit+0x174>
 800497c:	2303      	movs	r3, #3
 800497e:	77fb      	strb	r3, [r7, #31]
 8004980:	e074      	b.n	8004a6c <HAL_SPI_Transmit+0x25e>
 8004982:	68fb      	ldr	r3, [r7, #12]
 8004984:	8edb      	ldrh	r3, [r3, #54]	@ 0x36
 8004986:	b29b      	uxth	r3, r3
 8004988:	2b00      	cmp	r3, #0
 800498a:	d1ce      	bne.n	800492a <HAL_SPI_Transmit+0x11c>
 800498c:	e04c      	b.n	8004a28 <HAL_SPI_Transmit+0x21a>
 800498e:	68fb      	ldr	r3, [r7, #12]
 8004990:	685b      	ldr	r3, [r3, #4]
 8004992:	2b00      	cmp	r3, #0
 8004994:	d002      	beq.n	800499c <HAL_SPI_Transmit+0x18e>
 8004996:	8afb      	ldrh	r3, [r7, #22]
 8004998:	2b01      	cmp	r3, #1
 800499a:	d140      	bne.n	8004a1e <HAL_SPI_Transmit+0x210>
 800499c:	68fb      	ldr	r3, [r7, #12]
 800499e:	6b1a      	ldr	r2, [r3, #48]	@ 0x30
 80049a0:	68fb      	ldr	r3, [r7, #12]
 80049a2:	681b      	ldr	r3, [r3, #0]
 80049a4:	330c      	adds	r3, #12
 80049a6:	7812      	ldrb	r2, [r2, #0]
 80049a8:	701a      	strb	r2, [r3, #0]
 80049aa:	68fb      	ldr	r3, [r7, #12]
 80049ac:	6b1b      	ldr	r3, [r3, #48]	@ 0x30
 80049ae:	1c5a      	adds	r2, r3, #1
 80049b0:	68fb      	ldr	r3, [r7, #12]
 80049b2:	631a      	str	r2, [r3, #48]	@ 0x30
 80049b4:	68fb      	ldr	r3, [r7, #12]
 80049b6:	8edb      	ldrh	r3, [r3, #54]	@ 0x36
 80049b8:	b29b      	uxth	r3, r3
 80049ba:	3b01      	subs	r3, #1
 80049bc:	b29a      	uxth	r2, r3
 80049be:	68fb      	ldr	r3, [r7, #12]
 80049c0:	86da      	strh	r2, [r3, #54]	@ 0x36
 80049c2:	e02c      	b.n	8004a1e <HAL_SPI_Transmit+0x210>
 80049c4:	68fb      	ldr	r3, [r7, #12]
 80049c6:	681b      	ldr	r3, [r3, #0]
 80049c8:	689b      	ldr	r3, [r3, #8]
 80049ca:	f003 0302 	and.w	r3, r3, #2
 80049ce:	2b02      	cmp	r3, #2
 80049d0:	d113      	bne.n	80049fa <HAL_SPI_Transmit+0x1ec>
 80049d2:	68fb      	ldr	r3, [r7, #12]
 80049d4:	6b1a      	ldr	r2, [r3, #48]	@ 0x30
 80049d6:	68fb      	ldr	r3, [r7, #12]
 80049d8:	681b      	ldr	r3, [r3, #0]
 80049da:	330c      	adds	r3, #12
 80049dc:	7812      	ldrb	r2, [r2, #0]
 80049de:	701a      	strb	r2, [r3, #0]
 80049e0:	68fb      	ldr	r3, [r7, #12]
 80049e2:	6b1b      	ldr	r3, [r3, #48]	@ 0x30
 80049e4:	1c5a      	adds	r2, r3, #1
 80049e6:	68fb      	ldr	r3, [r7, #12]
 80049e8:	631a      	str	r2, [r3, #48]	@ 0x30
 80049ea:	68fb      	ldr	r3, [r7, #12]
 80049ec:	8edb      	ldrh	r3, [r3, #54]	@ 0x36
 80049ee:	b29b      	uxth	r3, r3
 80049f0:	3b01      	subs	r3, #1
 80049f2:	b29a      	uxth	r2, r3
 80049f4:	68fb      	ldr	r3, [r7, #12]
 80049f6:	86da      	strh	r2, [r3, #54]	@ 0x36
 80049f8:	e011      	b.n	8004a1e <HAL_SPI_Transmit+0x210>
 80049fa:	f7fd fd7d 	bl	80024f8 <HAL_GetTick>
 80049fe:	4602      	mov	r2, r0
 8004a00:	69bb      	ldr	r3, [r7, #24]
 8004a02:	1ad3      	subs	r3, r2, r3
 8004a04:	683a      	ldr	r2, [r7, #0]
 8004a06:	429a      	cmp	r2, r3
 8004a08:	d803      	bhi.n	8004a12 <HAL_SPI_Transmit+0x204>
 8004a0a:	683b      	ldr	r3, [r7, #0]
 8004a0c:	f1b3 3fff 	cmp.w	r3, #4294967295
 8004a10:	d102      	bne.n	8004a18 <HAL_SPI_Transmit+0x20a>
 8004a12:	683b      	ldr	r3, [r7, #0]
 8004a14:	2b00      	cmp	r3, #0
 8004a16:	d102      	bne.n	8004a1e <HAL_SPI_Transmit+0x210>
 8004a18:	2303      	movs	r3, #3
 8004a1a:	77fb      	strb	r3, [r7, #31]
 8004a1c:	e026      	b.n	8004a6c <HAL_SPI_Transmit+0x25e>
 8004a1e:	68fb      	ldr	r3, [r7, #12]
 8004a20:	8edb      	ldrh	r3, [r3, #54]	@ 0x36
 8004a22:	b29b      	uxth	r3, r3
 8004a24:	2b00      	cmp	r3, #0
 8004a26:	d1cd      	bne.n	80049c4 <HAL_SPI_Transmit+0x1b6>
 8004a28:	69ba      	ldr	r2, [r7, #24]
 8004a2a:	6839      	ldr	r1, [r7, #0]
 8004a2c:	68f8      	ldr	r0, [r7, #12]
 8004a2e:	f000 f8b3 	bl	8004b98 <SPI_EndRxTxTransaction>
 8004a32:	4603      	mov	r3, r0
 8004a34:	2b00      	cmp	r3, #0
 8004a36:	d002      	beq.n	8004a3e <HAL_SPI_Transmit+0x230>
 8004a38:	68fb      	ldr	r3, [r7, #12]
 8004a3a:	2220      	movs	r2, #32
 8004a3c:	655a      	str	r2, [r3, #84]	@ 0x54
 8004a3e:	68fb      	ldr	r3, [r7, #12]
 8004a40:	689b      	ldr	r3, [r3, #8]
 8004a42:	2b00      	cmp	r3, #0
 8004a44:	d10a      	bne.n	8004a5c <HAL_SPI_Transmit+0x24e>
 8004a46:	2300      	movs	r3, #0
 8004a48:	613b      	str	r3, [r7, #16]
 8004a4a:	68fb      	ldr	r3, [r7, #12]
 8004a4c:	681b      	ldr	r3, [r3, #0]
 8004a4e:	68db      	ldr	r3, [r3, #12]
 8004a50:	613b      	str	r3, [r7, #16]
 8004a52:	68fb      	ldr	r3, [r7, #12]
 8004a54:	681b      	ldr	r3, [r3, #0]
 8004a56:	689b      	ldr	r3, [r3, #8]
 8004a58:	613b      	str	r3, [r7, #16]
 8004a5a:	693b      	ldr	r3, [r7, #16]
 8004a5c:	68fb      	ldr	r3, [r7, #12]
 8004a5e:	6d5b      	ldr	r3, [r3, #84]	@ 0x54
 8004a60:	2b00      	cmp	r3, #0
 8004a62:	d002      	beq.n	8004a6a <HAL_SPI_Transmit+0x25c>
 8004a64:	2301      	movs	r3, #1
 8004a66:	77fb      	strb	r3, [r7, #31]
 8004a68:	e000      	b.n	8004a6c <HAL_SPI_Transmit+0x25e>
 8004a6a:	bf00      	nop
 8004a6c:	68fb      	ldr	r3, [r7, #12]
 8004a6e:	2201      	movs	r2, #1
 8004a70:	f883 2051 	strb.w	r2, [r3, #81]	@ 0x51
 8004a74:	68fb      	ldr	r3, [r7, #12]
 8004a76:	2200      	movs	r2, #0
 8004a78:	f883 2050 	strb.w	r2, [r3, #80]	@ 0x50
 8004a7c:	7ffb      	ldrb	r3, [r7, #31]
 8004a7e:	4618      	mov	r0, r3
 8004a80:	3720      	adds	r7, #32
 8004a82:	46bd      	mov	sp, r7
 8004a84:	bd80      	pop	{r7, pc}
	...

08004a88 <SPI_WaitFlagStateUntilTimeout>:
 8004a88:	b580      	push	{r7, lr}
 8004a8a:	b088      	sub	sp, #32
 8004a8c:	af00      	add	r7, sp, #0
 8004a8e:	60f8      	str	r0, [r7, #12]
 8004a90:	60b9      	str	r1, [r7, #8]
 8004a92:	603b      	str	r3, [r7, #0]
 8004a94:	4613      	mov	r3, r2
 8004a96:	71fb      	strb	r3, [r7, #7]
 8004a98:	f7fd fd2e 	bl	80024f8 <HAL_GetTick>
 8004a9c:	4602      	mov	r2, r0
 8004a9e:	6abb      	ldr	r3, [r7, #40]	@ 0x28
 8004aa0:	1a9b      	subs	r3, r3, r2
 8004aa2:	683a      	ldr	r2, [r7, #0]
 8004aa4:	4413      	add	r3, r2
 8004aa6:	61fb      	str	r3, [r7, #28]
 8004aa8:	f7fd fd26 	bl	80024f8 <HAL_GetTick>
 8004aac:	61b8      	str	r0, [r7, #24]
 8004aae:	4b39      	ldr	r3, [pc, #228]	@ (8004b94 <SPI_WaitFlagStateUntilTimeout+0x10c>)
 8004ab0:	681b      	ldr	r3, [r3, #0]
 8004ab2:	015b      	lsls	r3, r3, #5
 8004ab4:	0d1b      	lsrs	r3, r3, #20
 8004ab6:	69fa      	ldr	r2, [r7, #28]
 8004ab8:	fb02 f303 	mul.w	r3, r2, r3
 8004abc:	617b      	str	r3, [r7, #20]
 8004abe:	e054      	b.n	8004b6a <SPI_WaitFlagStateUntilTimeout+0xe2>
 8004ac0:	683b      	ldr	r3, [r7, #0]
 8004ac2:	f1b3 3fff 	cmp.w	r3, #4294967295
 8004ac6:	d050      	beq.n	8004b6a <SPI_WaitFlagStateUntilTimeout+0xe2>
 8004ac8:	f7fd fd16 	bl	80024f8 <HAL_GetTick>
 8004acc:	4602      	mov	r2, r0
 8004ace:	69bb      	ldr	r3, [r7, #24]
 8004ad0:	1ad3      	subs	r3, r2, r3
 8004ad2:	69fa      	ldr	r2, [r7, #28]
 8004ad4:	429a      	cmp	r2, r3
 8004ad6:	d902      	bls.n	8004ade <SPI_WaitFlagStateUntilTimeout+0x56>
 8004ad8:	69fb      	ldr	r3, [r7, #28]
 8004ada:	2b00      	cmp	r3, #0
 8004adc:	d13d      	bne.n	8004b5a <SPI_WaitFlagStateUntilTimeout+0xd2>
 8004ade:	68fb      	ldr	r3, [r7, #12]
 8004ae0:	681b      	ldr	r3, [r3, #0]
 8004ae2:	685a      	ldr	r2, [r3, #4]
 8004ae4:	68fb      	ldr	r3, [r7, #12]
 8004ae6:	681b      	ldr	r3, [r3, #0]
 8004ae8:	f022 02e0 	bic.w	r2, r2, #224	@ 0xe0
 8004aec:	605a      	str	r2, [r3, #4]
 8004aee:	68fb      	ldr	r3, [r7, #12]
 8004af0:	685b      	ldr	r3, [r3, #4]
 8004af2:	f5b3 7f82 	cmp.w	r3, #260	@ 0x104
 8004af6:	d111      	bne.n	8004b1c <SPI_WaitFlagStateUntilTimeout+0x94>
 8004af8:	68fb      	ldr	r3, [r7, #12]
 8004afa:	689b      	ldr	r3, [r3, #8]
 8004afc:	f5b3 4f00 	cmp.w	r3, #32768	@ 0x8000
 8004b00:	d004      	beq.n	8004b0c <SPI_WaitFlagStateUntilTimeout+0x84>
 8004b02:	68fb      	ldr	r3, [r7, #12]
 8004b04:	689b      	ldr	r3, [r3, #8]
 8004b06:	f5b3 6f80 	cmp.w	r3, #1024	@ 0x400
 8004b0a:	d107      	bne.n	8004b1c <SPI_WaitFlagStateUntilTimeout+0x94>
 8004b0c:	68fb      	ldr	r3, [r7, #12]
 8004b0e:	681b      	ldr	r3, [r3, #0]
 8004b10:	681a      	ldr	r2, [r3, #0]
 8004b12:	68fb      	ldr	r3, [r7, #12]
 8004b14:	681b      	ldr	r3, [r3, #0]
 8004b16:	f022 0240 	bic.w	r2, r2, #64	@ 0x40
 8004b1a:	601a      	str	r2, [r3, #0]
 8004b1c:	68fb      	ldr	r3, [r7, #12]
 8004b1e:	6a9b      	ldr	r3, [r3, #40]	@ 0x28
 8004b20:	f5b3 5f00 	cmp.w	r3, #8192	@ 0x2000
 8004b24:	d10f      	bne.n	8004b46 <SPI_WaitFlagStateUntilTimeout+0xbe>
 8004b26:	68fb      	ldr	r3, [r7, #12]
 8004b28:	681b      	ldr	r3, [r3, #0]
 8004b2a:	681a      	ldr	r2, [r3, #0]
 8004b2c:	68fb      	ldr	r3, [r7, #12]
 8004b2e:	681b      	ldr	r3, [r3, #0]
 8004b30:	f422 5200 	bic.w	r2, r2, #8192	@ 0x2000
 8004b34:	601a      	str	r2, [r3, #0]
 8004b36:	68fb      	ldr	r3, [r7, #12]
 8004b38:	681b      	ldr	r3, [r3, #0]
 8004b3a:	681a      	ldr	r2, [r3, #0]
 8004b3c:	68fb      	ldr	r3, [r7, #12]
 8004b3e:	681b      	ldr	r3, [r3, #0]
 8004b40:	f442 5200 	orr.w	r2, r2, #8192	@ 0x2000
 8004b44:	601a      	str	r2, [r3, #0]
 8004b46:	68fb      	ldr	r3, [r7, #12]
 8004b48:	2201      	movs	r2, #1
 8004b4a:	f883 2051 	strb.w	r2, [r3, #81]	@ 0x51
 8004b4e:	68fb      	ldr	r3, [r7, #12]
 8004b50:	2200      	movs	r2, #0
 8004b52:	f883 2050 	strb.w	r2, [r3, #80]	@ 0x50
 8004b56:	2303      	movs	r3, #3
 8004b58:	e017      	b.n	8004b8a <SPI_WaitFlagStateUntilTimeout+0x102>
 8004b5a:	697b      	ldr	r3, [r7, #20]
 8004b5c:	2b00      	cmp	r3, #0
 8004b5e:	d101      	bne.n	8004b64 <SPI_WaitFlagStateUntilTimeout+0xdc>
 8004b60:	2300      	movs	r3, #0
 8004b62:	61fb      	str	r3, [r7, #28]
 8004b64:	697b      	ldr	r3, [r7, #20]
 8004b66:	3b01      	subs	r3, #1
 8004b68:	617b      	str	r3, [r7, #20]
 8004b6a:	68fb      	ldr	r3, [r7, #12]
 8004b6c:	681b      	ldr	r3, [r3, #0]
 8004b6e:	689a      	ldr	r2, [r3, #8]
 8004b70:	68bb      	ldr	r3, [r7, #8]
 8004b72:	4013      	ands	r3, r2
 8004b74:	68ba      	ldr	r2, [r7, #8]
 8004b76:	429a      	cmp	r2, r3
 8004b78:	bf0c      	ite	eq
 8004b7a:	2301      	moveq	r3, #1
 8004b7c:	2300      	movne	r3, #0
 8004b7e:	b2db      	uxtb	r3, r3
 8004b80:	461a      	mov	r2, r3
 8004b82:	79fb      	ldrb	r3, [r7, #7]
 8004b84:	429a      	cmp	r2, r3
 8004b86:	d19b      	bne.n	8004ac0 <SPI_WaitFlagStateUntilTimeout+0x38>
 8004b88:	2300      	movs	r3, #0
 8004b8a:	4618      	mov	r0, r3
 8004b8c:	3720      	adds	r7, #32
 8004b8e:	46bd      	mov	sp, r7
 8004b90:	bd80      	pop	{r7, pc}
 8004b92:	bf00      	nop
 8004b94:	20000008 	.word	0x20000008

08004b98 <SPI_EndRxTxTransaction>:
 8004b98:	b580      	push	{r7, lr}
 8004b9a:	b088      	sub	sp, #32
 8004b9c:	af02      	add	r7, sp, #8
 8004b9e:	60f8      	str	r0, [r7, #12]
 8004ba0:	60b9      	str	r1, [r7, #8]
 8004ba2:	607a      	str	r2, [r7, #4]
 8004ba4:	4b1b      	ldr	r3, [pc, #108]	@ (8004c14 <SPI_EndRxTxTransaction+0x7c>)
 8004ba6:	681b      	ldr	r3, [r3, #0]
 8004ba8:	4a1b      	ldr	r2, [pc, #108]	@ (8004c18 <SPI_EndRxTxTransaction+0x80>)
 8004baa:	fba2 2303 	umull	r2, r3, r2, r3
 8004bae:	0d5b      	lsrs	r3, r3, #21
 8004bb0:	f44f 727a 	mov.w	r2, #1000	@ 0x3e8
 8004bb4:	fb02 f303 	mul.w	r3, r2, r3
 8004bb8:	617b      	str	r3, [r7, #20]
 8004bba:	68fb      	ldr	r3, [r7, #12]
 8004bbc:	685b      	ldr	r3, [r3, #4]
 8004bbe:	f5b3 7f82 	cmp.w	r3, #260	@ 0x104
 8004bc2:	d112      	bne.n	8004bea <SPI_EndRxTxTransaction+0x52>
 8004bc4:	687b      	ldr	r3, [r7, #4]
 8004bc6:	9300      	str	r3, [sp, #0]
 8004bc8:	68bb      	ldr	r3, [r7, #8]
 8004bca:	2200      	movs	r2, #0
 8004bcc:	2180      	movs	r1, #128	@ 0x80
 8004bce:	68f8      	ldr	r0, [r7, #12]
 8004bd0:	f7ff ff5a 	bl	8004a88 <SPI_WaitFlagStateUntilTimeout>
 8004bd4:	4603      	mov	r3, r0
 8004bd6:	2b00      	cmp	r3, #0
 8004bd8:	d016      	beq.n	8004c08 <SPI_EndRxTxTransaction+0x70>
 8004bda:	68fb      	ldr	r3, [r7, #12]
 8004bdc:	6d5b      	ldr	r3, [r3, #84]	@ 0x54
 8004bde:	f043 0220 	orr.w	r2, r3, #32
 8004be2:	68fb      	ldr	r3, [r7, #12]
 8004be4:	655a      	str	r2, [r3, #84]	@ 0x54
 8004be6:	2303      	movs	r3, #3
 8004be8:	e00f      	b.n	8004c0a <SPI_EndRxTxTransaction+0x72>
 8004bea:	697b      	ldr	r3, [r7, #20]
 8004bec:	2b00      	cmp	r3, #0
 8004bee:	d00a      	beq.n	8004c06 <SPI_EndRxTxTransaction+0x6e>
 8004bf0:	697b      	ldr	r3, [r7, #20]
 8004bf2:	3b01      	subs	r3, #1
 8004bf4:	617b      	str	r3, [r7, #20]
 8004bf6:	68fb      	ldr	r3, [r7, #12]
 8004bf8:	681b      	ldr	r3, [r3, #0]
 8004bfa:	689b      	ldr	r3, [r3, #8]
 8004bfc:	f003 0380 	and.w	r3, r3, #128	@ 0x80
 8004c00:	2b80      	cmp	r3, #128	@ 0x80
 8004c02:	d0f2      	beq.n	8004bea <SPI_EndRxTxTransaction+0x52>
 8004c04:	e000      	b.n	8004c08 <SPI_EndRxTxTransaction+0x70>
 8004c06:	bf00      	nop
 8004c08:	2300      	movs	r3, #0
 8004c0a:	4618      	mov	r0, r3
 8004c0c:	3718      	adds	r7, #24
 8004c0e:	46bd      	mov	sp, r7
 8004c10:	bd80      	pop	{r7, pc}
 8004c12:	bf00      	nop
 8004c14:	20000008 	.word	0x20000008
 8004c18:	165e9f81 	.word	0x165e9f81

08004c1c <HAL_SRAM_Init>:
 8004c1c:	b580      	push	{r7, lr}
 8004c1e:	b084      	sub	sp, #16
 8004c20:	af00      	add	r7, sp, #0
 8004c22:	60f8      	str	r0, [r7, #12]
 8004c24:	60b9      	str	r1, [r7, #8]
 8004c26:	607a      	str	r2, [r7, #4]
 8004c28:	68fb      	ldr	r3, [r7, #12]
 8004c2a:	2b00      	cmp	r3, #0
 8004c2c:	d101      	bne.n	8004c32 <HAL_SRAM_Init+0x16>
 8004c2e:	2301      	movs	r3, #1
 8004c30:	e034      	b.n	8004c9c <HAL_SRAM_Init+0x80>
 8004c32:	68fb      	ldr	r3, [r7, #12]
 8004c34:	f893 3049 	ldrb.w	r3, [r3, #73]	@ 0x49
 8004c38:	b2db      	uxtb	r3, r3
 8004c3a:	2b00      	cmp	r3, #0
 8004c3c:	d106      	bne.n	8004c4c <HAL_SRAM_Init+0x30>
 8004c3e:	68fb      	ldr	r3, [r7, #12]
 8004c40:	2200      	movs	r2, #0
 8004c42:	f883 2048 	strb.w	r2, [r3, #72]	@ 0x48
 8004c46:	68f8      	ldr	r0, [r7, #12]
 8004c48:	f7fb fea2 	bl	8000990 <HAL_SRAM_MspInit>
 8004c4c:	68fb      	ldr	r3, [r7, #12]
 8004c4e:	681a      	ldr	r2, [r3, #0]
 8004c50:	68fb      	ldr	r3, [r7, #12]
 8004c52:	3308      	adds	r3, #8
 8004c54:	4619      	mov	r1, r3
 8004c56:	4610      	mov	r0, r2
 8004c58:	f002 f84e 	bl	8006cf8 <FSMC_NORSRAM_Init>
 8004c5c:	68fb      	ldr	r3, [r7, #12]
 8004c5e:	6818      	ldr	r0, [r3, #0]
 8004c60:	68fb      	ldr	r3, [r7, #12]
 8004c62:	689b      	ldr	r3, [r3, #8]
 8004c64:	461a      	mov	r2, r3
 8004c66:	68b9      	ldr	r1, [r7, #8]
 8004c68:	f002 f898 	bl	8006d9c <FSMC_NORSRAM_Timing_Init>
 8004c6c:	68fb      	ldr	r3, [r7, #12]
 8004c6e:	6858      	ldr	r0, [r3, #4]
 8004c70:	68fb      	ldr	r3, [r7, #12]
 8004c72:	689a      	ldr	r2, [r3, #8]
 8004c74:	68fb      	ldr	r3, [r7, #12]
 8004c76:	6b1b      	ldr	r3, [r3, #48]	@ 0x30
 8004c78:	6879      	ldr	r1, [r7, #4]
 8004c7a:	f002 f8cd 	bl	8006e18 <FSMC_NORSRAM_Extended_Timing_Init>
 8004c7e:	68fb      	ldr	r3, [r7, #12]
 8004c80:	681b      	ldr	r3, [r3, #0]
 8004c82:	68fa      	ldr	r2, [r7, #12]
 8004c84:	6892      	ldr	r2, [r2, #8]
 8004c86:	f853 1022 	ldr.w	r1, [r3, r2, lsl #2]
 8004c8a:	68fb      	ldr	r3, [r7, #12]
 8004c8c:	681b      	ldr	r3, [r3, #0]
 8004c8e:	68fa      	ldr	r2, [r7, #12]
 8004c90:	6892      	ldr	r2, [r2, #8]
 8004c92:	f041 0101 	orr.w	r1, r1, #1
 8004c96:	f843 1022 	str.w	r1, [r3, r2, lsl #2]
 8004c9a:	2300      	movs	r3, #0
 8004c9c:	4618      	mov	r0, r3
 8004c9e:	3710      	adds	r7, #16
 8004ca0:	46bd      	mov	sp, r7
 8004ca2:	bd80      	pop	{r7, pc}

08004ca4 <HAL_TIM_Base_Init>:
 8004ca4:	b580      	push	{r7, lr}
 8004ca6:	b082      	sub	sp, #8
 8004ca8:	af00      	add	r7, sp, #0
 8004caa:	6078      	str	r0, [r7, #4]
 8004cac:	687b      	ldr	r3, [r7, #4]
 8004cae:	2b00      	cmp	r3, #0
 8004cb0:	d101      	bne.n	8004cb6 <HAL_TIM_Base_Init+0x12>
 8004cb2:	2301      	movs	r3, #1
 8004cb4:	e041      	b.n	8004d3a <HAL_TIM_Base_Init+0x96>
 8004cb6:	687b      	ldr	r3, [r7, #4]
 8004cb8:	f893 303d 	ldrb.w	r3, [r3, #61]	@ 0x3d
 8004cbc:	b2db      	uxtb	r3, r3
 8004cbe:	2b00      	cmp	r3, #0
 8004cc0:	d106      	bne.n	8004cd0 <HAL_TIM_Base_Init+0x2c>
 8004cc2:	687b      	ldr	r3, [r7, #4]
 8004cc4:	2200      	movs	r2, #0
 8004cc6:	f883 203c 	strb.w	r2, [r3, #60]	@ 0x3c
 8004cca:	6878      	ldr	r0, [r7, #4]
 8004ccc:	f7fd f976 	bl	8001fbc <HAL_TIM_Base_MspInit>
 8004cd0:	687b      	ldr	r3, [r7, #4]
 8004cd2:	2202      	movs	r2, #2
 8004cd4:	f883 203d 	strb.w	r2, [r3, #61]	@ 0x3d
 8004cd8:	687b      	ldr	r3, [r7, #4]
 8004cda:	681a      	ldr	r2, [r3, #0]
 8004cdc:	687b      	ldr	r3, [r7, #4]
 8004cde:	3304      	adds	r3, #4
 8004ce0:	4619      	mov	r1, r3
 8004ce2:	4610      	mov	r0, r2
 8004ce4:	f000 fc1a 	bl	800551c <TIM_Base_SetConfig>
 8004ce8:	687b      	ldr	r3, [r7, #4]
 8004cea:	2201      	movs	r2, #1
 8004cec:	f883 2046 	strb.w	r2, [r3, #70]	@ 0x46
 8004cf0:	687b      	ldr	r3, [r7, #4]
 8004cf2:	2201      	movs	r2, #1
 8004cf4:	f883 203e 	strb.w	r2, [r3, #62]	@ 0x3e
 8004cf8:	687b      	ldr	r3, [r7, #4]
 8004cfa:	2201      	movs	r2, #1
 8004cfc:	f883 203f 	strb.w	r2, [r3, #63]	@ 0x3f
 8004d00:	687b      	ldr	r3, [r7, #4]
 8004d02:	2201      	movs	r2, #1
 8004d04:	f883 2040 	strb.w	r2, [r3, #64]	@ 0x40
 8004d08:	687b      	ldr	r3, [r7, #4]
 8004d0a:	2201      	movs	r2, #1
 8004d0c:	f883 2041 	strb.w	r2, [r3, #65]	@ 0x41
 8004d10:	687b      	ldr	r3, [r7, #4]
 8004d12:	2201      	movs	r2, #1
 8004d14:	f883 2042 	strb.w	r2, [r3, #66]	@ 0x42
 8004d18:	687b      	ldr	r3, [r7, #4]
 8004d1a:	2201      	movs	r2, #1
 8004d1c:	f883 2043 	strb.w	r2, [r3, #67]	@ 0x43
 8004d20:	687b      	ldr	r3, [r7, #4]
 8004d22:	2201      	movs	r2, #1
 8004d24:	f883 2044 	strb.w	r2, [r3, #68]	@ 0x44
 8004d28:	687b      	ldr	r3, [r7, #4]
 8004d2a:	2201      	movs	r2, #1
 8004d2c:	f883 2045 	strb.w	r2, [r3, #69]	@ 0x45
 8004d30:	687b      	ldr	r3, [r7, #4]
 8004d32:	2201      	movs	r2, #1
 8004d34:	f883 203d 	strb.w	r2, [r3, #61]	@ 0x3d
 8004d38:	2300      	movs	r3, #0
 8004d3a:	4618      	mov	r0, r3
 8004d3c:	3708      	adds	r7, #8
 8004d3e:	46bd      	mov	sp, r7
 8004d40:	bd80      	pop	{r7, pc}
	...

08004d44 <HAL_TIM_Base_Start>:
 8004d44:	b480      	push	{r7}
 8004d46:	b085      	sub	sp, #20
 8004d48:	af00      	add	r7, sp, #0
 8004d4a:	6078      	str	r0, [r7, #4]
 8004d4c:	687b      	ldr	r3, [r7, #4]
 8004d4e:	f893 303d 	ldrb.w	r3, [r3, #61]	@ 0x3d
 8004d52:	b2db      	uxtb	r3, r3
 8004d54:	2b01      	cmp	r3, #1
 8004d56:	d001      	beq.n	8004d5c <HAL_TIM_Base_Start+0x18>
 8004d58:	2301      	movs	r3, #1
 8004d5a:	e046      	b.n	8004dea <HAL_TIM_Base_Start+0xa6>
 8004d5c:	687b      	ldr	r3, [r7, #4]
 8004d5e:	2202      	movs	r2, #2
 8004d60:	f883 203d 	strb.w	r2, [r3, #61]	@ 0x3d
 8004d64:	687b      	ldr	r3, [r7, #4]
 8004d66:	681b      	ldr	r3, [r3, #0]
 8004d68:	4a23      	ldr	r2, [pc, #140]	@ (8004df8 <HAL_TIM_Base_Start+0xb4>)
 8004d6a:	4293      	cmp	r3, r2
 8004d6c:	d022      	beq.n	8004db4 <HAL_TIM_Base_Start+0x70>
 8004d6e:	687b      	ldr	r3, [r7, #4]
 8004d70:	681b      	ldr	r3, [r3, #0]
 8004d72:	f1b3 4f80 	cmp.w	r3, #1073741824	@ 0x40000000
 8004d76:	d01d      	beq.n	8004db4 <HAL_TIM_Base_Start+0x70>
 8004d78:	687b      	ldr	r3, [r7, #4]
 8004d7a:	681b      	ldr	r3, [r3, #0]
 8004d7c:	4a1f      	ldr	r2, [pc, #124]	@ (8004dfc <HAL_TIM_Base_Start+0xb8>)
 8004d7e:	4293      	cmp	r3, r2
 8004d80:	d018      	beq.n	8004db4 <HAL_TIM_Base_Start+0x70>
 8004d82:	687b      	ldr	r3, [r7, #4]
 8004d84:	681b      	ldr	r3, [r3, #0]
 8004d86:	4a1e      	ldr	r2, [pc, #120]	@ (8004e00 <HAL_TIM_Base_Start+0xbc>)
 8004d88:	4293      	cmp	r3, r2
 8004d8a:	d013      	beq.n	8004db4 <HAL_TIM_Base_Start+0x70>
 8004d8c:	687b      	ldr	r3, [r7, #4]
 8004d8e:	681b      	ldr	r3, [r3, #0]
 8004d90:	4a1c      	ldr	r2, [pc, #112]	@ (8004e04 <HAL_TIM_Base_Start+0xc0>)
 8004d92:	4293      	cmp	r3, r2
 8004d94:	d00e      	beq.n	8004db4 <HAL_TIM_Base_Start+0x70>
 8004d96:	687b      	ldr	r3, [r7, #4]
 8004d98:	681b      	ldr	r3, [r3, #0]
 8004d9a:	4a1b      	ldr	r2, [pc, #108]	@ (8004e08 <HAL_TIM_Base_Start+0xc4>)
 8004d9c:	4293      	cmp	r3, r2
 8004d9e:	d009      	beq.n	8004db4 <HAL_TIM_Base_Start+0x70>
 8004da0:	687b      	ldr	r3, [r7, #4]
 8004da2:	681b      	ldr	r3, [r3, #0]
 8004da4:	4a19      	ldr	r2, [pc, #100]	@ (8004e0c <HAL_TIM_Base_Start+0xc8>)
 8004da6:	4293      	cmp	r3, r2
 8004da8:	d004      	beq.n	8004db4 <HAL_TIM_Base_Start+0x70>
 8004daa:	687b      	ldr	r3, [r7, #4]
 8004dac:	681b      	ldr	r3, [r3, #0]
 8004dae:	4a18      	ldr	r2, [pc, #96]	@ (8004e10 <HAL_TIM_Base_Start+0xcc>)
 8004db0:	4293      	cmp	r3, r2
 8004db2:	d111      	bne.n	8004dd8 <HAL_TIM_Base_Start+0x94>
 8004db4:	687b      	ldr	r3, [r7, #4]
 8004db6:	681b      	ldr	r3, [r3, #0]
 8004db8:	689b      	ldr	r3, [r3, #8]
 8004dba:	f003 0307 	and.w	r3, r3, #7
 8004dbe:	60fb      	str	r3, [r7, #12]
 8004dc0:	68fb      	ldr	r3, [r7, #12]
 8004dc2:	2b06      	cmp	r3, #6
 8004dc4:	d010      	beq.n	8004de8 <HAL_TIM_Base_Start+0xa4>
 8004dc6:	687b      	ldr	r3, [r7, #4]
 8004dc8:	681b      	ldr	r3, [r3, #0]
 8004dca:	681a      	ldr	r2, [r3, #0]
 8004dcc:	687b      	ldr	r3, [r7, #4]
 8004dce:	681b      	ldr	r3, [r3, #0]
 8004dd0:	f042 0201 	orr.w	r2, r2, #1
 8004dd4:	601a      	str	r2, [r3, #0]
 8004dd6:	e007      	b.n	8004de8 <HAL_TIM_Base_Start+0xa4>
 8004dd8:	687b      	ldr	r3, [r7, #4]
 8004dda:	681b      	ldr	r3, [r3, #0]
 8004ddc:	681a      	ldr	r2, [r3, #0]
 8004dde:	687b      	ldr	r3, [r7, #4]
 8004de0:	681b      	ldr	r3, [r3, #0]
 8004de2:	f042 0201 	orr.w	r2, r2, #1
 8004de6:	601a      	str	r2, [r3, #0]
 8004de8:	2300      	movs	r3, #0
 8004dea:	4618      	mov	r0, r3
 8004dec:	3714      	adds	r7, #20
 8004dee:	46bd      	mov	sp, r7
 8004df0:	f85d 7b04 	ldr.w	r7, [sp], #4
 8004df4:	4770      	bx	lr
 8004df6:	bf00      	nop
 8004df8:	40010000 	.word	0x40010000
 8004dfc:	40000400 	.word	0x40000400
 8004e00:	40000800 	.word	0x40000800
 8004e04:	40000c00 	.word	0x40000c00
 8004e08:	40010400 	.word	0x40010400
 8004e0c:	40014000 	.word	0x40014000
 8004e10:	40001800 	.word	0x40001800

08004e14 <HAL_TIM_Base_Start_IT>:
 8004e14:	b480      	push	{r7}
 8004e16:	b085      	sub	sp, #20
 8004e18:	af00      	add	r7, sp, #0
 8004e1a:	6078      	str	r0, [r7, #4]
 8004e1c:	687b      	ldr	r3, [r7, #4]
 8004e1e:	f893 303d 	ldrb.w	r3, [r3, #61]	@ 0x3d
 8004e22:	b2db      	uxtb	r3, r3
 8004e24:	2b01      	cmp	r3, #1
 8004e26:	d001      	beq.n	8004e2c <HAL_TIM_Base_Start_IT+0x18>
 8004e28:	2301      	movs	r3, #1
 8004e2a:	e04e      	b.n	8004eca <HAL_TIM_Base_Start_IT+0xb6>
 8004e2c:	687b      	ldr	r3, [r7, #4]
 8004e2e:	2202      	movs	r2, #2
 8004e30:	f883 203d 	strb.w	r2, [r3, #61]	@ 0x3d
 8004e34:	687b      	ldr	r3, [r7, #4]
 8004e36:	681b      	ldr	r3, [r3, #0]
 8004e38:	68da      	ldr	r2, [r3, #12]
 8004e3a:	687b      	ldr	r3, [r7, #4]
 8004e3c:	681b      	ldr	r3, [r3, #0]
 8004e3e:	f042 0201 	orr.w	r2, r2, #1
 8004e42:	60da      	str	r2, [r3, #12]
 8004e44:	687b      	ldr	r3, [r7, #4]
 8004e46:	681b      	ldr	r3, [r3, #0]
 8004e48:	4a23      	ldr	r2, [pc, #140]	@ (8004ed8 <HAL_TIM_Base_Start_IT+0xc4>)
 8004e4a:	4293      	cmp	r3, r2
 8004e4c:	d022      	beq.n	8004e94 <HAL_TIM_Base_Start_IT+0x80>
 8004e4e:	687b      	ldr	r3, [r7, #4]
 8004e50:	681b      	ldr	r3, [r3, #0]
 8004e52:	f1b3 4f80 	cmp.w	r3, #1073741824	@ 0x40000000
 8004e56:	d01d      	beq.n	8004e94 <HAL_TIM_Base_Start_IT+0x80>
 8004e58:	687b      	ldr	r3, [r7, #4]
 8004e5a:	681b      	ldr	r3, [r3, #0]
 8004e5c:	4a1f      	ldr	r2, [pc, #124]	@ (8004edc <HAL_TIM_Base_Start_IT+0xc8>)
 8004e5e:	4293      	cmp	r3, r2
 8004e60:	d018      	beq.n	8004e94 <HAL_TIM_Base_Start_IT+0x80>
 8004e62:	687b      	ldr	r3, [r7, #4]
 8004e64:	681b      	ldr	r3, [r3, #0]
 8004e66:	4a1e      	ldr	r2, [pc, #120]	@ (8004ee0 <HAL_TIM_Base_Start_IT+0xcc>)
 8004e68:	4293      	cmp	r3, r2
 8004e6a:	d013      	beq.n	8004e94 <HAL_TIM_Base_Start_IT+0x80>
 8004e6c:	687b      	ldr	r3, [r7, #4]
 8004e6e:	681b      	ldr	r3, [r3, #0]
 8004e70:	4a1c      	ldr	r2, [pc, #112]	@ (8004ee4 <HAL_TIM_Base_Start_IT+0xd0>)
 8004e72:	4293      	cmp	r3, r2
 8004e74:	d00e      	beq.n	8004e94 <HAL_TIM_Base_Start_IT+0x80>
 8004e76:	687b      	ldr	r3, [r7, #4]
 8004e78:	681b      	ldr	r3, [r3, #0]
 8004e7a:	4a1b      	ldr	r2, [pc, #108]	@ (8004ee8 <HAL_TIM_Base_Start_IT+0xd4>)
 8004e7c:	4293      	cmp	r3, r2
 8004e7e:	d009      	beq.n	8004e94 <HAL_TIM_Base_Start_IT+0x80>
 8004e80:	687b      	ldr	r3, [r7, #4]
 8004e82:	681b      	ldr	r3, [r3, #0]
 8004e84:	4a19      	ldr	r2, [pc, #100]	@ (8004eec <HAL_TIM_Base_Start_IT+0xd8>)
 8004e86:	4293      	cmp	r3, r2
 8004e88:	d004      	beq.n	8004e94 <HAL_TIM_Base_Start_IT+0x80>
 8004e8a:	687b      	ldr	r3, [r7, #4]
 8004e8c:	681b      	ldr	r3, [r3, #0]
 8004e8e:	4a18      	ldr	r2, [pc, #96]	@ (8004ef0 <HAL_TIM_Base_Start_IT+0xdc>)
 8004e90:	4293      	cmp	r3, r2
 8004e92:	d111      	bne.n	8004eb8 <HAL_TIM_Base_Start_IT+0xa4>
 8004e94:	687b      	ldr	r3, [r7, #4]
 8004e96:	681b      	ldr	r3, [r3, #0]
 8004e98:	689b      	ldr	r3, [r3, #8]
 8004e9a:	f003 0307 	and.w	r3, r3, #7
 8004e9e:	60fb      	str	r3, [r7, #12]
 8004ea0:	68fb      	ldr	r3, [r7, #12]
 8004ea2:	2b06      	cmp	r3, #6
 8004ea4:	d010      	beq.n	8004ec8 <HAL_TIM_Base_Start_IT+0xb4>
 8004ea6:	687b      	ldr	r3, [r7, #4]
 8004ea8:	681b      	ldr	r3, [r3, #0]
 8004eaa:	681a      	ldr	r2, [r3, #0]
 8004eac:	687b      	ldr	r3, [r7, #4]
 8004eae:	681b      	ldr	r3, [r3, #0]
 8004eb0:	f042 0201 	orr.w	r2, r2, #1
 8004eb4:	601a      	str	r2, [r3, #0]
 8004eb6:	e007      	b.n	8004ec8 <HAL_TIM_Base_Start_IT+0xb4>
 8004eb8:	687b      	ldr	r3, [r7, #4]
 8004eba:	681b      	ldr	r3, [r3, #0]
 8004ebc:	681a      	ldr	r2, [r3, #0]
 8004ebe:	687b      	ldr	r3, [r7, #4]
 8004ec0:	681b      	ldr	r3, [r3, #0]
 8004ec2:	f042 0201 	orr.w	r2, r2, #1
 8004ec6:	601a      	str	r2, [r3, #0]
 8004ec8:	2300      	movs	r3, #0
 8004eca:	4618      	mov	r0, r3
 8004ecc:	3714      	adds	r7, #20
 8004ece:	46bd      	mov	sp, r7
 8004ed0:	f85d 7b04 	ldr.w	r7, [sp], #4
 8004ed4:	4770      	bx	lr
 8004ed6:	bf00      	nop
 8004ed8:	40010000 	.word	0x40010000
 8004edc:	40000400 	.word	0x40000400
 8004ee0:	40000800 	.word	0x40000800
 8004ee4:	40000c00 	.word	0x40000c00
 8004ee8:	40010400 	.word	0x40010400
 8004eec:	40014000 	.word	0x40014000
 8004ef0:	40001800 	.word	0x40001800

08004ef4 <HAL_TIM_PWM_Init>:
 8004ef4:	b580      	push	{r7, lr}
 8004ef6:	b082      	sub	sp, #8
 8004ef8:	af00      	add	r7, sp, #0
 8004efa:	6078      	str	r0, [r7, #4]
 8004efc:	687b      	ldr	r3, [r7, #4]
 8004efe:	2b00      	cmp	r3, #0
 8004f00:	d101      	bne.n	8004f06 <HAL_TIM_PWM_Init+0x12>
 8004f02:	2301      	movs	r3, #1
 8004f04:	e041      	b.n	8004f8a <HAL_TIM_PWM_Init+0x96>
 8004f06:	687b      	ldr	r3, [r7, #4]
 8004f08:	f893 303d 	ldrb.w	r3, [r3, #61]	@ 0x3d
 8004f0c:	b2db      	uxtb	r3, r3
 8004f0e:	2b00      	cmp	r3, #0
 8004f10:	d106      	bne.n	8004f20 <HAL_TIM_PWM_Init+0x2c>
 8004f12:	687b      	ldr	r3, [r7, #4]
 8004f14:	2200      	movs	r2, #0
 8004f16:	f883 203c 	strb.w	r2, [r3, #60]	@ 0x3c
 8004f1a:	6878      	ldr	r0, [r7, #4]
 8004f1c:	f000 f839 	bl	8004f92 <HAL_TIM_PWM_MspInit>
 8004f20:	687b      	ldr	r3, [r7, #4]
 8004f22:	2202      	movs	r2, #2
 8004f24:	f883 203d 	strb.w	r2, [r3, #61]	@ 0x3d
 8004f28:	687b      	ldr	r3, [r7, #4]
 8004f2a:	681a      	ldr	r2, [r3, #0]
 8004f2c:	687b      	ldr	r3, [r7, #4]
 8004f2e:	3304      	adds	r3, #4
 8004f30:	4619      	mov	r1, r3
 8004f32:	4610      	mov	r0, r2
 8004f34:	f000 faf2 	bl	800551c <TIM_Base_SetConfig>
 8004f38:	687b      	ldr	r3, [r7, #4]
 8004f3a:	2201      	movs	r2, #1
 8004f3c:	f883 2046 	strb.w	r2, [r3, #70]	@ 0x46
 8004f40:	687b      	ldr	r3, [r7, #4]
 8004f42:	2201      	movs	r2, #1
 8004f44:	f883 203e 	strb.w	r2, [r3, #62]	@ 0x3e
 8004f48:	687b      	ldr	r3, [r7, #4]
 8004f4a:	2201      	movs	r2, #1
 8004f4c:	f883 203f 	strb.w	r2, [r3, #63]	@ 0x3f
 8004f50:	687b      	ldr	r3, [r7, #4]
 8004f52:	2201      	movs	r2, #1
 8004f54:	f883 2040 	strb.w	r2, [r3, #64]	@ 0x40
 8004f58:	687b      	ldr	r3, [r7, #4]
 8004f5a:	2201      	movs	r2, #1
 8004f5c:	f883 2041 	strb.w	r2, [r3, #65]	@ 0x41
 8004f60:	687b      	ldr	r3, [r7, #4]
 8004f62:	2201      	movs	r2, #1
 8004f64:	f883 2042 	strb.w	r2, [r3, #66]	@ 0x42
 8004f68:	687b      	ldr	r3, [r7, #4]
 8004f6a:	2201      	movs	r2, #1
 8004f6c:	f883 2043 	strb.w	r2, [r3, #67]	@ 0x43
 8004f70:	687b      	ldr	r3, [r7, #4]
 8004f72:	2201      	movs	r2, #1
 8004f74:	f883 2044 	strb.w	r2, [r3, #68]	@ 0x44
 8004f78:	687b      	ldr	r3, [r7, #4]
 8004f7a:	2201      	movs	r2, #1
 8004f7c:	f883 2045 	strb.w	r2, [r3, #69]	@ 0x45
 8004f80:	687b      	ldr	r3, [r7, #4]
 8004f82:	2201      	movs	r2, #1
 8004f84:	f883 203d 	strb.w	r2, [r3, #61]	@ 0x3d
 8004f88:	2300      	movs	r3, #0
 8004f8a:	4618      	mov	r0, r3
 8004f8c:	3708      	adds	r7, #8
 8004f8e:	46bd      	mov	sp, r7
 8004f90:	bd80      	pop	{r7, pc}

08004f92 <HAL_TIM_PWM_MspInit>:
 8004f92:	b480      	push	{r7}
 8004f94:	b083      	sub	sp, #12
 8004f96:	af00      	add	r7, sp, #0
 8004f98:	6078      	str	r0, [r7, #4]
 8004f9a:	bf00      	nop
 8004f9c:	370c      	adds	r7, #12
 8004f9e:	46bd      	mov	sp, r7
 8004fa0:	f85d 7b04 	ldr.w	r7, [sp], #4
 8004fa4:	4770      	bx	lr

08004fa6 <HAL_TIM_IRQHandler>:
 8004fa6:	b580      	push	{r7, lr}
 8004fa8:	b082      	sub	sp, #8
 8004faa:	af00      	add	r7, sp, #0
 8004fac:	6078      	str	r0, [r7, #4]
 8004fae:	687b      	ldr	r3, [r7, #4]
 8004fb0:	681b      	ldr	r3, [r3, #0]
 8004fb2:	691b      	ldr	r3, [r3, #16]
 8004fb4:	f003 0302 	and.w	r3, r3, #2
 8004fb8:	2b02      	cmp	r3, #2
 8004fba:	d122      	bne.n	8005002 <HAL_TIM_IRQHandler+0x5c>
 8004fbc:	687b      	ldr	r3, [r7, #4]
 8004fbe:	681b      	ldr	r3, [r3, #0]
 8004fc0:	68db      	ldr	r3, [r3, #12]
 8004fc2:	f003 0302 	and.w	r3, r3, #2
 8004fc6:	2b02      	cmp	r3, #2
 8004fc8:	d11b      	bne.n	8005002 <HAL_TIM_IRQHandler+0x5c>
 8004fca:	687b      	ldr	r3, [r7, #4]
 8004fcc:	681b      	ldr	r3, [r3, #0]
 8004fce:	f06f 0202 	mvn.w	r2, #2
 8004fd2:	611a      	str	r2, [r3, #16]
 8004fd4:	687b      	ldr	r3, [r7, #4]
 8004fd6:	2201      	movs	r2, #1
 8004fd8:	771a      	strb	r2, [r3, #28]
 8004fda:	687b      	ldr	r3, [r7, #4]
 8004fdc:	681b      	ldr	r3, [r3, #0]
 8004fde:	699b      	ldr	r3, [r3, #24]
 8004fe0:	f003 0303 	and.w	r3, r3, #3
 8004fe4:	2b00      	cmp	r3, #0
 8004fe6:	d003      	beq.n	8004ff0 <HAL_TIM_IRQHandler+0x4a>
 8004fe8:	6878      	ldr	r0, [r7, #4]
 8004fea:	f000 fa78 	bl	80054de <HAL_TIM_IC_CaptureCallback>
 8004fee:	e005      	b.n	8004ffc <HAL_TIM_IRQHandler+0x56>
 8004ff0:	6878      	ldr	r0, [r7, #4]
 8004ff2:	f000 fa6a 	bl	80054ca <HAL_TIM_OC_DelayElapsedCallback>
 8004ff6:	6878      	ldr	r0, [r7, #4]
 8004ff8:	f000 fa7b 	bl	80054f2 <HAL_TIM_PWM_PulseFinishedCallback>
 8004ffc:	687b      	ldr	r3, [r7, #4]
 8004ffe:	2200      	movs	r2, #0
 8005000:	771a      	strb	r2, [r3, #28]
 8005002:	687b      	ldr	r3, [r7, #4]
 8005004:	681b      	ldr	r3, [r3, #0]
 8005006:	691b      	ldr	r3, [r3, #16]
 8005008:	f003 0304 	and.w	r3, r3, #4
 800500c:	2b04      	cmp	r3, #4
 800500e:	d122      	bne.n	8005056 <HAL_TIM_IRQHandler+0xb0>
 8005010:	687b      	ldr	r3, [r7, #4]
 8005012:	681b      	ldr	r3, [r3, #0]
 8005014:	68db      	ldr	r3, [r3, #12]
 8005016:	f003 0304 	and.w	r3, r3, #4
 800501a:	2b04      	cmp	r3, #4
 800501c:	d11b      	bne.n	8005056 <HAL_TIM_IRQHandler+0xb0>
 800501e:	687b      	ldr	r3, [r7, #4]
 8005020:	681b      	ldr	r3, [r3, #0]
 8005022:	f06f 0204 	mvn.w	r2, #4
 8005026:	611a      	str	r2, [r3, #16]
 8005028:	687b      	ldr	r3, [r7, #4]
 800502a:	2202      	movs	r2, #2
 800502c:	771a      	strb	r2, [r3, #28]
 800502e:	687b      	ldr	r3, [r7, #4]
 8005030:	681b      	ldr	r3, [r3, #0]
 8005032:	699b      	ldr	r3, [r3, #24]
 8005034:	f403 7340 	and.w	r3, r3, #768	@ 0x300
 8005038:	2b00      	cmp	r3, #0
 800503a:	d003      	beq.n	8005044 <HAL_TIM_IRQHandler+0x9e>
 800503c:	6878      	ldr	r0, [r7, #4]
 800503e:	f000 fa4e 	bl	80054de <HAL_TIM_IC_CaptureCallback>
 8005042:	e005      	b.n	8005050 <HAL_TIM_IRQHandler+0xaa>
 8005044:	6878      	ldr	r0, [r7, #4]
 8005046:	f000 fa40 	bl	80054ca <HAL_TIM_OC_DelayElapsedCallback>
 800504a:	6878      	ldr	r0, [r7, #4]
 800504c:	f000 fa51 	bl	80054f2 <HAL_TIM_PWM_PulseFinishedCallback>
 8005050:	687b      	ldr	r3, [r7, #4]
 8005052:	2200      	movs	r2, #0
 8005054:	771a      	strb	r2, [r3, #28]
 8005056:	687b      	ldr	r3, [r7, #4]
 8005058:	681b      	ldr	r3, [r3, #0]
 800505a:	691b      	ldr	r3, [r3, #16]
 800505c:	f003 0308 	and.w	r3, r3, #8
 8005060:	2b08      	cmp	r3, #8
 8005062:	d122      	bne.n	80050aa <HAL_TIM_IRQHandler+0x104>
 8005064:	687b      	ldr	r3, [r7, #4]
 8005066:	681b      	ldr	r3, [r3, #0]
 8005068:	68db      	ldr	r3, [r3, #12]
 800506a:	f003 0308 	and.w	r3, r3, #8
 800506e:	2b08      	cmp	r3, #8
 8005070:	d11b      	bne.n	80050aa <HAL_TIM_IRQHandler+0x104>
 8005072:	687b      	ldr	r3, [r7, #4]
 8005074:	681b      	ldr	r3, [r3, #0]
 8005076:	f06f 0208 	mvn.w	r2, #8
 800507a:	611a      	str	r2, [r3, #16]
 800507c:	687b      	ldr	r3, [r7, #4]
 800507e:	2204      	movs	r2, #4
 8005080:	771a      	strb	r2, [r3, #28]
 8005082:	687b      	ldr	r3, [r7, #4]
 8005084:	681b      	ldr	r3, [r3, #0]
 8005086:	69db      	ldr	r3, [r3, #28]
 8005088:	f003 0303 	and.w	r3, r3, #3
 800508c:	2b00      	cmp	r3, #0
 800508e:	d003      	beq.n	8005098 <HAL_TIM_IRQHandler+0xf2>
 8005090:	6878      	ldr	r0, [r7, #4]
 8005092:	f000 fa24 	bl	80054de <HAL_TIM_IC_CaptureCallback>
 8005096:	e005      	b.n	80050a4 <HAL_TIM_IRQHandler+0xfe>
 8005098:	6878      	ldr	r0, [r7, #4]
 800509a:	f000 fa16 	bl	80054ca <HAL_TIM_OC_DelayElapsedCallback>
 800509e:	6878      	ldr	r0, [r7, #4]
 80050a0:	f000 fa27 	bl	80054f2 <HAL_TIM_PWM_PulseFinishedCallback>
 80050a4:	687b      	ldr	r3, [r7, #4]
 80050a6:	2200      	movs	r2, #0
 80050a8:	771a      	strb	r2, [r3, #28]
 80050aa:	687b      	ldr	r3, [r7, #4]
 80050ac:	681b      	ldr	r3, [r3, #0]
 80050ae:	691b      	ldr	r3, [r3, #16]
 80050b0:	f003 0310 	and.w	r3, r3, #16
 80050b4:	2b10      	cmp	r3, #16
 80050b6:	d122      	bne.n	80050fe <HAL_TIM_IRQHandler+0x158>
 80050b8:	687b      	ldr	r3, [r7, #4]
 80050ba:	681b      	ldr	r3, [r3, #0]
 80050bc:	68db      	ldr	r3, [r3, #12]
 80050be:	f003 0310 	and.w	r3, r3, #16
 80050c2:	2b10      	cmp	r3, #16
 80050c4:	d11b      	bne.n	80050fe <HAL_TIM_IRQHandler+0x158>
 80050c6:	687b      	ldr	r3, [r7, #4]
 80050c8:	681b      	ldr	r3, [r3, #0]
 80050ca:	f06f 0210 	mvn.w	r2, #16
 80050ce:	611a      	str	r2, [r3, #16]
 80050d0:	687b      	ldr	r3, [r7, #4]
 80050d2:	2208      	movs	r2, #8
 80050d4:	771a      	strb	r2, [r3, #28]
 80050d6:	687b      	ldr	r3, [r7, #4]
 80050d8:	681b      	ldr	r3, [r3, #0]
 80050da:	69db      	ldr	r3, [r3, #28]
 80050dc:	f403 7340 	and.w	r3, r3, #768	@ 0x300
 80050e0:	2b00      	cmp	r3, #0
 80050e2:	d003      	beq.n	80050ec <HAL_TIM_IRQHandler+0x146>
 80050e4:	6878      	ldr	r0, [r7, #4]
 80050e6:	f000 f9fa 	bl	80054de <HAL_TIM_IC_CaptureCallback>
 80050ea:	e005      	b.n	80050f8 <HAL_TIM_IRQHandler+0x152>
 80050ec:	6878      	ldr	r0, [r7, #4]
 80050ee:	f000 f9ec 	bl	80054ca <HAL_TIM_OC_DelayElapsedCallback>
 80050f2:	6878      	ldr	r0, [r7, #4]
 80050f4:	f000 f9fd 	bl	80054f2 <HAL_TIM_PWM_PulseFinishedCallback>
 80050f8:	687b      	ldr	r3, [r7, #4]
 80050fa:	2200      	movs	r2, #0
 80050fc:	771a      	strb	r2, [r3, #28]
 80050fe:	687b      	ldr	r3, [r7, #4]
 8005100:	681b      	ldr	r3, [r3, #0]
 8005102:	691b      	ldr	r3, [r3, #16]
 8005104:	f003 0301 	and.w	r3, r3, #1
 8005108:	2b01      	cmp	r3, #1
 800510a:	d10e      	bne.n	800512a <HAL_TIM_IRQHandler+0x184>
 800510c:	687b      	ldr	r3, [r7, #4]
 800510e:	681b      	ldr	r3, [r3, #0]
 8005110:	68db      	ldr	r3, [r3, #12]
 8005112:	f003 0301 	and.w	r3, r3, #1
 8005116:	2b01      	cmp	r3, #1
 8005118:	d107      	bne.n	800512a <HAL_TIM_IRQHandler+0x184>
 800511a:	687b      	ldr	r3, [r7, #4]
 800511c:	681b      	ldr	r3, [r3, #0]
 800511e:	f06f 0201 	mvn.w	r2, #1
 8005122:	611a      	str	r2, [r3, #16]
 8005124:	6878      	ldr	r0, [r7, #4]
 8005126:	f7fc fc45 	bl	80019b4 <HAL_TIM_PeriodElapsedCallback>
 800512a:	687b      	ldr	r3, [r7, #4]
 800512c:	681b      	ldr	r3, [r3, #0]
 800512e:	691b      	ldr	r3, [r3, #16]
 8005130:	f003 0380 	and.w	r3, r3, #128	@ 0x80
 8005134:	2b80      	cmp	r3, #128	@ 0x80
 8005136:	d10e      	bne.n	8005156 <HAL_TIM_IRQHandler+0x1b0>
 8005138:	687b      	ldr	r3, [r7, #4]
 800513a:	681b      	ldr	r3, [r3, #0]
 800513c:	68db      	ldr	r3, [r3, #12]
 800513e:	f003 0380 	and.w	r3, r3, #128	@ 0x80
 8005142:	2b80      	cmp	r3, #128	@ 0x80
 8005144:	d107      	bne.n	8005156 <HAL_TIM_IRQHandler+0x1b0>
 8005146:	687b      	ldr	r3, [r7, #4]
 8005148:	681b      	ldr	r3, [r3, #0]
 800514a:	f06f 0280 	mvn.w	r2, #128	@ 0x80
 800514e:	611a      	str	r2, [r3, #16]
 8005150:	6878      	ldr	r0, [r7, #4]
 8005152:	f000 fd53 	bl	8005bfc <HAL_TIMEx_BreakCallback>
 8005156:	687b      	ldr	r3, [r7, #4]
 8005158:	681b      	ldr	r3, [r3, #0]
 800515a:	691b      	ldr	r3, [r3, #16]
 800515c:	f003 0340 	and.w	r3, r3, #64	@ 0x40
 8005160:	2b40      	cmp	r3, #64	@ 0x40
 8005162:	d10e      	bne.n	8005182 <HAL_TIM_IRQHandler+0x1dc>
 8005164:	687b      	ldr	r3, [r7, #4]
 8005166:	681b      	ldr	r3, [r3, #0]
 8005168:	68db      	ldr	r3, [r3, #12]
 800516a:	f003 0340 	and.w	r3, r3, #64	@ 0x40
 800516e:	2b40      	cmp	r3, #64	@ 0x40
 8005170:	d107      	bne.n	8005182 <HAL_TIM_IRQHandler+0x1dc>
 8005172:	687b      	ldr	r3, [r7, #4]
 8005174:	681b      	ldr	r3, [r3, #0]
 8005176:	f06f 0240 	mvn.w	r2, #64	@ 0x40
 800517a:	611a      	str	r2, [r3, #16]
 800517c:	6878      	ldr	r0, [r7, #4]
 800517e:	f000 f9c2 	bl	8005506 <HAL_TIM_TriggerCallback>
 8005182:	687b      	ldr	r3, [r7, #4]
 8005184:	681b      	ldr	r3, [r3, #0]
 8005186:	691b      	ldr	r3, [r3, #16]
 8005188:	f003 0320 	and.w	r3, r3, #32
 800518c:	2b20      	cmp	r3, #32
 800518e:	d10e      	bne.n	80051ae <HAL_TIM_IRQHandler+0x208>
 8005190:	687b      	ldr	r3, [r7, #4]
 8005192:	681b      	ldr	r3, [r3, #0]
 8005194:	68db      	ldr	r3, [r3, #12]
 8005196:	f003 0320 	and.w	r3, r3, #32
 800519a:	2b20      	cmp	r3, #32
 800519c:	d107      	bne.n	80051ae <HAL_TIM_IRQHandler+0x208>
 800519e:	687b      	ldr	r3, [r7, #4]
 80051a0:	681b      	ldr	r3, [r3, #0]
 80051a2:	f06f 0220 	mvn.w	r2, #32
 80051a6:	611a      	str	r2, [r3, #16]
 80051a8:	6878      	ldr	r0, [r7, #4]
 80051aa:	f000 fd1d 	bl	8005be8 <HAL_TIMEx_CommutCallback>
 80051ae:	bf00      	nop
 80051b0:	3708      	adds	r7, #8
 80051b2:	46bd      	mov	sp, r7
 80051b4:	bd80      	pop	{r7, pc}
	...

080051b8 <HAL_TIM_PWM_ConfigChannel>:
 80051b8:	b580      	push	{r7, lr}
 80051ba:	b086      	sub	sp, #24
 80051bc:	af00      	add	r7, sp, #0
 80051be:	60f8      	str	r0, [r7, #12]
 80051c0:	60b9      	str	r1, [r7, #8]
 80051c2:	607a      	str	r2, [r7, #4]
 80051c4:	2300      	movs	r3, #0
 80051c6:	75fb      	strb	r3, [r7, #23]
 80051c8:	68fb      	ldr	r3, [r7, #12]
 80051ca:	f893 303c 	ldrb.w	r3, [r3, #60]	@ 0x3c
 80051ce:	2b01      	cmp	r3, #1
 80051d0:	d101      	bne.n	80051d6 <HAL_TIM_PWM_ConfigChannel+0x1e>
 80051d2:	2302      	movs	r3, #2
 80051d4:	e0ae      	b.n	8005334 <HAL_TIM_PWM_ConfigChannel+0x17c>
 80051d6:	68fb      	ldr	r3, [r7, #12]
 80051d8:	2201      	movs	r2, #1
 80051da:	f883 203c 	strb.w	r2, [r3, #60]	@ 0x3c
 80051de:	687b      	ldr	r3, [r7, #4]
 80051e0:	2b0c      	cmp	r3, #12
 80051e2:	f200 809f 	bhi.w	8005324 <HAL_TIM_PWM_ConfigChannel+0x16c>
 80051e6:	a201      	add	r2, pc, #4	@ (adr r2, 80051ec <HAL_TIM_PWM_ConfigChannel+0x34>)
 80051e8:	f852 f023 	ldr.w	pc, [r2, r3, lsl #2]
 80051ec:	08005221 	.word	0x08005221
 80051f0:	08005325 	.word	0x08005325
 80051f4:	08005325 	.word	0x08005325
 80051f8:	08005325 	.word	0x08005325
 80051fc:	08005261 	.word	0x08005261
 8005200:	08005325 	.word	0x08005325
 8005204:	08005325 	.word	0x08005325
 8005208:	08005325 	.word	0x08005325
 800520c:	080052a3 	.word	0x080052a3
 8005210:	08005325 	.word	0x08005325
 8005214:	08005325 	.word	0x08005325
 8005218:	08005325 	.word	0x08005325
 800521c:	080052e3 	.word	0x080052e3
 8005220:	68fb      	ldr	r3, [r7, #12]
 8005222:	681b      	ldr	r3, [r3, #0]
 8005224:	68b9      	ldr	r1, [r7, #8]
 8005226:	4618      	mov	r0, r3
 8005228:	f000 fa18 	bl	800565c <TIM_OC1_SetConfig>
 800522c:	68fb      	ldr	r3, [r7, #12]
 800522e:	681b      	ldr	r3, [r3, #0]
 8005230:	699a      	ldr	r2, [r3, #24]
 8005232:	68fb      	ldr	r3, [r7, #12]
 8005234:	681b      	ldr	r3, [r3, #0]
 8005236:	f042 0208 	orr.w	r2, r2, #8
 800523a:	619a      	str	r2, [r3, #24]
 800523c:	68fb      	ldr	r3, [r7, #12]
 800523e:	681b      	ldr	r3, [r3, #0]
 8005240:	699a      	ldr	r2, [r3, #24]
 8005242:	68fb      	ldr	r3, [r7, #12]
 8005244:	681b      	ldr	r3, [r3, #0]
 8005246:	f022 0204 	bic.w	r2, r2, #4
 800524a:	619a      	str	r2, [r3, #24]
 800524c:	68fb      	ldr	r3, [r7, #12]
 800524e:	681b      	ldr	r3, [r3, #0]
 8005250:	6999      	ldr	r1, [r3, #24]
 8005252:	68bb      	ldr	r3, [r7, #8]
 8005254:	691a      	ldr	r2, [r3, #16]
 8005256:	68fb      	ldr	r3, [r7, #12]
 8005258:	681b      	ldr	r3, [r3, #0]
 800525a:	430a      	orrs	r2, r1
 800525c:	619a      	str	r2, [r3, #24]
 800525e:	e064      	b.n	800532a <HAL_TIM_PWM_ConfigChannel+0x172>
 8005260:	68fb      	ldr	r3, [r7, #12]
 8005262:	681b      	ldr	r3, [r3, #0]
 8005264:	68b9      	ldr	r1, [r7, #8]
 8005266:	4618      	mov	r0, r3
 8005268:	f000 fa68 	bl	800573c <TIM_OC2_SetConfig>
 800526c:	68fb      	ldr	r3, [r7, #12]
 800526e:	681b      	ldr	r3, [r3, #0]
 8005270:	699a      	ldr	r2, [r3, #24]
 8005272:	68fb      	ldr	r3, [r7, #12]
 8005274:	681b      	ldr	r3, [r3, #0]
 8005276:	f442 6200 	orr.w	r2, r2, #2048	@ 0x800
 800527a:	619a      	str	r2, [r3, #24]
 800527c:	68fb      	ldr	r3, [r7, #12]
 800527e:	681b      	ldr	r3, [r3, #0]
 8005280:	699a      	ldr	r2, [r3, #24]
 8005282:	68fb      	ldr	r3, [r7, #12]
 8005284:	681b      	ldr	r3, [r3, #0]
 8005286:	f422 6280 	bic.w	r2, r2, #1024	@ 0x400
 800528a:	619a      	str	r2, [r3, #24]
 800528c:	68fb      	ldr	r3, [r7, #12]
 800528e:	681b      	ldr	r3, [r3, #0]
 8005290:	6999      	ldr	r1, [r3, #24]
 8005292:	68bb      	ldr	r3, [r7, #8]
 8005294:	691b      	ldr	r3, [r3, #16]
 8005296:	021a      	lsls	r2, r3, #8
 8005298:	68fb      	ldr	r3, [r7, #12]
 800529a:	681b      	ldr	r3, [r3, #0]
 800529c:	430a      	orrs	r2, r1
 800529e:	619a      	str	r2, [r3, #24]
 80052a0:	e043      	b.n	800532a <HAL_TIM_PWM_ConfigChannel+0x172>
 80052a2:	68fb      	ldr	r3, [r7, #12]
 80052a4:	681b      	ldr	r3, [r3, #0]
 80052a6:	68b9      	ldr	r1, [r7, #8]
 80052a8:	4618      	mov	r0, r3
 80052aa:	f000 fabd 	bl	8005828 <TIM_OC3_SetConfig>
 80052ae:	68fb      	ldr	r3, [r7, #12]
 80052b0:	681b      	ldr	r3, [r3, #0]
 80052b2:	69da      	ldr	r2, [r3, #28]
 80052b4:	68fb      	ldr	r3, [r7, #12]
 80052b6:	681b      	ldr	r3, [r3, #0]
 80052b8:	f042 0208 	orr.w	r2, r2, #8
 80052bc:	61da      	str	r2, [r3, #28]
 80052be:	68fb      	ldr	r3, [r7, #12]
 80052c0:	681b      	ldr	r3, [r3, #0]
 80052c2:	69da      	ldr	r2, [r3, #28]
 80052c4:	68fb      	ldr	r3, [r7, #12]
 80052c6:	681b      	ldr	r3, [r3, #0]
 80052c8:	f022 0204 	bic.w	r2, r2, #4
 80052cc:	61da      	str	r2, [r3, #28]
 80052ce:	68fb      	ldr	r3, [r7, #12]
 80052d0:	681b      	ldr	r3, [r3, #0]
 80052d2:	69d9      	ldr	r1, [r3, #28]
 80052d4:	68bb      	ldr	r3, [r7, #8]
 80052d6:	691a      	ldr	r2, [r3, #16]
 80052d8:	68fb      	ldr	r3, [r7, #12]
 80052da:	681b      	ldr	r3, [r3, #0]
 80052dc:	430a      	orrs	r2, r1
 80052de:	61da      	str	r2, [r3, #28]
 80052e0:	e023      	b.n	800532a <HAL_TIM_PWM_ConfigChannel+0x172>
 80052e2:	68fb      	ldr	r3, [r7, #12]
 80052e4:	681b      	ldr	r3, [r3, #0]
 80052e6:	68b9      	ldr	r1, [r7, #8]
 80052e8:	4618      	mov	r0, r3
 80052ea:	f000 fb11 	bl	8005910 <TIM_OC4_SetConfig>
 80052ee:	68fb      	ldr	r3, [r7, #12]
 80052f0:	681b      	ldr	r3, [r3, #0]
 80052f2:	69da      	ldr	r2, [r3, #28]
 80052f4:	68fb      	ldr	r3, [r7, #12]
 80052f6:	681b      	ldr	r3, [r3, #0]
 80052f8:	f442 6200 	orr.w	r2, r2, #2048	@ 0x800
 80052fc:	61da      	str	r2, [r3, #28]
 80052fe:	68fb      	ldr	r3, [r7, #12]
 8005300:	681b      	ldr	r3, [r3, #0]
 8005302:	69da      	ldr	r2, [r3, #28]
 8005304:	68fb      	ldr	r3, [r7, #12]
 8005306:	681b      	ldr	r3, [r3, #0]
 8005308:	f422 6280 	bic.w	r2, r2, #1024	@ 0x400
 800530c:	61da      	str	r2, [r3, #28]
 800530e:	68fb      	ldr	r3, [r7, #12]
 8005310:	681b      	ldr	r3, [r3, #0]
 8005312:	69d9      	ldr	r1, [r3, #28]
 8005314:	68bb      	ldr	r3, [r7, #8]
 8005316:	691b      	ldr	r3, [r3, #16]
 8005318:	021a      	lsls	r2, r3, #8
 800531a:	68fb      	ldr	r3, [r7, #12]
 800531c:	681b      	ldr	r3, [r3, #0]
 800531e:	430a      	orrs	r2, r1
 8005320:	61da      	str	r2, [r3, #28]
 8005322:	e002      	b.n	800532a <HAL_TIM_PWM_ConfigChannel+0x172>
 8005324:	2301      	movs	r3, #1
 8005326:	75fb      	strb	r3, [r7, #23]
 8005328:	bf00      	nop
 800532a:	68fb      	ldr	r3, [r7, #12]
 800532c:	2200      	movs	r2, #0
 800532e:	f883 203c 	strb.w	r2, [r3, #60]	@ 0x3c
 8005332:	7dfb      	ldrb	r3, [r7, #23]
 8005334:	4618      	mov	r0, r3
 8005336:	3718      	adds	r7, #24
 8005338:	46bd      	mov	sp, r7
 800533a:	bd80      	pop	{r7, pc}

0800533c <HAL_TIM_ConfigClockSource>:
 800533c:	b580      	push	{r7, lr}
 800533e:	b084      	sub	sp, #16
 8005340:	af00      	add	r7, sp, #0
 8005342:	6078      	str	r0, [r7, #4]
 8005344:	6039      	str	r1, [r7, #0]
 8005346:	2300      	movs	r3, #0
 8005348:	73fb      	strb	r3, [r7, #15]
 800534a:	687b      	ldr	r3, [r7, #4]
 800534c:	f893 303c 	ldrb.w	r3, [r3, #60]	@ 0x3c
 8005350:	2b01      	cmp	r3, #1
 8005352:	d101      	bne.n	8005358 <HAL_TIM_ConfigClockSource+0x1c>
 8005354:	2302      	movs	r3, #2
 8005356:	e0b4      	b.n	80054c2 <HAL_TIM_ConfigClockSource+0x186>
 8005358:	687b      	ldr	r3, [r7, #4]
 800535a:	2201      	movs	r2, #1
 800535c:	f883 203c 	strb.w	r2, [r3, #60]	@ 0x3c
 8005360:	687b      	ldr	r3, [r7, #4]
 8005362:	2202      	movs	r2, #2
 8005364:	f883 203d 	strb.w	r2, [r3, #61]	@ 0x3d
 8005368:	687b      	ldr	r3, [r7, #4]
 800536a:	681b      	ldr	r3, [r3, #0]
 800536c:	689b      	ldr	r3, [r3, #8]
 800536e:	60bb      	str	r3, [r7, #8]
 8005370:	68bb      	ldr	r3, [r7, #8]
 8005372:	f023 0377 	bic.w	r3, r3, #119	@ 0x77
 8005376:	60bb      	str	r3, [r7, #8]
 8005378:	68bb      	ldr	r3, [r7, #8]
 800537a:	f423 437f 	bic.w	r3, r3, #65280	@ 0xff00
 800537e:	60bb      	str	r3, [r7, #8]
 8005380:	687b      	ldr	r3, [r7, #4]
 8005382:	681b      	ldr	r3, [r3, #0]
 8005384:	68ba      	ldr	r2, [r7, #8]
 8005386:	609a      	str	r2, [r3, #8]
 8005388:	683b      	ldr	r3, [r7, #0]
 800538a:	681b      	ldr	r3, [r3, #0]
 800538c:	f5b3 5f00 	cmp.w	r3, #8192	@ 0x2000
 8005390:	d03e      	beq.n	8005410 <HAL_TIM_ConfigClockSource+0xd4>
 8005392:	f5b3 5f00 	cmp.w	r3, #8192	@ 0x2000
 8005396:	f200 8087 	bhi.w	80054a8 <HAL_TIM_ConfigClockSource+0x16c>
 800539a:	f5b3 5f80 	cmp.w	r3, #4096	@ 0x1000
 800539e:	f000 8086 	beq.w	80054ae <HAL_TIM_ConfigClockSource+0x172>
 80053a2:	f5b3 5f80 	cmp.w	r3, #4096	@ 0x1000
 80053a6:	d87f      	bhi.n	80054a8 <HAL_TIM_ConfigClockSource+0x16c>
 80053a8:	2b70      	cmp	r3, #112	@ 0x70
 80053aa:	d01a      	beq.n	80053e2 <HAL_TIM_ConfigClockSource+0xa6>
 80053ac:	2b70      	cmp	r3, #112	@ 0x70
 80053ae:	d87b      	bhi.n	80054a8 <HAL_TIM_ConfigClockSource+0x16c>
 80053b0:	2b60      	cmp	r3, #96	@ 0x60
 80053b2:	d050      	beq.n	8005456 <HAL_TIM_ConfigClockSource+0x11a>
 80053b4:	2b60      	cmp	r3, #96	@ 0x60
 80053b6:	d877      	bhi.n	80054a8 <HAL_TIM_ConfigClockSource+0x16c>
 80053b8:	2b50      	cmp	r3, #80	@ 0x50
 80053ba:	d03c      	beq.n	8005436 <HAL_TIM_ConfigClockSource+0xfa>
 80053bc:	2b50      	cmp	r3, #80	@ 0x50
 80053be:	d873      	bhi.n	80054a8 <HAL_TIM_ConfigClockSource+0x16c>
 80053c0:	2b40      	cmp	r3, #64	@ 0x40
 80053c2:	d058      	beq.n	8005476 <HAL_TIM_ConfigClockSource+0x13a>
 80053c4:	2b40      	cmp	r3, #64	@ 0x40
 80053c6:	d86f      	bhi.n	80054a8 <HAL_TIM_ConfigClockSource+0x16c>
 80053c8:	2b30      	cmp	r3, #48	@ 0x30
 80053ca:	d064      	beq.n	8005496 <HAL_TIM_ConfigClockSource+0x15a>
 80053cc:	2b30      	cmp	r3, #48	@ 0x30
 80053ce:	d86b      	bhi.n	80054a8 <HAL_TIM_ConfigClockSource+0x16c>
 80053d0:	2b20      	cmp	r3, #32
 80053d2:	d060      	beq.n	8005496 <HAL_TIM_ConfigClockSource+0x15a>
 80053d4:	2b20      	cmp	r3, #32
 80053d6:	d867      	bhi.n	80054a8 <HAL_TIM_ConfigClockSource+0x16c>
 80053d8:	2b00      	cmp	r3, #0
 80053da:	d05c      	beq.n	8005496 <HAL_TIM_ConfigClockSource+0x15a>
 80053dc:	2b10      	cmp	r3, #16
 80053de:	d05a      	beq.n	8005496 <HAL_TIM_ConfigClockSource+0x15a>
 80053e0:	e062      	b.n	80054a8 <HAL_TIM_ConfigClockSource+0x16c>
 80053e2:	687b      	ldr	r3, [r7, #4]
 80053e4:	6818      	ldr	r0, [r3, #0]
 80053e6:	683b      	ldr	r3, [r7, #0]
 80053e8:	6899      	ldr	r1, [r3, #8]
 80053ea:	683b      	ldr	r3, [r7, #0]
 80053ec:	685a      	ldr	r2, [r3, #4]
 80053ee:	683b      	ldr	r3, [r7, #0]
 80053f0:	68db      	ldr	r3, [r3, #12]
 80053f2:	f000 fb5d 	bl	8005ab0 <TIM_ETR_SetConfig>
 80053f6:	687b      	ldr	r3, [r7, #4]
 80053f8:	681b      	ldr	r3, [r3, #0]
 80053fa:	689b      	ldr	r3, [r3, #8]
 80053fc:	60bb      	str	r3, [r7, #8]
 80053fe:	68bb      	ldr	r3, [r7, #8]
 8005400:	f043 0377 	orr.w	r3, r3, #119	@ 0x77
 8005404:	60bb      	str	r3, [r7, #8]
 8005406:	687b      	ldr	r3, [r7, #4]
 8005408:	681b      	ldr	r3, [r3, #0]
 800540a:	68ba      	ldr	r2, [r7, #8]
 800540c:	609a      	str	r2, [r3, #8]
 800540e:	e04f      	b.n	80054b0 <HAL_TIM_ConfigClockSource+0x174>
 8005410:	687b      	ldr	r3, [r7, #4]
 8005412:	6818      	ldr	r0, [r3, #0]
 8005414:	683b      	ldr	r3, [r7, #0]
 8005416:	6899      	ldr	r1, [r3, #8]
 8005418:	683b      	ldr	r3, [r7, #0]
 800541a:	685a      	ldr	r2, [r3, #4]
 800541c:	683b      	ldr	r3, [r7, #0]
 800541e:	68db      	ldr	r3, [r3, #12]
 8005420:	f000 fb46 	bl	8005ab0 <TIM_ETR_SetConfig>
 8005424:	687b      	ldr	r3, [r7, #4]
 8005426:	681b      	ldr	r3, [r3, #0]
 8005428:	689a      	ldr	r2, [r3, #8]
 800542a:	687b      	ldr	r3, [r7, #4]
 800542c:	681b      	ldr	r3, [r3, #0]
 800542e:	f442 4280 	orr.w	r2, r2, #16384	@ 0x4000
 8005432:	609a      	str	r2, [r3, #8]
 8005434:	e03c      	b.n	80054b0 <HAL_TIM_ConfigClockSource+0x174>
 8005436:	687b      	ldr	r3, [r7, #4]
 8005438:	6818      	ldr	r0, [r3, #0]
 800543a:	683b      	ldr	r3, [r7, #0]
 800543c:	6859      	ldr	r1, [r3, #4]
 800543e:	683b      	ldr	r3, [r7, #0]
 8005440:	68db      	ldr	r3, [r3, #12]
 8005442:	461a      	mov	r2, r3
 8005444:	f000 faba 	bl	80059bc <TIM_TI1_ConfigInputStage>
 8005448:	687b      	ldr	r3, [r7, #4]
 800544a:	681b      	ldr	r3, [r3, #0]
 800544c:	2150      	movs	r1, #80	@ 0x50
 800544e:	4618      	mov	r0, r3
 8005450:	f000 fb13 	bl	8005a7a <TIM_ITRx_SetConfig>
 8005454:	e02c      	b.n	80054b0 <HAL_TIM_ConfigClockSource+0x174>
 8005456:	687b      	ldr	r3, [r7, #4]
 8005458:	6818      	ldr	r0, [r3, #0]
 800545a:	683b      	ldr	r3, [r7, #0]
 800545c:	6859      	ldr	r1, [r3, #4]
 800545e:	683b      	ldr	r3, [r7, #0]
 8005460:	68db      	ldr	r3, [r3, #12]
 8005462:	461a      	mov	r2, r3
 8005464:	f000 fad9 	bl	8005a1a <TIM_TI2_ConfigInputStage>
 8005468:	687b      	ldr	r3, [r7, #4]
 800546a:	681b      	ldr	r3, [r3, #0]
 800546c:	2160      	movs	r1, #96	@ 0x60
 800546e:	4618      	mov	r0, r3
 8005470:	f000 fb03 	bl	8005a7a <TIM_ITRx_SetConfig>
 8005474:	e01c      	b.n	80054b0 <HAL_TIM_ConfigClockSource+0x174>
 8005476:	687b      	ldr	r3, [r7, #4]
 8005478:	6818      	ldr	r0, [r3, #0]
 800547a:	683b      	ldr	r3, [r7, #0]
 800547c:	6859      	ldr	r1, [r3, #4]
 800547e:	683b      	ldr	r3, [r7, #0]
 8005480:	68db      	ldr	r3, [r3, #12]
 8005482:	461a      	mov	r2, r3
 8005484:	f000 fa9a 	bl	80059bc <TIM_TI1_ConfigInputStage>
 8005488:	687b      	ldr	r3, [r7, #4]
 800548a:	681b      	ldr	r3, [r3, #0]
 800548c:	2140      	movs	r1, #64	@ 0x40
 800548e:	4618      	mov	r0, r3
 8005490:	f000 faf3 	bl	8005a7a <TIM_ITRx_SetConfig>
 8005494:	e00c      	b.n	80054b0 <HAL_TIM_ConfigClockSource+0x174>
 8005496:	687b      	ldr	r3, [r7, #4]
 8005498:	681a      	ldr	r2, [r3, #0]
 800549a:	683b      	ldr	r3, [r7, #0]
 800549c:	681b      	ldr	r3, [r3, #0]
 800549e:	4619      	mov	r1, r3
 80054a0:	4610      	mov	r0, r2
 80054a2:	f000 faea 	bl	8005a7a <TIM_ITRx_SetConfig>
 80054a6:	e003      	b.n	80054b0 <HAL_TIM_ConfigClockSource+0x174>
 80054a8:	2301      	movs	r3, #1
 80054aa:	73fb      	strb	r3, [r7, #15]
 80054ac:	e000      	b.n	80054b0 <HAL_TIM_ConfigClockSource+0x174>
 80054ae:	bf00      	nop
 80054b0:	687b      	ldr	r3, [r7, #4]
 80054b2:	2201      	movs	r2, #1
 80054b4:	f883 203d 	strb.w	r2, [r3, #61]	@ 0x3d
 80054b8:	687b      	ldr	r3, [r7, #4]
 80054ba:	2200      	movs	r2, #0
 80054bc:	f883 203c 	strb.w	r2, [r3, #60]	@ 0x3c
 80054c0:	7bfb      	ldrb	r3, [r7, #15]
 80054c2:	4618      	mov	r0, r3
 80054c4:	3710      	adds	r7, #16
 80054c6:	46bd      	mov	sp, r7
 80054c8:	bd80      	pop	{r7, pc}

080054ca <HAL_TIM_OC_DelayElapsedCallback>:
 80054ca:	b480      	push	{r7}
 80054cc:	b083      	sub	sp, #12
 80054ce:	af00      	add	r7, sp, #0
 80054d0:	6078      	str	r0, [r7, #4]
 80054d2:	bf00      	nop
 80054d4:	370c      	adds	r7, #12
 80054d6:	46bd      	mov	sp, r7
 80054d8:	f85d 7b04 	ldr.w	r7, [sp], #4
 80054dc:	4770      	bx	lr

080054de <HAL_TIM_IC_CaptureCallback>:
 80054de:	b480      	push	{r7}
 80054e0:	b083      	sub	sp, #12
 80054e2:	af00      	add	r7, sp, #0
 80054e4:	6078      	str	r0, [r7, #4]
 80054e6:	bf00      	nop
 80054e8:	370c      	adds	r7, #12
 80054ea:	46bd      	mov	sp, r7
 80054ec:	f85d 7b04 	ldr.w	r7, [sp], #4
 80054f0:	4770      	bx	lr

080054f2 <HAL_TIM_PWM_PulseFinishedCallback>:
 80054f2:	b480      	push	{r7}
 80054f4:	b083      	sub	sp, #12
 80054f6:	af00      	add	r7, sp, #0
 80054f8:	6078      	str	r0, [r7, #4]
 80054fa:	bf00      	nop
 80054fc:	370c      	adds	r7, #12
 80054fe:	46bd      	mov	sp, r7
 8005500:	f85d 7b04 	ldr.w	r7, [sp], #4
 8005504:	4770      	bx	lr

08005506 <HAL_TIM_TriggerCallback>:
 8005506:	b480      	push	{r7}
 8005508:	b083      	sub	sp, #12
 800550a:	af00      	add	r7, sp, #0
 800550c:	6078      	str	r0, [r7, #4]
 800550e:	bf00      	nop
 8005510:	370c      	adds	r7, #12
 8005512:	46bd      	mov	sp, r7
 8005514:	f85d 7b04 	ldr.w	r7, [sp], #4
 8005518:	4770      	bx	lr
	...

0800551c <TIM_Base_SetConfig>:
 800551c:	b480      	push	{r7}
 800551e:	b085      	sub	sp, #20
 8005520:	af00      	add	r7, sp, #0
 8005522:	6078      	str	r0, [r7, #4]
 8005524:	6039      	str	r1, [r7, #0]
 8005526:	687b      	ldr	r3, [r7, #4]
 8005528:	681b      	ldr	r3, [r3, #0]
 800552a:	60fb      	str	r3, [r7, #12]
 800552c:	687b      	ldr	r3, [r7, #4]
 800552e:	4a40      	ldr	r2, [pc, #256]	@ (8005630 <TIM_Base_SetConfig+0x114>)
 8005530:	4293      	cmp	r3, r2
 8005532:	d013      	beq.n	800555c <TIM_Base_SetConfig+0x40>
 8005534:	687b      	ldr	r3, [r7, #4]
 8005536:	f1b3 4f80 	cmp.w	r3, #1073741824	@ 0x40000000
 800553a:	d00f      	beq.n	800555c <TIM_Base_SetConfig+0x40>
 800553c:	687b      	ldr	r3, [r7, #4]
 800553e:	4a3d      	ldr	r2, [pc, #244]	@ (8005634 <TIM_Base_SetConfig+0x118>)
 8005540:	4293      	cmp	r3, r2
 8005542:	d00b      	beq.n	800555c <TIM_Base_SetConfig+0x40>
 8005544:	687b      	ldr	r3, [r7, #4]
 8005546:	4a3c      	ldr	r2, [pc, #240]	@ (8005638 <TIM_Base_SetConfig+0x11c>)
 8005548:	4293      	cmp	r3, r2
 800554a:	d007      	beq.n	800555c <TIM_Base_SetConfig+0x40>
 800554c:	687b      	ldr	r3, [r7, #4]
 800554e:	4a3b      	ldr	r2, [pc, #236]	@ (800563c <TIM_Base_SetConfig+0x120>)
 8005550:	4293      	cmp	r3, r2
 8005552:	d003      	beq.n	800555c <TIM_Base_SetConfig+0x40>
 8005554:	687b      	ldr	r3, [r7, #4]
 8005556:	4a3a      	ldr	r2, [pc, #232]	@ (8005640 <TIM_Base_SetConfig+0x124>)
 8005558:	4293      	cmp	r3, r2
 800555a:	d108      	bne.n	800556e <TIM_Base_SetConfig+0x52>
 800555c:	68fb      	ldr	r3, [r7, #12]
 800555e:	f023 0370 	bic.w	r3, r3, #112	@ 0x70
 8005562:	60fb      	str	r3, [r7, #12]
 8005564:	683b      	ldr	r3, [r7, #0]
 8005566:	685b      	ldr	r3, [r3, #4]
 8005568:	68fa      	ldr	r2, [r7, #12]
 800556a:	4313      	orrs	r3, r2
 800556c:	60fb      	str	r3, [r7, #12]
 800556e:	687b      	ldr	r3, [r7, #4]
 8005570:	4a2f      	ldr	r2, [pc, #188]	@ (8005630 <TIM_Base_SetConfig+0x114>)
 8005572:	4293      	cmp	r3, r2
 8005574:	d02b      	beq.n	80055ce <TIM_Base_SetConfig+0xb2>
 8005576:	687b      	ldr	r3, [r7, #4]
 8005578:	f1b3 4f80 	cmp.w	r3, #1073741824	@ 0x40000000
 800557c:	d027      	beq.n	80055ce <TIM_Base_SetConfig+0xb2>
 800557e:	687b      	ldr	r3, [r7, #4]
 8005580:	4a2c      	ldr	r2, [pc, #176]	@ (8005634 <TIM_Base_SetConfig+0x118>)
 8005582:	4293      	cmp	r3, r2
 8005584:	d023      	beq.n	80055ce <TIM_Base_SetConfig+0xb2>
 8005586:	687b      	ldr	r3, [r7, #4]
 8005588:	4a2b      	ldr	r2, [pc, #172]	@ (8005638 <TIM_Base_SetConfig+0x11c>)
 800558a:	4293      	cmp	r3, r2
 800558c:	d01f      	beq.n	80055ce <TIM_Base_SetConfig+0xb2>
 800558e:	687b      	ldr	r3, [r7, #4]
 8005590:	4a2a      	ldr	r2, [pc, #168]	@ (800563c <TIM_Base_SetConfig+0x120>)
 8005592:	4293      	cmp	r3, r2
 8005594:	d01b      	beq.n	80055ce <TIM_Base_SetConfig+0xb2>
 8005596:	687b      	ldr	r3, [r7, #4]
 8005598:	4a29      	ldr	r2, [pc, #164]	@ (8005640 <TIM_Base_SetConfig+0x124>)
 800559a:	4293      	cmp	r3, r2
 800559c:	d017      	beq.n	80055ce <TIM_Base_SetConfig+0xb2>
 800559e:	687b      	ldr	r3, [r7, #4]
 80055a0:	4a28      	ldr	r2, [pc, #160]	@ (8005644 <TIM_Base_SetConfig+0x128>)
 80055a2:	4293      	cmp	r3, r2
 80055a4:	d013      	beq.n	80055ce <TIM_Base_SetConfig+0xb2>
 80055a6:	687b      	ldr	r3, [r7, #4]
 80055a8:	4a27      	ldr	r2, [pc, #156]	@ (8005648 <TIM_Base_SetConfig+0x12c>)
 80055aa:	4293      	cmp	r3, r2
 80055ac:	d00f      	beq.n	80055ce <TIM_Base_SetConfig+0xb2>
 80055ae:	687b      	ldr	r3, [r7, #4]
 80055b0:	4a26      	ldr	r2, [pc, #152]	@ (800564c <TIM_Base_SetConfig+0x130>)
 80055b2:	4293      	cmp	r3, r2
 80055b4:	d00b      	beq.n	80055ce <TIM_Base_SetConfig+0xb2>
 80055b6:	687b      	ldr	r3, [r7, #4]
 80055b8:	4a25      	ldr	r2, [pc, #148]	@ (8005650 <TIM_Base_SetConfig+0x134>)
 80055ba:	4293      	cmp	r3, r2
 80055bc:	d007      	beq.n	80055ce <TIM_Base_SetConfig+0xb2>
 80055be:	687b      	ldr	r3, [r7, #4]
 80055c0:	4a24      	ldr	r2, [pc, #144]	@ (8005654 <TIM_Base_SetConfig+0x138>)
 80055c2:	4293      	cmp	r3, r2
 80055c4:	d003      	beq.n	80055ce <TIM_Base_SetConfig+0xb2>
 80055c6:	687b      	ldr	r3, [r7, #4]
 80055c8:	4a23      	ldr	r2, [pc, #140]	@ (8005658 <TIM_Base_SetConfig+0x13c>)
 80055ca:	4293      	cmp	r3, r2
 80055cc:	d108      	bne.n	80055e0 <TIM_Base_SetConfig+0xc4>
 80055ce:	68fb      	ldr	r3, [r7, #12]
 80055d0:	f423 7340 	bic.w	r3, r3, #768	@ 0x300
 80055d4:	60fb      	str	r3, [r7, #12]
 80055d6:	683b      	ldr	r3, [r7, #0]
 80055d8:	68db      	ldr	r3, [r3, #12]
 80055da:	68fa      	ldr	r2, [r7, #12]
 80055dc:	4313      	orrs	r3, r2
 80055de:	60fb      	str	r3, [r7, #12]
 80055e0:	68fb      	ldr	r3, [r7, #12]
 80055e2:	f023 0280 	bic.w	r2, r3, #128	@ 0x80
 80055e6:	683b      	ldr	r3, [r7, #0]
 80055e8:	695b      	ldr	r3, [r3, #20]
 80055ea:	4313      	orrs	r3, r2
 80055ec:	60fb      	str	r3, [r7, #12]
 80055ee:	687b      	ldr	r3, [r7, #4]
 80055f0:	68fa      	ldr	r2, [r7, #12]
 80055f2:	601a      	str	r2, [r3, #0]
 80055f4:	683b      	ldr	r3, [r7, #0]
 80055f6:	689a      	ldr	r2, [r3, #8]
 80055f8:	687b      	ldr	r3, [r7, #4]
 80055fa:	62da      	str	r2, [r3, #44]	@ 0x2c
 80055fc:	683b      	ldr	r3, [r7, #0]
 80055fe:	681a      	ldr	r2, [r3, #0]
 8005600:	687b      	ldr	r3, [r7, #4]
 8005602:	629a      	str	r2, [r3, #40]	@ 0x28
 8005604:	687b      	ldr	r3, [r7, #4]
 8005606:	4a0a      	ldr	r2, [pc, #40]	@ (8005630 <TIM_Base_SetConfig+0x114>)
 8005608:	4293      	cmp	r3, r2
 800560a:	d003      	beq.n	8005614 <TIM_Base_SetConfig+0xf8>
 800560c:	687b      	ldr	r3, [r7, #4]
 800560e:	4a0c      	ldr	r2, [pc, #48]	@ (8005640 <TIM_Base_SetConfig+0x124>)
 8005610:	4293      	cmp	r3, r2
 8005612:	d103      	bne.n	800561c <TIM_Base_SetConfig+0x100>
 8005614:	683b      	ldr	r3, [r7, #0]
 8005616:	691a      	ldr	r2, [r3, #16]
 8005618:	687b      	ldr	r3, [r7, #4]
 800561a:	631a      	str	r2, [r3, #48]	@ 0x30
 800561c:	687b      	ldr	r3, [r7, #4]
 800561e:	2201      	movs	r2, #1
 8005620:	615a      	str	r2, [r3, #20]
 8005622:	bf00      	nop
 8005624:	3714      	adds	r7, #20
 8005626:	46bd      	mov	sp, r7
 8005628:	f85d 7b04 	ldr.w	r7, [sp], #4
 800562c:	4770      	bx	lr
 800562e:	bf00      	nop
 8005630:	40010000 	.word	0x40010000
 8005634:	40000400 	.word	0x40000400
 8005638:	40000800 	.word	0x40000800
 800563c:	40000c00 	.word	0x40000c00
 8005640:	40010400 	.word	0x40010400
 8005644:	40014000 	.word	0x40014000
 8005648:	40014400 	.word	0x40014400
 800564c:	40014800 	.word	0x40014800
 8005650:	40001800 	.word	0x40001800
 8005654:	40001c00 	.word	0x40001c00
 8005658:	40002000 	.word	0x40002000

0800565c <TIM_OC1_SetConfig>:
 800565c:	b480      	push	{r7}
 800565e:	b087      	sub	sp, #28
 8005660:	af00      	add	r7, sp, #0
 8005662:	6078      	str	r0, [r7, #4]
 8005664:	6039      	str	r1, [r7, #0]
 8005666:	687b      	ldr	r3, [r7, #4]
 8005668:	6a1b      	ldr	r3, [r3, #32]
 800566a:	f023 0201 	bic.w	r2, r3, #1
 800566e:	687b      	ldr	r3, [r7, #4]
 8005670:	621a      	str	r2, [r3, #32]
 8005672:	687b      	ldr	r3, [r7, #4]
 8005674:	6a1b      	ldr	r3, [r3, #32]
 8005676:	617b      	str	r3, [r7, #20]
 8005678:	687b      	ldr	r3, [r7, #4]
 800567a:	685b      	ldr	r3, [r3, #4]
 800567c:	613b      	str	r3, [r7, #16]
 800567e:	687b      	ldr	r3, [r7, #4]
 8005680:	699b      	ldr	r3, [r3, #24]
 8005682:	60fb      	str	r3, [r7, #12]
 8005684:	68fb      	ldr	r3, [r7, #12]
 8005686:	f023 0370 	bic.w	r3, r3, #112	@ 0x70
 800568a:	60fb      	str	r3, [r7, #12]
 800568c:	68fb      	ldr	r3, [r7, #12]
 800568e:	f023 0303 	bic.w	r3, r3, #3
 8005692:	60fb      	str	r3, [r7, #12]
 8005694:	683b      	ldr	r3, [r7, #0]
 8005696:	681b      	ldr	r3, [r3, #0]
 8005698:	68fa      	ldr	r2, [r7, #12]
 800569a:	4313      	orrs	r3, r2
 800569c:	60fb      	str	r3, [r7, #12]
 800569e:	697b      	ldr	r3, [r7, #20]
 80056a0:	f023 0302 	bic.w	r3, r3, #2
 80056a4:	617b      	str	r3, [r7, #20]
 80056a6:	683b      	ldr	r3, [r7, #0]
 80056a8:	689b      	ldr	r3, [r3, #8]
 80056aa:	697a      	ldr	r2, [r7, #20]
 80056ac:	4313      	orrs	r3, r2
 80056ae:	617b      	str	r3, [r7, #20]
 80056b0:	687b      	ldr	r3, [r7, #4]
 80056b2:	4a20      	ldr	r2, [pc, #128]	@ (8005734 <TIM_OC1_SetConfig+0xd8>)
 80056b4:	4293      	cmp	r3, r2
 80056b6:	d003      	beq.n	80056c0 <TIM_OC1_SetConfig+0x64>
 80056b8:	687b      	ldr	r3, [r7, #4]
 80056ba:	4a1f      	ldr	r2, [pc, #124]	@ (8005738 <TIM_OC1_SetConfig+0xdc>)
 80056bc:	4293      	cmp	r3, r2
 80056be:	d10c      	bne.n	80056da <TIM_OC1_SetConfig+0x7e>
 80056c0:	697b      	ldr	r3, [r7, #20]
 80056c2:	f023 0308 	bic.w	r3, r3, #8
 80056c6:	617b      	str	r3, [r7, #20]
 80056c8:	683b      	ldr	r3, [r7, #0]
 80056ca:	68db      	ldr	r3, [r3, #12]
 80056cc:	697a      	ldr	r2, [r7, #20]
 80056ce:	4313      	orrs	r3, r2
 80056d0:	617b      	str	r3, [r7, #20]
 80056d2:	697b      	ldr	r3, [r7, #20]
 80056d4:	f023 0304 	bic.w	r3, r3, #4
 80056d8:	617b      	str	r3, [r7, #20]
 80056da:	687b      	ldr	r3, [r7, #4]
 80056dc:	4a15      	ldr	r2, [pc, #84]	@ (8005734 <TIM_OC1_SetConfig+0xd8>)
 80056de:	4293      	cmp	r3, r2
 80056e0:	d003      	beq.n	80056ea <TIM_OC1_SetConfig+0x8e>
 80056e2:	687b      	ldr	r3, [r7, #4]
 80056e4:	4a14      	ldr	r2, [pc, #80]	@ (8005738 <TIM_OC1_SetConfig+0xdc>)
 80056e6:	4293      	cmp	r3, r2
 80056e8:	d111      	bne.n	800570e <TIM_OC1_SetConfig+0xb2>
 80056ea:	693b      	ldr	r3, [r7, #16]
 80056ec:	f423 7380 	bic.w	r3, r3, #256	@ 0x100
 80056f0:	613b      	str	r3, [r7, #16]
 80056f2:	693b      	ldr	r3, [r7, #16]
 80056f4:	f423 7300 	bic.w	r3, r3, #512	@ 0x200
 80056f8:	613b      	str	r3, [r7, #16]
 80056fa:	683b      	ldr	r3, [r7, #0]
 80056fc:	695b      	ldr	r3, [r3, #20]
 80056fe:	693a      	ldr	r2, [r7, #16]
 8005700:	4313      	orrs	r3, r2
 8005702:	613b      	str	r3, [r7, #16]
 8005704:	683b      	ldr	r3, [r7, #0]
 8005706:	699b      	ldr	r3, [r3, #24]
 8005708:	693a      	ldr	r2, [r7, #16]
 800570a:	4313      	orrs	r3, r2
 800570c:	613b      	str	r3, [r7, #16]
 800570e:	687b      	ldr	r3, [r7, #4]
 8005710:	693a      	ldr	r2, [r7, #16]
 8005712:	605a      	str	r2, [r3, #4]
 8005714:	687b      	ldr	r3, [r7, #4]
 8005716:	68fa      	ldr	r2, [r7, #12]
 8005718:	619a      	str	r2, [r3, #24]
 800571a:	683b      	ldr	r3, [r7, #0]
 800571c:	685a      	ldr	r2, [r3, #4]
 800571e:	687b      	ldr	r3, [r7, #4]
 8005720:	635a      	str	r2, [r3, #52]	@ 0x34
 8005722:	687b      	ldr	r3, [r7, #4]
 8005724:	697a      	ldr	r2, [r7, #20]
 8005726:	621a      	str	r2, [r3, #32]
 8005728:	bf00      	nop
 800572a:	371c      	adds	r7, #28
 800572c:	46bd      	mov	sp, r7
 800572e:	f85d 7b04 	ldr.w	r7, [sp], #4
 8005732:	4770      	bx	lr
 8005734:	40010000 	.word	0x40010000
 8005738:	40010400 	.word	0x40010400

0800573c <TIM_OC2_SetConfig>:
 800573c:	b480      	push	{r7}
 800573e:	b087      	sub	sp, #28
 8005740:	af00      	add	r7, sp, #0
 8005742:	6078      	str	r0, [r7, #4]
 8005744:	6039      	str	r1, [r7, #0]
 8005746:	687b      	ldr	r3, [r7, #4]
 8005748:	6a1b      	ldr	r3, [r3, #32]
 800574a:	f023 0210 	bic.w	r2, r3, #16
 800574e:	687b      	ldr	r3, [r7, #4]
 8005750:	621a      	str	r2, [r3, #32]
 8005752:	687b      	ldr	r3, [r7, #4]
 8005754:	6a1b      	ldr	r3, [r3, #32]
 8005756:	617b      	str	r3, [r7, #20]
 8005758:	687b      	ldr	r3, [r7, #4]
 800575a:	685b      	ldr	r3, [r3, #4]
 800575c:	613b      	str	r3, [r7, #16]
 800575e:	687b      	ldr	r3, [r7, #4]
 8005760:	699b      	ldr	r3, [r3, #24]
 8005762:	60fb      	str	r3, [r7, #12]
 8005764:	68fb      	ldr	r3, [r7, #12]
 8005766:	f423 43e0 	bic.w	r3, r3, #28672	@ 0x7000
 800576a:	60fb      	str	r3, [r7, #12]
 800576c:	68fb      	ldr	r3, [r7, #12]
 800576e:	f423 7340 	bic.w	r3, r3, #768	@ 0x300
 8005772:	60fb      	str	r3, [r7, #12]
 8005774:	683b      	ldr	r3, [r7, #0]
 8005776:	681b      	ldr	r3, [r3, #0]
 8005778:	021b      	lsls	r3, r3, #8
 800577a:	68fa      	ldr	r2, [r7, #12]
 800577c:	4313      	orrs	r3, r2
 800577e:	60fb      	str	r3, [r7, #12]
 8005780:	697b      	ldr	r3, [r7, #20]
 8005782:	f023 0320 	bic.w	r3, r3, #32
 8005786:	617b      	str	r3, [r7, #20]
 8005788:	683b      	ldr	r3, [r7, #0]
 800578a:	689b      	ldr	r3, [r3, #8]
 800578c:	011b      	lsls	r3, r3, #4
 800578e:	697a      	ldr	r2, [r7, #20]
 8005790:	4313      	orrs	r3, r2
 8005792:	617b      	str	r3, [r7, #20]
 8005794:	687b      	ldr	r3, [r7, #4]
 8005796:	4a22      	ldr	r2, [pc, #136]	@ (8005820 <TIM_OC2_SetConfig+0xe4>)
 8005798:	4293      	cmp	r3, r2
 800579a:	d003      	beq.n	80057a4 <TIM_OC2_SetConfig+0x68>
 800579c:	687b      	ldr	r3, [r7, #4]
 800579e:	4a21      	ldr	r2, [pc, #132]	@ (8005824 <TIM_OC2_SetConfig+0xe8>)
 80057a0:	4293      	cmp	r3, r2
 80057a2:	d10d      	bne.n	80057c0 <TIM_OC2_SetConfig+0x84>
 80057a4:	697b      	ldr	r3, [r7, #20]
 80057a6:	f023 0380 	bic.w	r3, r3, #128	@ 0x80
 80057aa:	617b      	str	r3, [r7, #20]
 80057ac:	683b      	ldr	r3, [r7, #0]
 80057ae:	68db      	ldr	r3, [r3, #12]
 80057b0:	011b      	lsls	r3, r3, #4
 80057b2:	697a      	ldr	r2, [r7, #20]
 80057b4:	4313      	orrs	r3, r2
 80057b6:	617b      	str	r3, [r7, #20]
 80057b8:	697b      	ldr	r3, [r7, #20]
 80057ba:	f023 0340 	bic.w	r3, r3, #64	@ 0x40
 80057be:	617b      	str	r3, [r7, #20]
 80057c0:	687b      	ldr	r3, [r7, #4]
 80057c2:	4a17      	ldr	r2, [pc, #92]	@ (8005820 <TIM_OC2_SetConfig+0xe4>)
 80057c4:	4293      	cmp	r3, r2
 80057c6:	d003      	beq.n	80057d0 <TIM_OC2_SetConfig+0x94>
 80057c8:	687b      	ldr	r3, [r7, #4]
 80057ca:	4a16      	ldr	r2, [pc, #88]	@ (8005824 <TIM_OC2_SetConfig+0xe8>)
 80057cc:	4293      	cmp	r3, r2
 80057ce:	d113      	bne.n	80057f8 <TIM_OC2_SetConfig+0xbc>
 80057d0:	693b      	ldr	r3, [r7, #16]
 80057d2:	f423 6380 	bic.w	r3, r3, #1024	@ 0x400
 80057d6:	613b      	str	r3, [r7, #16]
 80057d8:	693b      	ldr	r3, [r7, #16]
 80057da:	f423 6300 	bic.w	r3, r3, #2048	@ 0x800
 80057de:	613b      	str	r3, [r7, #16]
 80057e0:	683b      	ldr	r3, [r7, #0]
 80057e2:	695b      	ldr	r3, [r3, #20]
 80057e4:	009b      	lsls	r3, r3, #2
 80057e6:	693a      	ldr	r2, [r7, #16]
 80057e8:	4313      	orrs	r3, r2
 80057ea:	613b      	str	r3, [r7, #16]
 80057ec:	683b      	ldr	r3, [r7, #0]
 80057ee:	699b      	ldr	r3, [r3, #24]
 80057f0:	009b      	lsls	r3, r3, #2
 80057f2:	693a      	ldr	r2, [r7, #16]
 80057f4:	4313      	orrs	r3, r2
 80057f6:	613b      	str	r3, [r7, #16]
 80057f8:	687b      	ldr	r3, [r7, #4]
 80057fa:	693a      	ldr	r2, [r7, #16]
 80057fc:	605a      	str	r2, [r3, #4]
 80057fe:	687b      	ldr	r3, [r7, #4]
 8005800:	68fa      	ldr	r2, [r7, #12]
 8005802:	619a      	str	r2, [r3, #24]
 8005804:	683b      	ldr	r3, [r7, #0]
 8005806:	685a      	ldr	r2, [r3, #4]
 8005808:	687b      	ldr	r3, [r7, #4]
 800580a:	639a      	str	r2, [r3, #56]	@ 0x38
 800580c:	687b      	ldr	r3, [r7, #4]
 800580e:	697a      	ldr	r2, [r7, #20]
 8005810:	621a      	str	r2, [r3, #32]
 8005812:	bf00      	nop
 8005814:	371c      	adds	r7, #28
 8005816:	46bd      	mov	sp, r7
 8005818:	f85d 7b04 	ldr.w	r7, [sp], #4
 800581c:	4770      	bx	lr
 800581e:	bf00      	nop
 8005820:	40010000 	.word	0x40010000
 8005824:	40010400 	.word	0x40010400

08005828 <TIM_OC3_SetConfig>:
 8005828:	b480      	push	{r7}
 800582a:	b087      	sub	sp, #28
 800582c:	af00      	add	r7, sp, #0
 800582e:	6078      	str	r0, [r7, #4]
 8005830:	6039      	str	r1, [r7, #0]
 8005832:	687b      	ldr	r3, [r7, #4]
 8005834:	6a1b      	ldr	r3, [r3, #32]
 8005836:	f423 7280 	bic.w	r2, r3, #256	@ 0x100
 800583a:	687b      	ldr	r3, [r7, #4]
 800583c:	621a      	str	r2, [r3, #32]
 800583e:	687b      	ldr	r3, [r7, #4]
 8005840:	6a1b      	ldr	r3, [r3, #32]
 8005842:	617b      	str	r3, [r7, #20]
 8005844:	687b      	ldr	r3, [r7, #4]
 8005846:	685b      	ldr	r3, [r3, #4]
 8005848:	613b      	str	r3, [r7, #16]
 800584a:	687b      	ldr	r3, [r7, #4]
 800584c:	69db      	ldr	r3, [r3, #28]
 800584e:	60fb      	str	r3, [r7, #12]
 8005850:	68fb      	ldr	r3, [r7, #12]
 8005852:	f023 0370 	bic.w	r3, r3, #112	@ 0x70
 8005856:	60fb      	str	r3, [r7, #12]
 8005858:	68fb      	ldr	r3, [r7, #12]
 800585a:	f023 0303 	bic.w	r3, r3, #3
 800585e:	60fb      	str	r3, [r7, #12]
 8005860:	683b      	ldr	r3, [r7, #0]
 8005862:	681b      	ldr	r3, [r3, #0]
 8005864:	68fa      	ldr	r2, [r7, #12]
 8005866:	4313      	orrs	r3, r2
 8005868:	60fb      	str	r3, [r7, #12]
 800586a:	697b      	ldr	r3, [r7, #20]
 800586c:	f423 7300 	bic.w	r3, r3, #512	@ 0x200
 8005870:	617b      	str	r3, [r7, #20]
 8005872:	683b      	ldr	r3, [r7, #0]
 8005874:	689b      	ldr	r3, [r3, #8]
 8005876:	021b      	lsls	r3, r3, #8
 8005878:	697a      	ldr	r2, [r7, #20]
 800587a:	4313      	orrs	r3, r2
 800587c:	617b      	str	r3, [r7, #20]
 800587e:	687b      	ldr	r3, [r7, #4]
 8005880:	4a21      	ldr	r2, [pc, #132]	@ (8005908 <TIM_OC3_SetConfig+0xe0>)
 8005882:	4293      	cmp	r3, r2
 8005884:	d003      	beq.n	800588e <TIM_OC3_SetConfig+0x66>
 8005886:	687b      	ldr	r3, [r7, #4]
 8005888:	4a20      	ldr	r2, [pc, #128]	@ (800590c <TIM_OC3_SetConfig+0xe4>)
 800588a:	4293      	cmp	r3, r2
 800588c:	d10d      	bne.n	80058aa <TIM_OC3_SetConfig+0x82>
 800588e:	697b      	ldr	r3, [r7, #20]
 8005890:	f423 6300 	bic.w	r3, r3, #2048	@ 0x800
 8005894:	617b      	str	r3, [r7, #20]
 8005896:	683b      	ldr	r3, [r7, #0]
 8005898:	68db      	ldr	r3, [r3, #12]
 800589a:	021b      	lsls	r3, r3, #8
 800589c:	697a      	ldr	r2, [r7, #20]
 800589e:	4313      	orrs	r3, r2
 80058a0:	617b      	str	r3, [r7, #20]
 80058a2:	697b      	ldr	r3, [r7, #20]
 80058a4:	f423 6380 	bic.w	r3, r3, #1024	@ 0x400
 80058a8:	617b      	str	r3, [r7, #20]
 80058aa:	687b      	ldr	r3, [r7, #4]
 80058ac:	4a16      	ldr	r2, [pc, #88]	@ (8005908 <TIM_OC3_SetConfig+0xe0>)
 80058ae:	4293      	cmp	r3, r2
 80058b0:	d003      	beq.n	80058ba <TIM_OC3_SetConfig+0x92>
 80058b2:	687b      	ldr	r3, [r7, #4]
 80058b4:	4a15      	ldr	r2, [pc, #84]	@ (800590c <TIM_OC3_SetConfig+0xe4>)
 80058b6:	4293      	cmp	r3, r2
 80058b8:	d113      	bne.n	80058e2 <TIM_OC3_SetConfig+0xba>
 80058ba:	693b      	ldr	r3, [r7, #16]
 80058bc:	f423 5380 	bic.w	r3, r3, #4096	@ 0x1000
 80058c0:	613b      	str	r3, [r7, #16]
 80058c2:	693b      	ldr	r3, [r7, #16]
 80058c4:	f423 5300 	bic.w	r3, r3, #8192	@ 0x2000
 80058c8:	613b      	str	r3, [r7, #16]
 80058ca:	683b      	ldr	r3, [r7, #0]
 80058cc:	695b      	ldr	r3, [r3, #20]
 80058ce:	011b      	lsls	r3, r3, #4
 80058d0:	693a      	ldr	r2, [r7, #16]
 80058d2:	4313      	orrs	r3, r2
 80058d4:	613b      	str	r3, [r7, #16]
 80058d6:	683b      	ldr	r3, [r7, #0]
 80058d8:	699b      	ldr	r3, [r3, #24]
 80058da:	011b      	lsls	r3, r3, #4
 80058dc:	693a      	ldr	r2, [r7, #16]
 80058de:	4313      	orrs	r3, r2
 80058e0:	613b      	str	r3, [r7, #16]
 80058e2:	687b      	ldr	r3, [r7, #4]
 80058e4:	693a      	ldr	r2, [r7, #16]
 80058e6:	605a      	str	r2, [r3, #4]
 80058e8:	687b      	ldr	r3, [r7, #4]
 80058ea:	68fa      	ldr	r2, [r7, #12]
 80058ec:	61da      	str	r2, [r3, #28]
 80058ee:	683b      	ldr	r3, [r7, #0]
 80058f0:	685a      	ldr	r2, [r3, #4]
 80058f2:	687b      	ldr	r3, [r7, #4]
 80058f4:	63da      	str	r2, [r3, #60]	@ 0x3c
 80058f6:	687b      	ldr	r3, [r7, #4]
 80058f8:	697a      	ldr	r2, [r7, #20]
 80058fa:	621a      	str	r2, [r3, #32]
 80058fc:	bf00      	nop
 80058fe:	371c      	adds	r7, #28
 8005900:	46bd      	mov	sp, r7
 8005902:	f85d 7b04 	ldr.w	r7, [sp], #4
 8005906:	4770      	bx	lr
 8005908:	40010000 	.word	0x40010000
 800590c:	40010400 	.word	0x40010400

08005910 <TIM_OC4_SetConfig>:
 8005910:	b480      	push	{r7}
 8005912:	b087      	sub	sp, #28
 8005914:	af00      	add	r7, sp, #0
 8005916:	6078      	str	r0, [r7, #4]
 8005918:	6039      	str	r1, [r7, #0]
 800591a:	687b      	ldr	r3, [r7, #4]
 800591c:	6a1b      	ldr	r3, [r3, #32]
 800591e:	f423 5280 	bic.w	r2, r3, #4096	@ 0x1000
 8005922:	687b      	ldr	r3, [r7, #4]
 8005924:	621a      	str	r2, [r3, #32]
 8005926:	687b      	ldr	r3, [r7, #4]
 8005928:	6a1b      	ldr	r3, [r3, #32]
 800592a:	613b      	str	r3, [r7, #16]
 800592c:	687b      	ldr	r3, [r7, #4]
 800592e:	685b      	ldr	r3, [r3, #4]
 8005930:	617b      	str	r3, [r7, #20]
 8005932:	687b      	ldr	r3, [r7, #4]
 8005934:	69db      	ldr	r3, [r3, #28]
 8005936:	60fb      	str	r3, [r7, #12]
 8005938:	68fb      	ldr	r3, [r7, #12]
 800593a:	f423 43e0 	bic.w	r3, r3, #28672	@ 0x7000
 800593e:	60fb      	str	r3, [r7, #12]
 8005940:	68fb      	ldr	r3, [r7, #12]
 8005942:	f423 7340 	bic.w	r3, r3, #768	@ 0x300
 8005946:	60fb      	str	r3, [r7, #12]
 8005948:	683b      	ldr	r3, [r7, #0]
 800594a:	681b      	ldr	r3, [r3, #0]
 800594c:	021b      	lsls	r3, r3, #8
 800594e:	68fa      	ldr	r2, [r7, #12]
 8005950:	4313      	orrs	r3, r2
 8005952:	60fb      	str	r3, [r7, #12]
 8005954:	693b      	ldr	r3, [r7, #16]
 8005956:	f423 5300 	bic.w	r3, r3, #8192	@ 0x2000
 800595a:	613b      	str	r3, [r7, #16]
 800595c:	683b      	ldr	r3, [r7, #0]
 800595e:	689b      	ldr	r3, [r3, #8]
 8005960:	031b      	lsls	r3, r3, #12
 8005962:	693a      	ldr	r2, [r7, #16]
 8005964:	4313      	orrs	r3, r2
 8005966:	613b      	str	r3, [r7, #16]
 8005968:	687b      	ldr	r3, [r7, #4]
 800596a:	4a12      	ldr	r2, [pc, #72]	@ (80059b4 <TIM_OC4_SetConfig+0xa4>)
 800596c:	4293      	cmp	r3, r2
 800596e:	d003      	beq.n	8005978 <TIM_OC4_SetConfig+0x68>
 8005970:	687b      	ldr	r3, [r7, #4]
 8005972:	4a11      	ldr	r2, [pc, #68]	@ (80059b8 <TIM_OC4_SetConfig+0xa8>)
 8005974:	4293      	cmp	r3, r2
 8005976:	d109      	bne.n	800598c <TIM_OC4_SetConfig+0x7c>
 8005978:	697b      	ldr	r3, [r7, #20]
 800597a:	f423 4380 	bic.w	r3, r3, #16384	@ 0x4000
 800597e:	617b      	str	r3, [r7, #20]
 8005980:	683b      	ldr	r3, [r7, #0]
 8005982:	695b      	ldr	r3, [r3, #20]
 8005984:	019b      	lsls	r3, r3, #6
 8005986:	697a      	ldr	r2, [r7, #20]
 8005988:	4313      	orrs	r3, r2
 800598a:	617b      	str	r3, [r7, #20]
 800598c:	687b      	ldr	r3, [r7, #4]
 800598e:	697a      	ldr	r2, [r7, #20]
 8005990:	605a      	str	r2, [r3, #4]
 8005992:	687b      	ldr	r3, [r7, #4]
 8005994:	68fa      	ldr	r2, [r7, #12]
 8005996:	61da      	str	r2, [r3, #28]
 8005998:	683b      	ldr	r3, [r7, #0]
 800599a:	685a      	ldr	r2, [r3, #4]
 800599c:	687b      	ldr	r3, [r7, #4]
 800599e:	641a      	str	r2, [r3, #64]	@ 0x40
 80059a0:	687b      	ldr	r3, [r7, #4]
 80059a2:	693a      	ldr	r2, [r7, #16]
 80059a4:	621a      	str	r2, [r3, #32]
 80059a6:	bf00      	nop
 80059a8:	371c      	adds	r7, #28
 80059aa:	46bd      	mov	sp, r7
 80059ac:	f85d 7b04 	ldr.w	r7, [sp], #4
 80059b0:	4770      	bx	lr
 80059b2:	bf00      	nop
 80059b4:	40010000 	.word	0x40010000
 80059b8:	40010400 	.word	0x40010400

080059bc <TIM_TI1_ConfigInputStage>:
 80059bc:	b480      	push	{r7}
 80059be:	b087      	sub	sp, #28
 80059c0:	af00      	add	r7, sp, #0
 80059c2:	60f8      	str	r0, [r7, #12]
 80059c4:	60b9      	str	r1, [r7, #8]
 80059c6:	607a      	str	r2, [r7, #4]
 80059c8:	68fb      	ldr	r3, [r7, #12]
 80059ca:	6a1b      	ldr	r3, [r3, #32]
 80059cc:	617b      	str	r3, [r7, #20]
 80059ce:	68fb      	ldr	r3, [r7, #12]
 80059d0:	6a1b      	ldr	r3, [r3, #32]
 80059d2:	f023 0201 	bic.w	r2, r3, #1
 80059d6:	68fb      	ldr	r3, [r7, #12]
 80059d8:	621a      	str	r2, [r3, #32]
 80059da:	68fb      	ldr	r3, [r7, #12]
 80059dc:	699b      	ldr	r3, [r3, #24]
 80059de:	613b      	str	r3, [r7, #16]
 80059e0:	693b      	ldr	r3, [r7, #16]
 80059e2:	f023 03f0 	bic.w	r3, r3, #240	@ 0xf0
 80059e6:	613b      	str	r3, [r7, #16]
 80059e8:	687b      	ldr	r3, [r7, #4]
 80059ea:	011b      	lsls	r3, r3, #4
 80059ec:	693a      	ldr	r2, [r7, #16]
 80059ee:	4313      	orrs	r3, r2
 80059f0:	613b      	str	r3, [r7, #16]
 80059f2:	697b      	ldr	r3, [r7, #20]
 80059f4:	f023 030a 	bic.w	r3, r3, #10
 80059f8:	617b      	str	r3, [r7, #20]
 80059fa:	697a      	ldr	r2, [r7, #20]
 80059fc:	68bb      	ldr	r3, [r7, #8]
 80059fe:	4313      	orrs	r3, r2
 8005a00:	617b      	str	r3, [r7, #20]
 8005a02:	68fb      	ldr	r3, [r7, #12]
 8005a04:	693a      	ldr	r2, [r7, #16]
 8005a06:	619a      	str	r2, [r3, #24]
 8005a08:	68fb      	ldr	r3, [r7, #12]
 8005a0a:	697a      	ldr	r2, [r7, #20]
 8005a0c:	621a      	str	r2, [r3, #32]
 8005a0e:	bf00      	nop
 8005a10:	371c      	adds	r7, #28
 8005a12:	46bd      	mov	sp, r7
 8005a14:	f85d 7b04 	ldr.w	r7, [sp], #4
 8005a18:	4770      	bx	lr

08005a1a <TIM_TI2_ConfigInputStage>:
 8005a1a:	b480      	push	{r7}
 8005a1c:	b087      	sub	sp, #28
 8005a1e:	af00      	add	r7, sp, #0
 8005a20:	60f8      	str	r0, [r7, #12]
 8005a22:	60b9      	str	r1, [r7, #8]
 8005a24:	607a      	str	r2, [r7, #4]
 8005a26:	68fb      	ldr	r3, [r7, #12]
 8005a28:	6a1b      	ldr	r3, [r3, #32]
 8005a2a:	f023 0210 	bic.w	r2, r3, #16
 8005a2e:	68fb      	ldr	r3, [r7, #12]
 8005a30:	621a      	str	r2, [r3, #32]
 8005a32:	68fb      	ldr	r3, [r7, #12]
 8005a34:	699b      	ldr	r3, [r3, #24]
 8005a36:	617b      	str	r3, [r7, #20]
 8005a38:	68fb      	ldr	r3, [r7, #12]
 8005a3a:	6a1b      	ldr	r3, [r3, #32]
 8005a3c:	613b      	str	r3, [r7, #16]
 8005a3e:	697b      	ldr	r3, [r7, #20]
 8005a40:	f423 4370 	bic.w	r3, r3, #61440	@ 0xf000
 8005a44:	617b      	str	r3, [r7, #20]
 8005a46:	687b      	ldr	r3, [r7, #4]
 8005a48:	031b      	lsls	r3, r3, #12
 8005a4a:	697a      	ldr	r2, [r7, #20]
 8005a4c:	4313      	orrs	r3, r2
 8005a4e:	617b      	str	r3, [r7, #20]
 8005a50:	693b      	ldr	r3, [r7, #16]
 8005a52:	f023 03a0 	bic.w	r3, r3, #160	@ 0xa0
 8005a56:	613b      	str	r3, [r7, #16]
 8005a58:	68bb      	ldr	r3, [r7, #8]
 8005a5a:	011b      	lsls	r3, r3, #4
 8005a5c:	693a      	ldr	r2, [r7, #16]
 8005a5e:	4313      	orrs	r3, r2
 8005a60:	613b      	str	r3, [r7, #16]
 8005a62:	68fb      	ldr	r3, [r7, #12]
 8005a64:	697a      	ldr	r2, [r7, #20]
 8005a66:	619a      	str	r2, [r3, #24]
 8005a68:	68fb      	ldr	r3, [r7, #12]
 8005a6a:	693a      	ldr	r2, [r7, #16]
 8005a6c:	621a      	str	r2, [r3, #32]
 8005a6e:	bf00      	nop
 8005a70:	371c      	adds	r7, #28
 8005a72:	46bd      	mov	sp, r7
 8005a74:	f85d 7b04 	ldr.w	r7, [sp], #4
 8005a78:	4770      	bx	lr

08005a7a <TIM_ITRx_SetConfig>:
 8005a7a:	b480      	push	{r7}
 8005a7c:	b085      	sub	sp, #20
 8005a7e:	af00      	add	r7, sp, #0
 8005a80:	6078      	str	r0, [r7, #4]
 8005a82:	6039      	str	r1, [r7, #0]
 8005a84:	687b      	ldr	r3, [r7, #4]
 8005a86:	689b      	ldr	r3, [r3, #8]
 8005a88:	60fb      	str	r3, [r7, #12]
 8005a8a:	68fb      	ldr	r3, [r7, #12]
 8005a8c:	f023 0370 	bic.w	r3, r3, #112	@ 0x70
 8005a90:	60fb      	str	r3, [r7, #12]
 8005a92:	683a      	ldr	r2, [r7, #0]
 8005a94:	68fb      	ldr	r3, [r7, #12]
 8005a96:	4313      	orrs	r3, r2
 8005a98:	f043 0307 	orr.w	r3, r3, #7
 8005a9c:	60fb      	str	r3, [r7, #12]
 8005a9e:	687b      	ldr	r3, [r7, #4]
 8005aa0:	68fa      	ldr	r2, [r7, #12]
 8005aa2:	609a      	str	r2, [r3, #8]
 8005aa4:	bf00      	nop
 8005aa6:	3714      	adds	r7, #20
 8005aa8:	46bd      	mov	sp, r7
 8005aaa:	f85d 7b04 	ldr.w	r7, [sp], #4
 8005aae:	4770      	bx	lr

08005ab0 <TIM_ETR_SetConfig>:
 8005ab0:	b480      	push	{r7}
 8005ab2:	b087      	sub	sp, #28
 8005ab4:	af00      	add	r7, sp, #0
 8005ab6:	60f8      	str	r0, [r7, #12]
 8005ab8:	60b9      	str	r1, [r7, #8]
 8005aba:	607a      	str	r2, [r7, #4]
 8005abc:	603b      	str	r3, [r7, #0]
 8005abe:	68fb      	ldr	r3, [r7, #12]
 8005ac0:	689b      	ldr	r3, [r3, #8]
 8005ac2:	617b      	str	r3, [r7, #20]
 8005ac4:	697b      	ldr	r3, [r7, #20]
 8005ac6:	f423 437f 	bic.w	r3, r3, #65280	@ 0xff00
 8005aca:	617b      	str	r3, [r7, #20]
 8005acc:	683b      	ldr	r3, [r7, #0]
 8005ace:	021a      	lsls	r2, r3, #8
 8005ad0:	687b      	ldr	r3, [r7, #4]
 8005ad2:	431a      	orrs	r2, r3
 8005ad4:	68bb      	ldr	r3, [r7, #8]
 8005ad6:	4313      	orrs	r3, r2
 8005ad8:	697a      	ldr	r2, [r7, #20]
 8005ada:	4313      	orrs	r3, r2
 8005adc:	617b      	str	r3, [r7, #20]
 8005ade:	68fb      	ldr	r3, [r7, #12]
 8005ae0:	697a      	ldr	r2, [r7, #20]
 8005ae2:	609a      	str	r2, [r3, #8]
 8005ae4:	bf00      	nop
 8005ae6:	371c      	adds	r7, #28
 8005ae8:	46bd      	mov	sp, r7
 8005aea:	f85d 7b04 	ldr.w	r7, [sp], #4
 8005aee:	4770      	bx	lr

08005af0 <HAL_TIMEx_MasterConfigSynchronization>:
 8005af0:	b480      	push	{r7}
 8005af2:	b085      	sub	sp, #20
 8005af4:	af00      	add	r7, sp, #0
 8005af6:	6078      	str	r0, [r7, #4]
 8005af8:	6039      	str	r1, [r7, #0]
 8005afa:	687b      	ldr	r3, [r7, #4]
 8005afc:	f893 303c 	ldrb.w	r3, [r3, #60]	@ 0x3c
 8005b00:	2b01      	cmp	r3, #1
 8005b02:	d101      	bne.n	8005b08 <HAL_TIMEx_MasterConfigSynchronization+0x18>
 8005b04:	2302      	movs	r3, #2
 8005b06:	e05a      	b.n	8005bbe <HAL_TIMEx_MasterConfigSynchronization+0xce>
 8005b08:	687b      	ldr	r3, [r7, #4]
 8005b0a:	2201      	movs	r2, #1
 8005b0c:	f883 203c 	strb.w	r2, [r3, #60]	@ 0x3c
 8005b10:	687b      	ldr	r3, [r7, #4]
 8005b12:	2202      	movs	r2, #2
 8005b14:	f883 203d 	strb.w	r2, [r3, #61]	@ 0x3d
 8005b18:	687b      	ldr	r3, [r7, #4]
 8005b1a:	681b      	ldr	r3, [r3, #0]
 8005b1c:	685b      	ldr	r3, [r3, #4]
 8005b1e:	60fb      	str	r3, [r7, #12]
 8005b20:	687b      	ldr	r3, [r7, #4]
 8005b22:	681b      	ldr	r3, [r3, #0]
 8005b24:	689b      	ldr	r3, [r3, #8]
 8005b26:	60bb      	str	r3, [r7, #8]
 8005b28:	68fb      	ldr	r3, [r7, #12]
 8005b2a:	f023 0370 	bic.w	r3, r3, #112	@ 0x70
 8005b2e:	60fb      	str	r3, [r7, #12]
 8005b30:	683b      	ldr	r3, [r7, #0]
 8005b32:	681b      	ldr	r3, [r3, #0]
 8005b34:	68fa      	ldr	r2, [r7, #12]
 8005b36:	4313      	orrs	r3, r2
 8005b38:	60fb      	str	r3, [r7, #12]
 8005b3a:	687b      	ldr	r3, [r7, #4]
 8005b3c:	681b      	ldr	r3, [r3, #0]
 8005b3e:	68fa      	ldr	r2, [r7, #12]
 8005b40:	605a      	str	r2, [r3, #4]
 8005b42:	687b      	ldr	r3, [r7, #4]
 8005b44:	681b      	ldr	r3, [r3, #0]
 8005b46:	4a21      	ldr	r2, [pc, #132]	@ (8005bcc <HAL_TIMEx_MasterConfigSynchronization+0xdc>)
 8005b48:	4293      	cmp	r3, r2
 8005b4a:	d022      	beq.n	8005b92 <HAL_TIMEx_MasterConfigSynchronization+0xa2>
 8005b4c:	687b      	ldr	r3, [r7, #4]
 8005b4e:	681b      	ldr	r3, [r3, #0]
 8005b50:	f1b3 4f80 	cmp.w	r3, #1073741824	@ 0x40000000
 8005b54:	d01d      	beq.n	8005b92 <HAL_TIMEx_MasterConfigSynchronization+0xa2>
 8005b56:	687b      	ldr	r3, [r7, #4]
 8005b58:	681b      	ldr	r3, [r3, #0]
 8005b5a:	4a1d      	ldr	r2, [pc, #116]	@ (8005bd0 <HAL_TIMEx_MasterConfigSynchronization+0xe0>)
 8005b5c:	4293      	cmp	r3, r2
 8005b5e:	d018      	beq.n	8005b92 <HAL_TIMEx_MasterConfigSynchronization+0xa2>
 8005b60:	687b      	ldr	r3, [r7, #4]
 8005b62:	681b      	ldr	r3, [r3, #0]
 8005b64:	4a1b      	ldr	r2, [pc, #108]	@ (8005bd4 <HAL_TIMEx_MasterConfigSynchronization+0xe4>)
 8005b66:	4293      	cmp	r3, r2
 8005b68:	d013      	beq.n	8005b92 <HAL_TIMEx_MasterConfigSynchronization+0xa2>
 8005b6a:	687b      	ldr	r3, [r7, #4]
 8005b6c:	681b      	ldr	r3, [r3, #0]
 8005b6e:	4a1a      	ldr	r2, [pc, #104]	@ (8005bd8 <HAL_TIMEx_MasterConfigSynchronization+0xe8>)
 8005b70:	4293      	cmp	r3, r2
 8005b72:	d00e      	beq.n	8005b92 <HAL_TIMEx_MasterConfigSynchronization+0xa2>
 8005b74:	687b      	ldr	r3, [r7, #4]
 8005b76:	681b      	ldr	r3, [r3, #0]
 8005b78:	4a18      	ldr	r2, [pc, #96]	@ (8005bdc <HAL_TIMEx_MasterConfigSynchronization+0xec>)
 8005b7a:	4293      	cmp	r3, r2
 8005b7c:	d009      	beq.n	8005b92 <HAL_TIMEx_MasterConfigSynchronization+0xa2>
 8005b7e:	687b      	ldr	r3, [r7, #4]
 8005b80:	681b      	ldr	r3, [r3, #0]
 8005b82:	4a17      	ldr	r2, [pc, #92]	@ (8005be0 <HAL_TIMEx_MasterConfigSynchronization+0xf0>)
 8005b84:	4293      	cmp	r3, r2
 8005b86:	d004      	beq.n	8005b92 <HAL_TIMEx_MasterConfigSynchronization+0xa2>
 8005b88:	687b      	ldr	r3, [r7, #4]
 8005b8a:	681b      	ldr	r3, [r3, #0]
 8005b8c:	4a15      	ldr	r2, [pc, #84]	@ (8005be4 <HAL_TIMEx_MasterConfigSynchronization+0xf4>)
 8005b8e:	4293      	cmp	r3, r2
 8005b90:	d10c      	bne.n	8005bac <HAL_TIMEx_MasterConfigSynchronization+0xbc>
 8005b92:	68bb      	ldr	r3, [r7, #8]
 8005b94:	f023 0380 	bic.w	r3, r3, #128	@ 0x80
 8005b98:	60bb      	str	r3, [r7, #8]
 8005b9a:	683b      	ldr	r3, [r7, #0]
 8005b9c:	685b      	ldr	r3, [r3, #4]
 8005b9e:	68ba      	ldr	r2, [r7, #8]
 8005ba0:	4313      	orrs	r3, r2
 8005ba2:	60bb      	str	r3, [r7, #8]
 8005ba4:	687b      	ldr	r3, [r7, #4]
 8005ba6:	681b      	ldr	r3, [r3, #0]
 8005ba8:	68ba      	ldr	r2, [r7, #8]
 8005baa:	609a      	str	r2, [r3, #8]
 8005bac:	687b      	ldr	r3, [r7, #4]
 8005bae:	2201      	movs	r2, #1
 8005bb0:	f883 203d 	strb.w	r2, [r3, #61]	@ 0x3d
 8005bb4:	687b      	ldr	r3, [r7, #4]
 8005bb6:	2200      	movs	r2, #0
 8005bb8:	f883 203c 	strb.w	r2, [r3, #60]	@ 0x3c
 8005bbc:	2300      	movs	r3, #0
 8005bbe:	4618      	mov	r0, r3
 8005bc0:	3714      	adds	r7, #20
 8005bc2:	46bd      	mov	sp, r7
 8005bc4:	f85d 7b04 	ldr.w	r7, [sp], #4
 8005bc8:	4770      	bx	lr
 8005bca:	bf00      	nop
 8005bcc:	40010000 	.word	0x40010000
 8005bd0:	40000400 	.word	0x40000400
 8005bd4:	40000800 	.word	0x40000800
 8005bd8:	40000c00 	.word	0x40000c00
 8005bdc:	40010400 	.word	0x40010400
 8005be0:	40014000 	.word	0x40014000
 8005be4:	40001800 	.word	0x40001800

08005be8 <HAL_TIMEx_CommutCallback>:
 8005be8:	b480      	push	{r7}
 8005bea:	b083      	sub	sp, #12
 8005bec:	af00      	add	r7, sp, #0
 8005bee:	6078      	str	r0, [r7, #4]
 8005bf0:	bf00      	nop
 8005bf2:	370c      	adds	r7, #12
 8005bf4:	46bd      	mov	sp, r7
 8005bf6:	f85d 7b04 	ldr.w	r7, [sp], #4
 8005bfa:	4770      	bx	lr

08005bfc <HAL_TIMEx_BreakCallback>:
 8005bfc:	b480      	push	{r7}
 8005bfe:	b083      	sub	sp, #12
 8005c00:	af00      	add	r7, sp, #0
 8005c02:	6078      	str	r0, [r7, #4]
 8005c04:	bf00      	nop
 8005c06:	370c      	adds	r7, #12
 8005c08:	46bd      	mov	sp, r7
 8005c0a:	f85d 7b04 	ldr.w	r7, [sp], #4
 8005c0e:	4770      	bx	lr

08005c10 <HAL_UART_Init>:
 8005c10:	b580      	push	{r7, lr}
 8005c12:	b082      	sub	sp, #8
 8005c14:	af00      	add	r7, sp, #0
 8005c16:	6078      	str	r0, [r7, #4]
 8005c18:	687b      	ldr	r3, [r7, #4]
 8005c1a:	2b00      	cmp	r3, #0
 8005c1c:	d101      	bne.n	8005c22 <HAL_UART_Init+0x12>
 8005c1e:	2301      	movs	r3, #1
 8005c20:	e03f      	b.n	8005ca2 <HAL_UART_Init+0x92>
 8005c22:	687b      	ldr	r3, [r7, #4]
 8005c24:	f893 303d 	ldrb.w	r3, [r3, #61]	@ 0x3d
 8005c28:	b2db      	uxtb	r3, r3
 8005c2a:	2b00      	cmp	r3, #0
 8005c2c:	d106      	bne.n	8005c3c <HAL_UART_Init+0x2c>
 8005c2e:	687b      	ldr	r3, [r7, #4]
 8005c30:	2200      	movs	r2, #0
 8005c32:	f883 203c 	strb.w	r2, [r3, #60]	@ 0x3c
 8005c36:	6878      	ldr	r0, [r7, #4]
 8005c38:	f7fc fb42 	bl	80022c0 <HAL_UART_MspInit>
 8005c3c:	687b      	ldr	r3, [r7, #4]
 8005c3e:	2224      	movs	r2, #36	@ 0x24
 8005c40:	f883 203d 	strb.w	r2, [r3, #61]	@ 0x3d
 8005c44:	687b      	ldr	r3, [r7, #4]
 8005c46:	681b      	ldr	r3, [r3, #0]
 8005c48:	68da      	ldr	r2, [r3, #12]
 8005c4a:	687b      	ldr	r3, [r7, #4]
 8005c4c:	681b      	ldr	r3, [r3, #0]
 8005c4e:	f422 5200 	bic.w	r2, r2, #8192	@ 0x2000
 8005c52:	60da      	str	r2, [r3, #12]
 8005c54:	6878      	ldr	r0, [r7, #4]
 8005c56:	f000 fddb 	bl	8006810 <UART_SetConfig>
 8005c5a:	687b      	ldr	r3, [r7, #4]
 8005c5c:	681b      	ldr	r3, [r3, #0]
 8005c5e:	691a      	ldr	r2, [r3, #16]
 8005c60:	687b      	ldr	r3, [r7, #4]
 8005c62:	681b      	ldr	r3, [r3, #0]
 8005c64:	f422 4290 	bic.w	r2, r2, #18432	@ 0x4800
 8005c68:	611a      	str	r2, [r3, #16]
 8005c6a:	687b      	ldr	r3, [r7, #4]
 8005c6c:	681b      	ldr	r3, [r3, #0]
 8005c6e:	695a      	ldr	r2, [r3, #20]
 8005c70:	687b      	ldr	r3, [r7, #4]
 8005c72:	681b      	ldr	r3, [r3, #0]
 8005c74:	f022 022a 	bic.w	r2, r2, #42	@ 0x2a
 8005c78:	615a      	str	r2, [r3, #20]
 8005c7a:	687b      	ldr	r3, [r7, #4]
 8005c7c:	681b      	ldr	r3, [r3, #0]
 8005c7e:	68da      	ldr	r2, [r3, #12]
 8005c80:	687b      	ldr	r3, [r7, #4]
 8005c82:	681b      	ldr	r3, [r3, #0]
 8005c84:	f442 5200 	orr.w	r2, r2, #8192	@ 0x2000
 8005c88:	60da      	str	r2, [r3, #12]
 8005c8a:	687b      	ldr	r3, [r7, #4]
 8005c8c:	2200      	movs	r2, #0
 8005c8e:	641a      	str	r2, [r3, #64]	@ 0x40
 8005c90:	687b      	ldr	r3, [r7, #4]
 8005c92:	2220      	movs	r2, #32
 8005c94:	f883 203d 	strb.w	r2, [r3, #61]	@ 0x3d
 8005c98:	687b      	ldr	r3, [r7, #4]
 8005c9a:	2220      	movs	r2, #32
 8005c9c:	f883 203e 	strb.w	r2, [r3, #62]	@ 0x3e
 8005ca0:	2300      	movs	r3, #0
 8005ca2:	4618      	mov	r0, r3
 8005ca4:	3708      	adds	r7, #8
 8005ca6:	46bd      	mov	sp, r7
 8005ca8:	bd80      	pop	{r7, pc}

08005caa <HAL_UART_Transmit>:
 8005caa:	b580      	push	{r7, lr}
 8005cac:	b08a      	sub	sp, #40	@ 0x28
 8005cae:	af02      	add	r7, sp, #8
 8005cb0:	60f8      	str	r0, [r7, #12]
 8005cb2:	60b9      	str	r1, [r7, #8]
 8005cb4:	603b      	str	r3, [r7, #0]
 8005cb6:	4613      	mov	r3, r2
 8005cb8:	80fb      	strh	r3, [r7, #6]
 8005cba:	2300      	movs	r3, #0
 8005cbc:	617b      	str	r3, [r7, #20]
 8005cbe:	68fb      	ldr	r3, [r7, #12]
 8005cc0:	f893 303d 	ldrb.w	r3, [r3, #61]	@ 0x3d
 8005cc4:	b2db      	uxtb	r3, r3
 8005cc6:	2b20      	cmp	r3, #32
 8005cc8:	d17c      	bne.n	8005dc4 <HAL_UART_Transmit+0x11a>
 8005cca:	68bb      	ldr	r3, [r7, #8]
 8005ccc:	2b00      	cmp	r3, #0
 8005cce:	d002      	beq.n	8005cd6 <HAL_UART_Transmit+0x2c>
 8005cd0:	88fb      	ldrh	r3, [r7, #6]
 8005cd2:	2b00      	cmp	r3, #0
 8005cd4:	d101      	bne.n	8005cda <HAL_UART_Transmit+0x30>
 8005cd6:	2301      	movs	r3, #1
 8005cd8:	e075      	b.n	8005dc6 <HAL_UART_Transmit+0x11c>
 8005cda:	68fb      	ldr	r3, [r7, #12]
 8005cdc:	f893 303c 	ldrb.w	r3, [r3, #60]	@ 0x3c
 8005ce0:	2b01      	cmp	r3, #1
 8005ce2:	d101      	bne.n	8005ce8 <HAL_UART_Transmit+0x3e>
 8005ce4:	2302      	movs	r3, #2
 8005ce6:	e06e      	b.n	8005dc6 <HAL_UART_Transmit+0x11c>
 8005ce8:	68fb      	ldr	r3, [r7, #12]
 8005cea:	2201      	movs	r2, #1
 8005cec:	f883 203c 	strb.w	r2, [r3, #60]	@ 0x3c
 8005cf0:	68fb      	ldr	r3, [r7, #12]
 8005cf2:	2200      	movs	r2, #0
 8005cf4:	641a      	str	r2, [r3, #64]	@ 0x40
 8005cf6:	68fb      	ldr	r3, [r7, #12]
 8005cf8:	2221      	movs	r2, #33	@ 0x21
 8005cfa:	f883 203d 	strb.w	r2, [r3, #61]	@ 0x3d
 8005cfe:	f7fc fbfb 	bl	80024f8 <HAL_GetTick>
 8005d02:	6178      	str	r0, [r7, #20]
 8005d04:	68fb      	ldr	r3, [r7, #12]
 8005d06:	88fa      	ldrh	r2, [r7, #6]
 8005d08:	849a      	strh	r2, [r3, #36]	@ 0x24
 8005d0a:	68fb      	ldr	r3, [r7, #12]
 8005d0c:	88fa      	ldrh	r2, [r7, #6]
 8005d0e:	84da      	strh	r2, [r3, #38]	@ 0x26
 8005d10:	68fb      	ldr	r3, [r7, #12]
 8005d12:	689b      	ldr	r3, [r3, #8]
 8005d14:	f5b3 5f80 	cmp.w	r3, #4096	@ 0x1000
 8005d18:	d108      	bne.n	8005d2c <HAL_UART_Transmit+0x82>
 8005d1a:	68fb      	ldr	r3, [r7, #12]
 8005d1c:	691b      	ldr	r3, [r3, #16]
 8005d1e:	2b00      	cmp	r3, #0
 8005d20:	d104      	bne.n	8005d2c <HAL_UART_Transmit+0x82>
 8005d22:	2300      	movs	r3, #0
 8005d24:	61fb      	str	r3, [r7, #28]
 8005d26:	68bb      	ldr	r3, [r7, #8]
 8005d28:	61bb      	str	r3, [r7, #24]
 8005d2a:	e003      	b.n	8005d34 <HAL_UART_Transmit+0x8a>
 8005d2c:	68bb      	ldr	r3, [r7, #8]
 8005d2e:	61fb      	str	r3, [r7, #28]
 8005d30:	2300      	movs	r3, #0
 8005d32:	61bb      	str	r3, [r7, #24]
 8005d34:	68fb      	ldr	r3, [r7, #12]
 8005d36:	2200      	movs	r2, #0
 8005d38:	f883 203c 	strb.w	r2, [r3, #60]	@ 0x3c
 8005d3c:	e02a      	b.n	8005d94 <HAL_UART_Transmit+0xea>
 8005d3e:	683b      	ldr	r3, [r7, #0]
 8005d40:	9300      	str	r3, [sp, #0]
 8005d42:	697b      	ldr	r3, [r7, #20]
 8005d44:	2200      	movs	r2, #0
 8005d46:	2180      	movs	r1, #128	@ 0x80
 8005d48:	68f8      	ldr	r0, [r7, #12]
 8005d4a:	f000 fb1f 	bl	800638c <UART_WaitOnFlagUntilTimeout>
 8005d4e:	4603      	mov	r3, r0
 8005d50:	2b00      	cmp	r3, #0
 8005d52:	d001      	beq.n	8005d58 <HAL_UART_Transmit+0xae>
 8005d54:	2303      	movs	r3, #3
 8005d56:	e036      	b.n	8005dc6 <HAL_UART_Transmit+0x11c>
 8005d58:	69fb      	ldr	r3, [r7, #28]
 8005d5a:	2b00      	cmp	r3, #0
 8005d5c:	d10b      	bne.n	8005d76 <HAL_UART_Transmit+0xcc>
 8005d5e:	69bb      	ldr	r3, [r7, #24]
 8005d60:	881b      	ldrh	r3, [r3, #0]
 8005d62:	461a      	mov	r2, r3
 8005d64:	68fb      	ldr	r3, [r7, #12]
 8005d66:	681b      	ldr	r3, [r3, #0]
 8005d68:	f3c2 0208 	ubfx	r2, r2, #0, #9
 8005d6c:	605a      	str	r2, [r3, #4]
 8005d6e:	69bb      	ldr	r3, [r7, #24]
 8005d70:	3302      	adds	r3, #2
 8005d72:	61bb      	str	r3, [r7, #24]
 8005d74:	e007      	b.n	8005d86 <HAL_UART_Transmit+0xdc>
 8005d76:	69fb      	ldr	r3, [r7, #28]
 8005d78:	781a      	ldrb	r2, [r3, #0]
 8005d7a:	68fb      	ldr	r3, [r7, #12]
 8005d7c:	681b      	ldr	r3, [r3, #0]
 8005d7e:	605a      	str	r2, [r3, #4]
 8005d80:	69fb      	ldr	r3, [r7, #28]
 8005d82:	3301      	adds	r3, #1
 8005d84:	61fb      	str	r3, [r7, #28]
 8005d86:	68fb      	ldr	r3, [r7, #12]
 8005d88:	8cdb      	ldrh	r3, [r3, #38]	@ 0x26
 8005d8a:	b29b      	uxth	r3, r3
 8005d8c:	3b01      	subs	r3, #1
 8005d8e:	b29a      	uxth	r2, r3
 8005d90:	68fb      	ldr	r3, [r7, #12]
 8005d92:	84da      	strh	r2, [r3, #38]	@ 0x26
 8005d94:	68fb      	ldr	r3, [r7, #12]
 8005d96:	8cdb      	ldrh	r3, [r3, #38]	@ 0x26
 8005d98:	b29b      	uxth	r3, r3
 8005d9a:	2b00      	cmp	r3, #0
 8005d9c:	d1cf      	bne.n	8005d3e <HAL_UART_Transmit+0x94>
 8005d9e:	683b      	ldr	r3, [r7, #0]
 8005da0:	9300      	str	r3, [sp, #0]
 8005da2:	697b      	ldr	r3, [r7, #20]
 8005da4:	2200      	movs	r2, #0
 8005da6:	2140      	movs	r1, #64	@ 0x40
 8005da8:	68f8      	ldr	r0, [r7, #12]
 8005daa:	f000 faef 	bl	800638c <UART_WaitOnFlagUntilTimeout>
 8005dae:	4603      	mov	r3, r0
 8005db0:	2b00      	cmp	r3, #0
 8005db2:	d001      	beq.n	8005db8 <HAL_UART_Transmit+0x10e>
 8005db4:	2303      	movs	r3, #3
 8005db6:	e006      	b.n	8005dc6 <HAL_UART_Transmit+0x11c>
 8005db8:	68fb      	ldr	r3, [r7, #12]
 8005dba:	2220      	movs	r2, #32
 8005dbc:	f883 203d 	strb.w	r2, [r3, #61]	@ 0x3d
 8005dc0:	2300      	movs	r3, #0
 8005dc2:	e000      	b.n	8005dc6 <HAL_UART_Transmit+0x11c>
 8005dc4:	2302      	movs	r3, #2
 8005dc6:	4618      	mov	r0, r3
 8005dc8:	3720      	adds	r7, #32
 8005dca:	46bd      	mov	sp, r7
 8005dcc:	bd80      	pop	{r7, pc}

08005dce <HAL_UART_Receive_IT>:
 8005dce:	b580      	push	{r7, lr}
 8005dd0:	b084      	sub	sp, #16
 8005dd2:	af00      	add	r7, sp, #0
 8005dd4:	60f8      	str	r0, [r7, #12]
 8005dd6:	60b9      	str	r1, [r7, #8]
 8005dd8:	4613      	mov	r3, r2
 8005dda:	80fb      	strh	r3, [r7, #6]
 8005ddc:	68fb      	ldr	r3, [r7, #12]
 8005dde:	f893 303e 	ldrb.w	r3, [r3, #62]	@ 0x3e
 8005de2:	b2db      	uxtb	r3, r3
 8005de4:	2b20      	cmp	r3, #32
 8005de6:	d11d      	bne.n	8005e24 <HAL_UART_Receive_IT+0x56>
 8005de8:	68bb      	ldr	r3, [r7, #8]
 8005dea:	2b00      	cmp	r3, #0
 8005dec:	d002      	beq.n	8005df4 <HAL_UART_Receive_IT+0x26>
 8005dee:	88fb      	ldrh	r3, [r7, #6]
 8005df0:	2b00      	cmp	r3, #0
 8005df2:	d101      	bne.n	8005df8 <HAL_UART_Receive_IT+0x2a>
 8005df4:	2301      	movs	r3, #1
 8005df6:	e016      	b.n	8005e26 <HAL_UART_Receive_IT+0x58>
 8005df8:	68fb      	ldr	r3, [r7, #12]
 8005dfa:	f893 303c 	ldrb.w	r3, [r3, #60]	@ 0x3c
 8005dfe:	2b01      	cmp	r3, #1
 8005e00:	d101      	bne.n	8005e06 <HAL_UART_Receive_IT+0x38>
 8005e02:	2302      	movs	r3, #2
 8005e04:	e00f      	b.n	8005e26 <HAL_UART_Receive_IT+0x58>
 8005e06:	68fb      	ldr	r3, [r7, #12]
 8005e08:	2201      	movs	r2, #1
 8005e0a:	f883 203c 	strb.w	r2, [r3, #60]	@ 0x3c
 8005e0e:	68fb      	ldr	r3, [r7, #12]
 8005e10:	2200      	movs	r2, #0
 8005e12:	631a      	str	r2, [r3, #48]	@ 0x30
 8005e14:	88fb      	ldrh	r3, [r7, #6]
 8005e16:	461a      	mov	r2, r3
 8005e18:	68b9      	ldr	r1, [r7, #8]
 8005e1a:	68f8      	ldr	r0, [r7, #12]
 8005e1c:	f000 fb24 	bl	8006468 <UART_Start_Receive_IT>
 8005e20:	4603      	mov	r3, r0
 8005e22:	e000      	b.n	8005e26 <HAL_UART_Receive_IT+0x58>
 8005e24:	2302      	movs	r3, #2
 8005e26:	4618      	mov	r0, r3
 8005e28:	3710      	adds	r7, #16
 8005e2a:	46bd      	mov	sp, r7
 8005e2c:	bd80      	pop	{r7, pc}
	...

08005e30 <HAL_UART_IRQHandler>:
 8005e30:	b580      	push	{r7, lr}
 8005e32:	b0ba      	sub	sp, #232	@ 0xe8
 8005e34:	af00      	add	r7, sp, #0
 8005e36:	6078      	str	r0, [r7, #4]
 8005e38:	687b      	ldr	r3, [r7, #4]
 8005e3a:	681b      	ldr	r3, [r3, #0]
 8005e3c:	681b      	ldr	r3, [r3, #0]
 8005e3e:	f8c7 30e4 	str.w	r3, [r7, #228]	@ 0xe4
 8005e42:	687b      	ldr	r3, [r7, #4]
 8005e44:	681b      	ldr	r3, [r3, #0]
 8005e46:	68db      	ldr	r3, [r3, #12]
 8005e48:	f8c7 30e0 	str.w	r3, [r7, #224]	@ 0xe0
 8005e4c:	687b      	ldr	r3, [r7, #4]
 8005e4e:	681b      	ldr	r3, [r3, #0]
 8005e50:	695b      	ldr	r3, [r3, #20]
 8005e52:	f8c7 30dc 	str.w	r3, [r7, #220]	@ 0xdc
 8005e56:	2300      	movs	r3, #0
 8005e58:	f8c7 30d8 	str.w	r3, [r7, #216]	@ 0xd8
 8005e5c:	2300      	movs	r3, #0
 8005e5e:	f8c7 30d4 	str.w	r3, [r7, #212]	@ 0xd4
 8005e62:	f8d7 30e4 	ldr.w	r3, [r7, #228]	@ 0xe4
 8005e66:	f003 030f 	and.w	r3, r3, #15
 8005e6a:	f8c7 30d8 	str.w	r3, [r7, #216]	@ 0xd8
 8005e6e:	f8d7 30d8 	ldr.w	r3, [r7, #216]	@ 0xd8
 8005e72:	2b00      	cmp	r3, #0
 8005e74:	d10f      	bne.n	8005e96 <HAL_UART_IRQHandler+0x66>
 8005e76:	f8d7 30e4 	ldr.w	r3, [r7, #228]	@ 0xe4
 8005e7a:	f003 0320 	and.w	r3, r3, #32
 8005e7e:	2b00      	cmp	r3, #0
 8005e80:	d009      	beq.n	8005e96 <HAL_UART_IRQHandler+0x66>
 8005e82:	f8d7 30e0 	ldr.w	r3, [r7, #224]	@ 0xe0
 8005e86:	f003 0320 	and.w	r3, r3, #32
 8005e8a:	2b00      	cmp	r3, #0
 8005e8c:	d003      	beq.n	8005e96 <HAL_UART_IRQHandler+0x66>
 8005e8e:	6878      	ldr	r0, [r7, #4]
 8005e90:	f000 fc03 	bl	800669a <UART_Receive_IT>
 8005e94:	e256      	b.n	8006344 <HAL_UART_IRQHandler+0x514>
 8005e96:	f8d7 30d8 	ldr.w	r3, [r7, #216]	@ 0xd8
 8005e9a:	2b00      	cmp	r3, #0
 8005e9c:	f000 80de 	beq.w	800605c <HAL_UART_IRQHandler+0x22c>
 8005ea0:	f8d7 30dc 	ldr.w	r3, [r7, #220]	@ 0xdc
 8005ea4:	f003 0301 	and.w	r3, r3, #1
 8005ea8:	2b00      	cmp	r3, #0
 8005eaa:	d106      	bne.n	8005eba <HAL_UART_IRQHandler+0x8a>
 8005eac:	f8d7 30e0 	ldr.w	r3, [r7, #224]	@ 0xe0
 8005eb0:	f403 7390 	and.w	r3, r3, #288	@ 0x120
 8005eb4:	2b00      	cmp	r3, #0
 8005eb6:	f000 80d1 	beq.w	800605c <HAL_UART_IRQHandler+0x22c>
 8005eba:	f8d7 30e4 	ldr.w	r3, [r7, #228]	@ 0xe4
 8005ebe:	f003 0301 	and.w	r3, r3, #1
 8005ec2:	2b00      	cmp	r3, #0
 8005ec4:	d00b      	beq.n	8005ede <HAL_UART_IRQHandler+0xae>
 8005ec6:	f8d7 30e0 	ldr.w	r3, [r7, #224]	@ 0xe0
 8005eca:	f403 7380 	and.w	r3, r3, #256	@ 0x100
 8005ece:	2b00      	cmp	r3, #0
 8005ed0:	d005      	beq.n	8005ede <HAL_UART_IRQHandler+0xae>
 8005ed2:	687b      	ldr	r3, [r7, #4]
 8005ed4:	6c1b      	ldr	r3, [r3, #64]	@ 0x40
 8005ed6:	f043 0201 	orr.w	r2, r3, #1
 8005eda:	687b      	ldr	r3, [r7, #4]
 8005edc:	641a      	str	r2, [r3, #64]	@ 0x40
 8005ede:	f8d7 30e4 	ldr.w	r3, [r7, #228]	@ 0xe4
 8005ee2:	f003 0304 	and.w	r3, r3, #4
 8005ee6:	2b00      	cmp	r3, #0
 8005ee8:	d00b      	beq.n	8005f02 <HAL_UART_IRQHandler+0xd2>
 8005eea:	f8d7 30dc 	ldr.w	r3, [r7, #220]	@ 0xdc
 8005eee:	f003 0301 	and.w	r3, r3, #1
 8005ef2:	2b00      	cmp	r3, #0
 8005ef4:	d005      	beq.n	8005f02 <HAL_UART_IRQHandler+0xd2>
 8005ef6:	687b      	ldr	r3, [r7, #4]
 8005ef8:	6c1b      	ldr	r3, [r3, #64]	@ 0x40
 8005efa:	f043 0202 	orr.w	r2, r3, #2
 8005efe:	687b      	ldr	r3, [r7, #4]
 8005f00:	641a      	str	r2, [r3, #64]	@ 0x40
 8005f02:	f8d7 30e4 	ldr.w	r3, [r7, #228]	@ 0xe4
 8005f06:	f003 0302 	and.w	r3, r3, #2
 8005f0a:	2b00      	cmp	r3, #0
 8005f0c:	d00b      	beq.n	8005f26 <HAL_UART_IRQHandler+0xf6>
 8005f0e:	f8d7 30dc 	ldr.w	r3, [r7, #220]	@ 0xdc
 8005f12:	f003 0301 	and.w	r3, r3, #1
 8005f16:	2b00      	cmp	r3, #0
 8005f18:	d005      	beq.n	8005f26 <HAL_UART_IRQHandler+0xf6>
 8005f1a:	687b      	ldr	r3, [r7, #4]
 8005f1c:	6c1b      	ldr	r3, [r3, #64]	@ 0x40
 8005f1e:	f043 0204 	orr.w	r2, r3, #4
 8005f22:	687b      	ldr	r3, [r7, #4]
 8005f24:	641a      	str	r2, [r3, #64]	@ 0x40
 8005f26:	f8d7 30e4 	ldr.w	r3, [r7, #228]	@ 0xe4
 8005f2a:	f003 0308 	and.w	r3, r3, #8
 8005f2e:	2b00      	cmp	r3, #0
 8005f30:	d011      	beq.n	8005f56 <HAL_UART_IRQHandler+0x126>
 8005f32:	f8d7 30e0 	ldr.w	r3, [r7, #224]	@ 0xe0
 8005f36:	f003 0320 	and.w	r3, r3, #32
 8005f3a:	2b00      	cmp	r3, #0
 8005f3c:	d105      	bne.n	8005f4a <HAL_UART_IRQHandler+0x11a>
 8005f3e:	f8d7 30dc 	ldr.w	r3, [r7, #220]	@ 0xdc
 8005f42:	f003 0301 	and.w	r3, r3, #1
 8005f46:	2b00      	cmp	r3, #0
 8005f48:	d005      	beq.n	8005f56 <HAL_UART_IRQHandler+0x126>
 8005f4a:	687b      	ldr	r3, [r7, #4]
 8005f4c:	6c1b      	ldr	r3, [r3, #64]	@ 0x40
 8005f4e:	f043 0208 	orr.w	r2, r3, #8
 8005f52:	687b      	ldr	r3, [r7, #4]
 8005f54:	641a      	str	r2, [r3, #64]	@ 0x40
 8005f56:	687b      	ldr	r3, [r7, #4]
 8005f58:	6c1b      	ldr	r3, [r3, #64]	@ 0x40
 8005f5a:	2b00      	cmp	r3, #0
 8005f5c:	f000 81ed 	beq.w	800633a <HAL_UART_IRQHandler+0x50a>
 8005f60:	f8d7 30e4 	ldr.w	r3, [r7, #228]	@ 0xe4
 8005f64:	f003 0320 	and.w	r3, r3, #32
 8005f68:	2b00      	cmp	r3, #0
 8005f6a:	d008      	beq.n	8005f7e <HAL_UART_IRQHandler+0x14e>
 8005f6c:	f8d7 30e0 	ldr.w	r3, [r7, #224]	@ 0xe0
 8005f70:	f003 0320 	and.w	r3, r3, #32
 8005f74:	2b00      	cmp	r3, #0
 8005f76:	d002      	beq.n	8005f7e <HAL_UART_IRQHandler+0x14e>
 8005f78:	6878      	ldr	r0, [r7, #4]
 8005f7a:	f000 fb8e 	bl	800669a <UART_Receive_IT>
 8005f7e:	687b      	ldr	r3, [r7, #4]
 8005f80:	681b      	ldr	r3, [r3, #0]
 8005f82:	695b      	ldr	r3, [r3, #20]
 8005f84:	f003 0340 	and.w	r3, r3, #64	@ 0x40
 8005f88:	2b40      	cmp	r3, #64	@ 0x40
 8005f8a:	bf0c      	ite	eq
 8005f8c:	2301      	moveq	r3, #1
 8005f8e:	2300      	movne	r3, #0
 8005f90:	b2db      	uxtb	r3, r3
 8005f92:	f8c7 30d4 	str.w	r3, [r7, #212]	@ 0xd4
 8005f96:	687b      	ldr	r3, [r7, #4]
 8005f98:	6c1b      	ldr	r3, [r3, #64]	@ 0x40
 8005f9a:	f003 0308 	and.w	r3, r3, #8
 8005f9e:	2b00      	cmp	r3, #0
 8005fa0:	d103      	bne.n	8005faa <HAL_UART_IRQHandler+0x17a>
 8005fa2:	f8d7 30d4 	ldr.w	r3, [r7, #212]	@ 0xd4
 8005fa6:	2b00      	cmp	r3, #0
 8005fa8:	d04f      	beq.n	800604a <HAL_UART_IRQHandler+0x21a>
 8005faa:	6878      	ldr	r0, [r7, #4]
 8005fac:	f000 fa96 	bl	80064dc <UART_EndRxTransfer>
 8005fb0:	687b      	ldr	r3, [r7, #4]
 8005fb2:	681b      	ldr	r3, [r3, #0]
 8005fb4:	695b      	ldr	r3, [r3, #20]
 8005fb6:	f003 0340 	and.w	r3, r3, #64	@ 0x40
 8005fba:	2b40      	cmp	r3, #64	@ 0x40
 8005fbc:	d141      	bne.n	8006042 <HAL_UART_IRQHandler+0x212>
 8005fbe:	687b      	ldr	r3, [r7, #4]
 8005fc0:	681b      	ldr	r3, [r3, #0]
 8005fc2:	3314      	adds	r3, #20
 8005fc4:	f8c7 309c 	str.w	r3, [r7, #156]	@ 0x9c
 8005fc8:	f8d7 309c 	ldr.w	r3, [r7, #156]	@ 0x9c
 8005fcc:	e853 3f00 	ldrex	r3, [r3]
 8005fd0:	f8c7 3098 	str.w	r3, [r7, #152]	@ 0x98
 8005fd4:	f8d7 3098 	ldr.w	r3, [r7, #152]	@ 0x98
 8005fd8:	f023 0340 	bic.w	r3, r3, #64	@ 0x40
 8005fdc:	f8c7 30d0 	str.w	r3, [r7, #208]	@ 0xd0
 8005fe0:	687b      	ldr	r3, [r7, #4]
 8005fe2:	681b      	ldr	r3, [r3, #0]
 8005fe4:	3314      	adds	r3, #20
 8005fe6:	f8d7 20d0 	ldr.w	r2, [r7, #208]	@ 0xd0
 8005fea:	f8c7 20a8 	str.w	r2, [r7, #168]	@ 0xa8
 8005fee:	f8c7 30a4 	str.w	r3, [r7, #164]	@ 0xa4
 8005ff2:	f8d7 10a4 	ldr.w	r1, [r7, #164]	@ 0xa4
 8005ff6:	f8d7 20a8 	ldr.w	r2, [r7, #168]	@ 0xa8
 8005ffa:	e841 2300 	strex	r3, r2, [r1]
 8005ffe:	f8c7 30a0 	str.w	r3, [r7, #160]	@ 0xa0
 8006002:	f8d7 30a0 	ldr.w	r3, [r7, #160]	@ 0xa0
 8006006:	2b00      	cmp	r3, #0
 8006008:	d1d9      	bne.n	8005fbe <HAL_UART_IRQHandler+0x18e>
 800600a:	687b      	ldr	r3, [r7, #4]
 800600c:	6b9b      	ldr	r3, [r3, #56]	@ 0x38
 800600e:	2b00      	cmp	r3, #0
 8006010:	d013      	beq.n	800603a <HAL_UART_IRQHandler+0x20a>
 8006012:	687b      	ldr	r3, [r7, #4]
 8006014:	6b9b      	ldr	r3, [r3, #56]	@ 0x38
 8006016:	4a7d      	ldr	r2, [pc, #500]	@ (800620c <HAL_UART_IRQHandler+0x3dc>)
 8006018:	651a      	str	r2, [r3, #80]	@ 0x50
 800601a:	687b      	ldr	r3, [r7, #4]
 800601c:	6b9b      	ldr	r3, [r3, #56]	@ 0x38
 800601e:	4618      	mov	r0, r3
 8006020:	f7fd f934 	bl	800328c <HAL_DMA_Abort_IT>
 8006024:	4603      	mov	r3, r0
 8006026:	2b00      	cmp	r3, #0
 8006028:	d016      	beq.n	8006058 <HAL_UART_IRQHandler+0x228>
 800602a:	687b      	ldr	r3, [r7, #4]
 800602c:	6b9b      	ldr	r3, [r3, #56]	@ 0x38
 800602e:	6d1b      	ldr	r3, [r3, #80]	@ 0x50
 8006030:	687a      	ldr	r2, [r7, #4]
 8006032:	6b92      	ldr	r2, [r2, #56]	@ 0x38
 8006034:	4610      	mov	r0, r2
 8006036:	4798      	blx	r3
 8006038:	e00e      	b.n	8006058 <HAL_UART_IRQHandler+0x228>
 800603a:	6878      	ldr	r0, [r7, #4]
 800603c:	f000 f990 	bl	8006360 <HAL_UART_ErrorCallback>
 8006040:	e00a      	b.n	8006058 <HAL_UART_IRQHandler+0x228>
 8006042:	6878      	ldr	r0, [r7, #4]
 8006044:	f000 f98c 	bl	8006360 <HAL_UART_ErrorCallback>
 8006048:	e006      	b.n	8006058 <HAL_UART_IRQHandler+0x228>
 800604a:	6878      	ldr	r0, [r7, #4]
 800604c:	f000 f988 	bl	8006360 <HAL_UART_ErrorCallback>
 8006050:	687b      	ldr	r3, [r7, #4]
 8006052:	2200      	movs	r2, #0
 8006054:	641a      	str	r2, [r3, #64]	@ 0x40
 8006056:	e170      	b.n	800633a <HAL_UART_IRQHandler+0x50a>
 8006058:	bf00      	nop
 800605a:	e16e      	b.n	800633a <HAL_UART_IRQHandler+0x50a>
 800605c:	687b      	ldr	r3, [r7, #4]
 800605e:	6b1b      	ldr	r3, [r3, #48]	@ 0x30
 8006060:	2b01      	cmp	r3, #1
 8006062:	f040 814a 	bne.w	80062fa <HAL_UART_IRQHandler+0x4ca>
 8006066:	f8d7 30e4 	ldr.w	r3, [r7, #228]	@ 0xe4
 800606a:	f003 0310 	and.w	r3, r3, #16
 800606e:	2b00      	cmp	r3, #0
 8006070:	f000 8143 	beq.w	80062fa <HAL_UART_IRQHandler+0x4ca>
 8006074:	f8d7 30e0 	ldr.w	r3, [r7, #224]	@ 0xe0
 8006078:	f003 0310 	and.w	r3, r3, #16
 800607c:	2b00      	cmp	r3, #0
 800607e:	f000 813c 	beq.w	80062fa <HAL_UART_IRQHandler+0x4ca>
 8006082:	2300      	movs	r3, #0
 8006084:	60bb      	str	r3, [r7, #8]
 8006086:	687b      	ldr	r3, [r7, #4]
 8006088:	681b      	ldr	r3, [r3, #0]
 800608a:	681b      	ldr	r3, [r3, #0]
 800608c:	60bb      	str	r3, [r7, #8]
 800608e:	687b      	ldr	r3, [r7, #4]
 8006090:	681b      	ldr	r3, [r3, #0]
 8006092:	685b      	ldr	r3, [r3, #4]
 8006094:	60bb      	str	r3, [r7, #8]
 8006096:	68bb      	ldr	r3, [r7, #8]
 8006098:	687b      	ldr	r3, [r7, #4]
 800609a:	681b      	ldr	r3, [r3, #0]
 800609c:	695b      	ldr	r3, [r3, #20]
 800609e:	f003 0340 	and.w	r3, r3, #64	@ 0x40
 80060a2:	2b40      	cmp	r3, #64	@ 0x40
 80060a4:	f040 80b4 	bne.w	8006210 <HAL_UART_IRQHandler+0x3e0>
 80060a8:	687b      	ldr	r3, [r7, #4]
 80060aa:	6b9b      	ldr	r3, [r3, #56]	@ 0x38
 80060ac:	681b      	ldr	r3, [r3, #0]
 80060ae:	685b      	ldr	r3, [r3, #4]
 80060b0:	f8a7 30be 	strh.w	r3, [r7, #190]	@ 0xbe
 80060b4:	f8b7 30be 	ldrh.w	r3, [r7, #190]	@ 0xbe
 80060b8:	2b00      	cmp	r3, #0
 80060ba:	f000 8140 	beq.w	800633e <HAL_UART_IRQHandler+0x50e>
 80060be:	687b      	ldr	r3, [r7, #4]
 80060c0:	8d9b      	ldrh	r3, [r3, #44]	@ 0x2c
 80060c2:	f8b7 20be 	ldrh.w	r2, [r7, #190]	@ 0xbe
 80060c6:	429a      	cmp	r2, r3
 80060c8:	f080 8139 	bcs.w	800633e <HAL_UART_IRQHandler+0x50e>
 80060cc:	687b      	ldr	r3, [r7, #4]
 80060ce:	f8b7 20be 	ldrh.w	r2, [r7, #190]	@ 0xbe
 80060d2:	85da      	strh	r2, [r3, #46]	@ 0x2e
 80060d4:	687b      	ldr	r3, [r7, #4]
 80060d6:	6b9b      	ldr	r3, [r3, #56]	@ 0x38
 80060d8:	69db      	ldr	r3, [r3, #28]
 80060da:	f5b3 7f80 	cmp.w	r3, #256	@ 0x100
 80060de:	f000 8088 	beq.w	80061f2 <HAL_UART_IRQHandler+0x3c2>
 80060e2:	687b      	ldr	r3, [r7, #4]
 80060e4:	681b      	ldr	r3, [r3, #0]
 80060e6:	330c      	adds	r3, #12
 80060e8:	f8c7 3088 	str.w	r3, [r7, #136]	@ 0x88
 80060ec:	f8d7 3088 	ldr.w	r3, [r7, #136]	@ 0x88
 80060f0:	e853 3f00 	ldrex	r3, [r3]
 80060f4:	f8c7 3084 	str.w	r3, [r7, #132]	@ 0x84
 80060f8:	f8d7 3084 	ldr.w	r3, [r7, #132]	@ 0x84
 80060fc:	f423 7380 	bic.w	r3, r3, #256	@ 0x100
 8006100:	f8c7 30b8 	str.w	r3, [r7, #184]	@ 0xb8
 8006104:	687b      	ldr	r3, [r7, #4]
 8006106:	681b      	ldr	r3, [r3, #0]
 8006108:	330c      	adds	r3, #12
 800610a:	f8d7 20b8 	ldr.w	r2, [r7, #184]	@ 0xb8
 800610e:	f8c7 2094 	str.w	r2, [r7, #148]	@ 0x94
 8006112:	f8c7 3090 	str.w	r3, [r7, #144]	@ 0x90
 8006116:	f8d7 1090 	ldr.w	r1, [r7, #144]	@ 0x90
 800611a:	f8d7 2094 	ldr.w	r2, [r7, #148]	@ 0x94
 800611e:	e841 2300 	strex	r3, r2, [r1]
 8006122:	f8c7 308c 	str.w	r3, [r7, #140]	@ 0x8c
 8006126:	f8d7 308c 	ldr.w	r3, [r7, #140]	@ 0x8c
 800612a:	2b00      	cmp	r3, #0
 800612c:	d1d9      	bne.n	80060e2 <HAL_UART_IRQHandler+0x2b2>
 800612e:	687b      	ldr	r3, [r7, #4]
 8006130:	681b      	ldr	r3, [r3, #0]
 8006132:	3314      	adds	r3, #20
 8006134:	677b      	str	r3, [r7, #116]	@ 0x74
 8006136:	6f7b      	ldr	r3, [r7, #116]	@ 0x74
 8006138:	e853 3f00 	ldrex	r3, [r3]
 800613c:	673b      	str	r3, [r7, #112]	@ 0x70
 800613e:	6f3b      	ldr	r3, [r7, #112]	@ 0x70
 8006140:	f023 0301 	bic.w	r3, r3, #1
 8006144:	f8c7 30b4 	str.w	r3, [r7, #180]	@ 0xb4
 8006148:	687b      	ldr	r3, [r7, #4]
 800614a:	681b      	ldr	r3, [r3, #0]
 800614c:	3314      	adds	r3, #20
 800614e:	f8d7 20b4 	ldr.w	r2, [r7, #180]	@ 0xb4
 8006152:	f8c7 2080 	str.w	r2, [r7, #128]	@ 0x80
 8006156:	67fb      	str	r3, [r7, #124]	@ 0x7c
 8006158:	6ff9      	ldr	r1, [r7, #124]	@ 0x7c
 800615a:	f8d7 2080 	ldr.w	r2, [r7, #128]	@ 0x80
 800615e:	e841 2300 	strex	r3, r2, [r1]
 8006162:	67bb      	str	r3, [r7, #120]	@ 0x78
 8006164:	6fbb      	ldr	r3, [r7, #120]	@ 0x78
 8006166:	2b00      	cmp	r3, #0
 8006168:	d1e1      	bne.n	800612e <HAL_UART_IRQHandler+0x2fe>
 800616a:	687b      	ldr	r3, [r7, #4]
 800616c:	681b      	ldr	r3, [r3, #0]
 800616e:	3314      	adds	r3, #20
 8006170:	663b      	str	r3, [r7, #96]	@ 0x60
 8006172:	6e3b      	ldr	r3, [r7, #96]	@ 0x60
 8006174:	e853 3f00 	ldrex	r3, [r3]
 8006178:	65fb      	str	r3, [r7, #92]	@ 0x5c
 800617a:	6dfb      	ldr	r3, [r7, #92]	@ 0x5c
 800617c:	f023 0340 	bic.w	r3, r3, #64	@ 0x40
 8006180:	f8c7 30b0 	str.w	r3, [r7, #176]	@ 0xb0
 8006184:	687b      	ldr	r3, [r7, #4]
 8006186:	681b      	ldr	r3, [r3, #0]
 8006188:	3314      	adds	r3, #20
 800618a:	f8d7 20b0 	ldr.w	r2, [r7, #176]	@ 0xb0
 800618e:	66fa      	str	r2, [r7, #108]	@ 0x6c
 8006190:	66bb      	str	r3, [r7, #104]	@ 0x68
 8006192:	6eb9      	ldr	r1, [r7, #104]	@ 0x68
 8006194:	6efa      	ldr	r2, [r7, #108]	@ 0x6c
 8006196:	e841 2300 	strex	r3, r2, [r1]
 800619a:	667b      	str	r3, [r7, #100]	@ 0x64
 800619c:	6e7b      	ldr	r3, [r7, #100]	@ 0x64
 800619e:	2b00      	cmp	r3, #0
 80061a0:	d1e3      	bne.n	800616a <HAL_UART_IRQHandler+0x33a>
 80061a2:	687b      	ldr	r3, [r7, #4]
 80061a4:	2220      	movs	r2, #32
 80061a6:	f883 203e 	strb.w	r2, [r3, #62]	@ 0x3e
 80061aa:	687b      	ldr	r3, [r7, #4]
 80061ac:	2200      	movs	r2, #0
 80061ae:	631a      	str	r2, [r3, #48]	@ 0x30
 80061b0:	687b      	ldr	r3, [r7, #4]
 80061b2:	681b      	ldr	r3, [r3, #0]
 80061b4:	330c      	adds	r3, #12
 80061b6:	64fb      	str	r3, [r7, #76]	@ 0x4c
 80061b8:	6cfb      	ldr	r3, [r7, #76]	@ 0x4c
 80061ba:	e853 3f00 	ldrex	r3, [r3]
 80061be:	64bb      	str	r3, [r7, #72]	@ 0x48
 80061c0:	6cbb      	ldr	r3, [r7, #72]	@ 0x48
 80061c2:	f023 0310 	bic.w	r3, r3, #16
 80061c6:	f8c7 30ac 	str.w	r3, [r7, #172]	@ 0xac
 80061ca:	687b      	ldr	r3, [r7, #4]
 80061cc:	681b      	ldr	r3, [r3, #0]
 80061ce:	330c      	adds	r3, #12
 80061d0:	f8d7 20ac 	ldr.w	r2, [r7, #172]	@ 0xac
 80061d4:	65ba      	str	r2, [r7, #88]	@ 0x58
 80061d6:	657b      	str	r3, [r7, #84]	@ 0x54
 80061d8:	6d79      	ldr	r1, [r7, #84]	@ 0x54
 80061da:	6dba      	ldr	r2, [r7, #88]	@ 0x58
 80061dc:	e841 2300 	strex	r3, r2, [r1]
 80061e0:	653b      	str	r3, [r7, #80]	@ 0x50
 80061e2:	6d3b      	ldr	r3, [r7, #80]	@ 0x50
 80061e4:	2b00      	cmp	r3, #0
 80061e6:	d1e3      	bne.n	80061b0 <HAL_UART_IRQHandler+0x380>
 80061e8:	687b      	ldr	r3, [r7, #4]
 80061ea:	6b9b      	ldr	r3, [r3, #56]	@ 0x38
 80061ec:	4618      	mov	r0, r3
 80061ee:	f7fc ffdd 	bl	80031ac <HAL_DMA_Abort>
 80061f2:	687b      	ldr	r3, [r7, #4]
 80061f4:	8d9a      	ldrh	r2, [r3, #44]	@ 0x2c
 80061f6:	687b      	ldr	r3, [r7, #4]
 80061f8:	8ddb      	ldrh	r3, [r3, #46]	@ 0x2e
 80061fa:	b29b      	uxth	r3, r3
 80061fc:	1ad3      	subs	r3, r2, r3
 80061fe:	b29b      	uxth	r3, r3
 8006200:	4619      	mov	r1, r3
 8006202:	6878      	ldr	r0, [r7, #4]
 8006204:	f000 f8b6 	bl	8006374 <HAL_UARTEx_RxEventCallback>
 8006208:	e099      	b.n	800633e <HAL_UART_IRQHandler+0x50e>
 800620a:	bf00      	nop
 800620c:	080065a3 	.word	0x080065a3
 8006210:	687b      	ldr	r3, [r7, #4]
 8006212:	8d9a      	ldrh	r2, [r3, #44]	@ 0x2c
 8006214:	687b      	ldr	r3, [r7, #4]
 8006216:	8ddb      	ldrh	r3, [r3, #46]	@ 0x2e
 8006218:	b29b      	uxth	r3, r3
 800621a:	1ad3      	subs	r3, r2, r3
 800621c:	f8a7 30ce 	strh.w	r3, [r7, #206]	@ 0xce
 8006220:	687b      	ldr	r3, [r7, #4]
 8006222:	8ddb      	ldrh	r3, [r3, #46]	@ 0x2e
 8006224:	b29b      	uxth	r3, r3
 8006226:	2b00      	cmp	r3, #0
 8006228:	f000 808b 	beq.w	8006342 <HAL_UART_IRQHandler+0x512>
 800622c:	f8b7 30ce 	ldrh.w	r3, [r7, #206]	@ 0xce
 8006230:	2b00      	cmp	r3, #0
 8006232:	f000 8086 	beq.w	8006342 <HAL_UART_IRQHandler+0x512>
 8006236:	687b      	ldr	r3, [r7, #4]
 8006238:	681b      	ldr	r3, [r3, #0]
 800623a:	330c      	adds	r3, #12
 800623c:	63bb      	str	r3, [r7, #56]	@ 0x38
 800623e:	6bbb      	ldr	r3, [r7, #56]	@ 0x38
 8006240:	e853 3f00 	ldrex	r3, [r3]
 8006244:	637b      	str	r3, [r7, #52]	@ 0x34
 8006246:	6b7b      	ldr	r3, [r7, #52]	@ 0x34
 8006248:	f423 7390 	bic.w	r3, r3, #288	@ 0x120
 800624c:	f8c7 30c8 	str.w	r3, [r7, #200]	@ 0xc8
 8006250:	687b      	ldr	r3, [r7, #4]
 8006252:	681b      	ldr	r3, [r3, #0]
 8006254:	330c      	adds	r3, #12
 8006256:	f8d7 20c8 	ldr.w	r2, [r7, #200]	@ 0xc8
 800625a:	647a      	str	r2, [r7, #68]	@ 0x44
 800625c:	643b      	str	r3, [r7, #64]	@ 0x40
 800625e:	6c39      	ldr	r1, [r7, #64]	@ 0x40
 8006260:	6c7a      	ldr	r2, [r7, #68]	@ 0x44
 8006262:	e841 2300 	strex	r3, r2, [r1]
 8006266:	63fb      	str	r3, [r7, #60]	@ 0x3c
 8006268:	6bfb      	ldr	r3, [r7, #60]	@ 0x3c
 800626a:	2b00      	cmp	r3, #0
 800626c:	d1e3      	bne.n	8006236 <HAL_UART_IRQHandler+0x406>
 800626e:	687b      	ldr	r3, [r7, #4]
 8006270:	681b      	ldr	r3, [r3, #0]
 8006272:	3314      	adds	r3, #20
 8006274:	627b      	str	r3, [r7, #36]	@ 0x24
 8006276:	6a7b      	ldr	r3, [r7, #36]	@ 0x24
 8006278:	e853 3f00 	ldrex	r3, [r3]
 800627c:	623b      	str	r3, [r7, #32]
 800627e:	6a3b      	ldr	r3, [r7, #32]
 8006280:	f023 0301 	bic.w	r3, r3, #1
 8006284:	f8c7 30c4 	str.w	r3, [r7, #196]	@ 0xc4
 8006288:	687b      	ldr	r3, [r7, #4]
 800628a:	681b      	ldr	r3, [r3, #0]
 800628c:	3314      	adds	r3, #20
 800628e:	f8d7 20c4 	ldr.w	r2, [r7, #196]	@ 0xc4
 8006292:	633a      	str	r2, [r7, #48]	@ 0x30
 8006294:	62fb      	str	r3, [r7, #44]	@ 0x2c
 8006296:	6af9      	ldr	r1, [r7, #44]	@ 0x2c
 8006298:	6b3a      	ldr	r2, [r7, #48]	@ 0x30
 800629a:	e841 2300 	strex	r3, r2, [r1]
 800629e:	62bb      	str	r3, [r7, #40]	@ 0x28
 80062a0:	6abb      	ldr	r3, [r7, #40]	@ 0x28
 80062a2:	2b00      	cmp	r3, #0
 80062a4:	d1e3      	bne.n	800626e <HAL_UART_IRQHandler+0x43e>
 80062a6:	687b      	ldr	r3, [r7, #4]
 80062a8:	2220      	movs	r2, #32
 80062aa:	f883 203e 	strb.w	r2, [r3, #62]	@ 0x3e
 80062ae:	687b      	ldr	r3, [r7, #4]
 80062b0:	2200      	movs	r2, #0
 80062b2:	631a      	str	r2, [r3, #48]	@ 0x30
 80062b4:	687b      	ldr	r3, [r7, #4]
 80062b6:	681b      	ldr	r3, [r3, #0]
 80062b8:	330c      	adds	r3, #12
 80062ba:	613b      	str	r3, [r7, #16]
 80062bc:	693b      	ldr	r3, [r7, #16]
 80062be:	e853 3f00 	ldrex	r3, [r3]
 80062c2:	60fb      	str	r3, [r7, #12]
 80062c4:	68fb      	ldr	r3, [r7, #12]
 80062c6:	f023 0310 	bic.w	r3, r3, #16
 80062ca:	f8c7 30c0 	str.w	r3, [r7, #192]	@ 0xc0
 80062ce:	687b      	ldr	r3, [r7, #4]
 80062d0:	681b      	ldr	r3, [r3, #0]
 80062d2:	330c      	adds	r3, #12
 80062d4:	f8d7 20c0 	ldr.w	r2, [r7, #192]	@ 0xc0
 80062d8:	61fa      	str	r2, [r7, #28]
 80062da:	61bb      	str	r3, [r7, #24]
 80062dc:	69b9      	ldr	r1, [r7, #24]
 80062de:	69fa      	ldr	r2, [r7, #28]
 80062e0:	e841 2300 	strex	r3, r2, [r1]
 80062e4:	617b      	str	r3, [r7, #20]
 80062e6:	697b      	ldr	r3, [r7, #20]
 80062e8:	2b00      	cmp	r3, #0
 80062ea:	d1e3      	bne.n	80062b4 <HAL_UART_IRQHandler+0x484>
 80062ec:	f8b7 30ce 	ldrh.w	r3, [r7, #206]	@ 0xce
 80062f0:	4619      	mov	r1, r3
 80062f2:	6878      	ldr	r0, [r7, #4]
 80062f4:	f000 f83e 	bl	8006374 <HAL_UARTEx_RxEventCallback>
 80062f8:	e023      	b.n	8006342 <HAL_UART_IRQHandler+0x512>
 80062fa:	f8d7 30e4 	ldr.w	r3, [r7, #228]	@ 0xe4
 80062fe:	f003 0380 	and.w	r3, r3, #128	@ 0x80
 8006302:	2b00      	cmp	r3, #0
 8006304:	d009      	beq.n	800631a <HAL_UART_IRQHandler+0x4ea>
 8006306:	f8d7 30e0 	ldr.w	r3, [r7, #224]	@ 0xe0
 800630a:	f003 0380 	and.w	r3, r3, #128	@ 0x80
 800630e:	2b00      	cmp	r3, #0
 8006310:	d003      	beq.n	800631a <HAL_UART_IRQHandler+0x4ea>
 8006312:	6878      	ldr	r0, [r7, #4]
 8006314:	f000 f959 	bl	80065ca <UART_Transmit_IT>
 8006318:	e014      	b.n	8006344 <HAL_UART_IRQHandler+0x514>
 800631a:	f8d7 30e4 	ldr.w	r3, [r7, #228]	@ 0xe4
 800631e:	f003 0340 	and.w	r3, r3, #64	@ 0x40
 8006322:	2b00      	cmp	r3, #0
 8006324:	d00e      	beq.n	8006344 <HAL_UART_IRQHandler+0x514>
 8006326:	f8d7 30e0 	ldr.w	r3, [r7, #224]	@ 0xe0
 800632a:	f003 0340 	and.w	r3, r3, #64	@ 0x40
 800632e:	2b00      	cmp	r3, #0
 8006330:	d008      	beq.n	8006344 <HAL_UART_IRQHandler+0x514>
 8006332:	6878      	ldr	r0, [r7, #4]
 8006334:	f000 f999 	bl	800666a <UART_EndTransmit_IT>
 8006338:	e004      	b.n	8006344 <HAL_UART_IRQHandler+0x514>
 800633a:	bf00      	nop
 800633c:	e002      	b.n	8006344 <HAL_UART_IRQHandler+0x514>
 800633e:	bf00      	nop
 8006340:	e000      	b.n	8006344 <HAL_UART_IRQHandler+0x514>
 8006342:	bf00      	nop
 8006344:	37e8      	adds	r7, #232	@ 0xe8
 8006346:	46bd      	mov	sp, r7
 8006348:	bd80      	pop	{r7, pc}
 800634a:	bf00      	nop

0800634c <HAL_UART_TxCpltCallback>:
 800634c:	b480      	push	{r7}
 800634e:	b083      	sub	sp, #12
 8006350:	af00      	add	r7, sp, #0
 8006352:	6078      	str	r0, [r7, #4]
 8006354:	bf00      	nop
 8006356:	370c      	adds	r7, #12
 8006358:	46bd      	mov	sp, r7
 800635a:	f85d 7b04 	ldr.w	r7, [sp], #4
 800635e:	4770      	bx	lr

08006360 <HAL_UART_ErrorCallback>:
 8006360:	b480      	push	{r7}
 8006362:	b083      	sub	sp, #12
 8006364:	af00      	add	r7, sp, #0
 8006366:	6078      	str	r0, [r7, #4]
 8006368:	bf00      	nop
 800636a:	370c      	adds	r7, #12
 800636c:	46bd      	mov	sp, r7
 800636e:	f85d 7b04 	ldr.w	r7, [sp], #4
 8006372:	4770      	bx	lr

08006374 <HAL_UARTEx_RxEventCallback>:
 8006374:	b480      	push	{r7}
 8006376:	b083      	sub	sp, #12
 8006378:	af00      	add	r7, sp, #0
 800637a:	6078      	str	r0, [r7, #4]
 800637c:	460b      	mov	r3, r1
 800637e:	807b      	strh	r3, [r7, #2]
 8006380:	bf00      	nop
 8006382:	370c      	adds	r7, #12
 8006384:	46bd      	mov	sp, r7
 8006386:	f85d 7b04 	ldr.w	r7, [sp], #4
 800638a:	4770      	bx	lr

0800638c <UART_WaitOnFlagUntilTimeout>:
 800638c:	b580      	push	{r7, lr}
 800638e:	b090      	sub	sp, #64	@ 0x40
 8006390:	af00      	add	r7, sp, #0
 8006392:	60f8      	str	r0, [r7, #12]
 8006394:	60b9      	str	r1, [r7, #8]
 8006396:	603b      	str	r3, [r7, #0]
 8006398:	4613      	mov	r3, r2
 800639a:	71fb      	strb	r3, [r7, #7]
 800639c:	e050      	b.n	8006440 <UART_WaitOnFlagUntilTimeout+0xb4>
 800639e:	6cbb      	ldr	r3, [r7, #72]	@ 0x48
 80063a0:	f1b3 3fff 	cmp.w	r3, #4294967295
 80063a4:	d04c      	beq.n	8006440 <UART_WaitOnFlagUntilTimeout+0xb4>
 80063a6:	6cbb      	ldr	r3, [r7, #72]	@ 0x48
 80063a8:	2b00      	cmp	r3, #0
 80063aa:	d007      	beq.n	80063bc <UART_WaitOnFlagUntilTimeout+0x30>
 80063ac:	f7fc f8a4 	bl	80024f8 <HAL_GetTick>
 80063b0:	4602      	mov	r2, r0
 80063b2:	683b      	ldr	r3, [r7, #0]
 80063b4:	1ad3      	subs	r3, r2, r3
 80063b6:	6cba      	ldr	r2, [r7, #72]	@ 0x48
 80063b8:	429a      	cmp	r2, r3
 80063ba:	d241      	bcs.n	8006440 <UART_WaitOnFlagUntilTimeout+0xb4>
 80063bc:	68fb      	ldr	r3, [r7, #12]
 80063be:	681b      	ldr	r3, [r3, #0]
 80063c0:	330c      	adds	r3, #12
 80063c2:	62bb      	str	r3, [r7, #40]	@ 0x28
 80063c4:	6abb      	ldr	r3, [r7, #40]	@ 0x28
 80063c6:	e853 3f00 	ldrex	r3, [r3]
 80063ca:	627b      	str	r3, [r7, #36]	@ 0x24
 80063cc:	6a7b      	ldr	r3, [r7, #36]	@ 0x24
 80063ce:	f423 73d0 	bic.w	r3, r3, #416	@ 0x1a0
 80063d2:	63fb      	str	r3, [r7, #60]	@ 0x3c
 80063d4:	68fb      	ldr	r3, [r7, #12]
 80063d6:	681b      	ldr	r3, [r3, #0]
 80063d8:	330c      	adds	r3, #12
 80063da:	6bfa      	ldr	r2, [r7, #60]	@ 0x3c
 80063dc:	637a      	str	r2, [r7, #52]	@ 0x34
 80063de:	633b      	str	r3, [r7, #48]	@ 0x30
 80063e0:	6b39      	ldr	r1, [r7, #48]	@ 0x30
 80063e2:	6b7a      	ldr	r2, [r7, #52]	@ 0x34
 80063e4:	e841 2300 	strex	r3, r2, [r1]
 80063e8:	62fb      	str	r3, [r7, #44]	@ 0x2c
 80063ea:	6afb      	ldr	r3, [r7, #44]	@ 0x2c
 80063ec:	2b00      	cmp	r3, #0
 80063ee:	d1e5      	bne.n	80063bc <UART_WaitOnFlagUntilTimeout+0x30>
 80063f0:	68fb      	ldr	r3, [r7, #12]
 80063f2:	681b      	ldr	r3, [r3, #0]
 80063f4:	3314      	adds	r3, #20
 80063f6:	617b      	str	r3, [r7, #20]
 80063f8:	697b      	ldr	r3, [r7, #20]
 80063fa:	e853 3f00 	ldrex	r3, [r3]
 80063fe:	613b      	str	r3, [r7, #16]
 8006400:	693b      	ldr	r3, [r7, #16]
 8006402:	f023 0301 	bic.w	r3, r3, #1
 8006406:	63bb      	str	r3, [r7, #56]	@ 0x38
 8006408:	68fb      	ldr	r3, [r7, #12]
 800640a:	681b      	ldr	r3, [r3, #0]
 800640c:	3314      	adds	r3, #20
 800640e:	6bba      	ldr	r2, [r7, #56]	@ 0x38
 8006410:	623a      	str	r2, [r7, #32]
 8006412:	61fb      	str	r3, [r7, #28]
 8006414:	69f9      	ldr	r1, [r7, #28]
 8006416:	6a3a      	ldr	r2, [r7, #32]
 8006418:	e841 2300 	strex	r3, r2, [r1]
 800641c:	61bb      	str	r3, [r7, #24]
 800641e:	69bb      	ldr	r3, [r7, #24]
 8006420:	2b00      	cmp	r3, #0
 8006422:	d1e5      	bne.n	80063f0 <UART_WaitOnFlagUntilTimeout+0x64>
 8006424:	68fb      	ldr	r3, [r7, #12]
 8006426:	2220      	movs	r2, #32
 8006428:	f883 203d 	strb.w	r2, [r3, #61]	@ 0x3d
 800642c:	68fb      	ldr	r3, [r7, #12]
 800642e:	2220      	movs	r2, #32
 8006430:	f883 203e 	strb.w	r2, [r3, #62]	@ 0x3e
 8006434:	68fb      	ldr	r3, [r7, #12]
 8006436:	2200      	movs	r2, #0
 8006438:	f883 203c 	strb.w	r2, [r3, #60]	@ 0x3c
 800643c:	2303      	movs	r3, #3
 800643e:	e00f      	b.n	8006460 <UART_WaitOnFlagUntilTimeout+0xd4>
 8006440:	68fb      	ldr	r3, [r7, #12]
 8006442:	681b      	ldr	r3, [r3, #0]
 8006444:	681a      	ldr	r2, [r3, #0]
 8006446:	68bb      	ldr	r3, [r7, #8]
 8006448:	4013      	ands	r3, r2
 800644a:	68ba      	ldr	r2, [r7, #8]
 800644c:	429a      	cmp	r2, r3
 800644e:	bf0c      	ite	eq
 8006450:	2301      	moveq	r3, #1
 8006452:	2300      	movne	r3, #0
 8006454:	b2db      	uxtb	r3, r3
 8006456:	461a      	mov	r2, r3
 8006458:	79fb      	ldrb	r3, [r7, #7]
 800645a:	429a      	cmp	r2, r3
 800645c:	d09f      	beq.n	800639e <UART_WaitOnFlagUntilTimeout+0x12>
 800645e:	2300      	movs	r3, #0
 8006460:	4618      	mov	r0, r3
 8006462:	3740      	adds	r7, #64	@ 0x40
 8006464:	46bd      	mov	sp, r7
 8006466:	bd80      	pop	{r7, pc}

08006468 <UART_Start_Receive_IT>:
 8006468:	b480      	push	{r7}
 800646a:	b085      	sub	sp, #20
 800646c:	af00      	add	r7, sp, #0
 800646e:	60f8      	str	r0, [r7, #12]
 8006470:	60b9      	str	r1, [r7, #8]
 8006472:	4613      	mov	r3, r2
 8006474:	80fb      	strh	r3, [r7, #6]
 8006476:	68fb      	ldr	r3, [r7, #12]
 8006478:	68ba      	ldr	r2, [r7, #8]
 800647a:	629a      	str	r2, [r3, #40]	@ 0x28
 800647c:	68fb      	ldr	r3, [r7, #12]
 800647e:	88fa      	ldrh	r2, [r7, #6]
 8006480:	859a      	strh	r2, [r3, #44]	@ 0x2c
 8006482:	68fb      	ldr	r3, [r7, #12]
 8006484:	88fa      	ldrh	r2, [r7, #6]
 8006486:	85da      	strh	r2, [r3, #46]	@ 0x2e
 8006488:	68fb      	ldr	r3, [r7, #12]
 800648a:	2200      	movs	r2, #0
 800648c:	641a      	str	r2, [r3, #64]	@ 0x40
 800648e:	68fb      	ldr	r3, [r7, #12]
 8006490:	2222      	movs	r2, #34	@ 0x22
 8006492:	f883 203e 	strb.w	r2, [r3, #62]	@ 0x3e
 8006496:	68fb      	ldr	r3, [r7, #12]
 8006498:	2200      	movs	r2, #0
 800649a:	f883 203c 	strb.w	r2, [r3, #60]	@ 0x3c
 800649e:	68fb      	ldr	r3, [r7, #12]
 80064a0:	681b      	ldr	r3, [r3, #0]
 80064a2:	68da      	ldr	r2, [r3, #12]
 80064a4:	68fb      	ldr	r3, [r7, #12]
 80064a6:	681b      	ldr	r3, [r3, #0]
 80064a8:	f442 7280 	orr.w	r2, r2, #256	@ 0x100
 80064ac:	60da      	str	r2, [r3, #12]
 80064ae:	68fb      	ldr	r3, [r7, #12]
 80064b0:	681b      	ldr	r3, [r3, #0]
 80064b2:	695a      	ldr	r2, [r3, #20]
 80064b4:	68fb      	ldr	r3, [r7, #12]
 80064b6:	681b      	ldr	r3, [r3, #0]
 80064b8:	f042 0201 	orr.w	r2, r2, #1
 80064bc:	615a      	str	r2, [r3, #20]
 80064be:	68fb      	ldr	r3, [r7, #12]
 80064c0:	681b      	ldr	r3, [r3, #0]
 80064c2:	68da      	ldr	r2, [r3, #12]
 80064c4:	68fb      	ldr	r3, [r7, #12]
 80064c6:	681b      	ldr	r3, [r3, #0]
 80064c8:	f042 0220 	orr.w	r2, r2, #32
 80064cc:	60da      	str	r2, [r3, #12]
 80064ce:	2300      	movs	r3, #0
 80064d0:	4618      	mov	r0, r3
 80064d2:	3714      	adds	r7, #20
 80064d4:	46bd      	mov	sp, r7
 80064d6:	f85d 7b04 	ldr.w	r7, [sp], #4
 80064da:	4770      	bx	lr

080064dc <UART_EndRxTransfer>:
 80064dc:	b480      	push	{r7}
 80064de:	b095      	sub	sp, #84	@ 0x54
 80064e0:	af00      	add	r7, sp, #0
 80064e2:	6078      	str	r0, [r7, #4]
 80064e4:	687b      	ldr	r3, [r7, #4]
 80064e6:	681b      	ldr	r3, [r3, #0]
 80064e8:	330c      	adds	r3, #12
 80064ea:	637b      	str	r3, [r7, #52]	@ 0x34
 80064ec:	6b7b      	ldr	r3, [r7, #52]	@ 0x34
 80064ee:	e853 3f00 	ldrex	r3, [r3]
 80064f2:	633b      	str	r3, [r7, #48]	@ 0x30
 80064f4:	6b3b      	ldr	r3, [r7, #48]	@ 0x30
 80064f6:	f423 7390 	bic.w	r3, r3, #288	@ 0x120
 80064fa:	64fb      	str	r3, [r7, #76]	@ 0x4c
 80064fc:	687b      	ldr	r3, [r7, #4]
 80064fe:	681b      	ldr	r3, [r3, #0]
 8006500:	330c      	adds	r3, #12
 8006502:	6cfa      	ldr	r2, [r7, #76]	@ 0x4c
 8006504:	643a      	str	r2, [r7, #64]	@ 0x40
 8006506:	63fb      	str	r3, [r7, #60]	@ 0x3c
 8006508:	6bf9      	ldr	r1, [r7, #60]	@ 0x3c
 800650a:	6c3a      	ldr	r2, [r7, #64]	@ 0x40
 800650c:	e841 2300 	strex	r3, r2, [r1]
 8006510:	63bb      	str	r3, [r7, #56]	@ 0x38
 8006512:	6bbb      	ldr	r3, [r7, #56]	@ 0x38
 8006514:	2b00      	cmp	r3, #0
 8006516:	d1e5      	bne.n	80064e4 <UART_EndRxTransfer+0x8>
 8006518:	687b      	ldr	r3, [r7, #4]
 800651a:	681b      	ldr	r3, [r3, #0]
 800651c:	3314      	adds	r3, #20
 800651e:	623b      	str	r3, [r7, #32]
 8006520:	6a3b      	ldr	r3, [r7, #32]
 8006522:	e853 3f00 	ldrex	r3, [r3]
 8006526:	61fb      	str	r3, [r7, #28]
 8006528:	69fb      	ldr	r3, [r7, #28]
 800652a:	f023 0301 	bic.w	r3, r3, #1
 800652e:	64bb      	str	r3, [r7, #72]	@ 0x48
 8006530:	687b      	ldr	r3, [r7, #4]
 8006532:	681b      	ldr	r3, [r3, #0]
 8006534:	3314      	adds	r3, #20
 8006536:	6cba      	ldr	r2, [r7, #72]	@ 0x48
 8006538:	62fa      	str	r2, [r7, #44]	@ 0x2c
 800653a:	62bb      	str	r3, [r7, #40]	@ 0x28
 800653c:	6ab9      	ldr	r1, [r7, #40]	@ 0x28
 800653e:	6afa      	ldr	r2, [r7, #44]	@ 0x2c
 8006540:	e841 2300 	strex	r3, r2, [r1]
 8006544:	627b      	str	r3, [r7, #36]	@ 0x24
 8006546:	6a7b      	ldr	r3, [r7, #36]	@ 0x24
 8006548:	2b00      	cmp	r3, #0
 800654a:	d1e5      	bne.n	8006518 <UART_EndRxTransfer+0x3c>
 800654c:	687b      	ldr	r3, [r7, #4]
 800654e:	6b1b      	ldr	r3, [r3, #48]	@ 0x30
 8006550:	2b01      	cmp	r3, #1
 8006552:	d119      	bne.n	8006588 <UART_EndRxTransfer+0xac>
 8006554:	687b      	ldr	r3, [r7, #4]
 8006556:	681b      	ldr	r3, [r3, #0]
 8006558:	330c      	adds	r3, #12
 800655a:	60fb      	str	r3, [r7, #12]
 800655c:	68fb      	ldr	r3, [r7, #12]
 800655e:	e853 3f00 	ldrex	r3, [r3]
 8006562:	60bb      	str	r3, [r7, #8]
 8006564:	68bb      	ldr	r3, [r7, #8]
 8006566:	f023 0310 	bic.w	r3, r3, #16
 800656a:	647b      	str	r3, [r7, #68]	@ 0x44
 800656c:	687b      	ldr	r3, [r7, #4]
 800656e:	681b      	ldr	r3, [r3, #0]
 8006570:	330c      	adds	r3, #12
 8006572:	6c7a      	ldr	r2, [r7, #68]	@ 0x44
 8006574:	61ba      	str	r2, [r7, #24]
 8006576:	617b      	str	r3, [r7, #20]
 8006578:	6979      	ldr	r1, [r7, #20]
 800657a:	69ba      	ldr	r2, [r7, #24]
 800657c:	e841 2300 	strex	r3, r2, [r1]
 8006580:	613b      	str	r3, [r7, #16]
 8006582:	693b      	ldr	r3, [r7, #16]
 8006584:	2b00      	cmp	r3, #0
 8006586:	d1e5      	bne.n	8006554 <UART_EndRxTransfer+0x78>
 8006588:	687b      	ldr	r3, [r7, #4]
 800658a:	2220      	movs	r2, #32
 800658c:	f883 203e 	strb.w	r2, [r3, #62]	@ 0x3e
 8006590:	687b      	ldr	r3, [r7, #4]
 8006592:	2200      	movs	r2, #0
 8006594:	631a      	str	r2, [r3, #48]	@ 0x30
 8006596:	bf00      	nop
 8006598:	3754      	adds	r7, #84	@ 0x54
 800659a:	46bd      	mov	sp, r7
 800659c:	f85d 7b04 	ldr.w	r7, [sp], #4
 80065a0:	4770      	bx	lr

080065a2 <UART_DMAAbortOnError>:
 80065a2:	b580      	push	{r7, lr}
 80065a4:	b084      	sub	sp, #16
 80065a6:	af00      	add	r7, sp, #0
 80065a8:	6078      	str	r0, [r7, #4]
 80065aa:	687b      	ldr	r3, [r7, #4]
 80065ac:	6b9b      	ldr	r3, [r3, #56]	@ 0x38
 80065ae:	60fb      	str	r3, [r7, #12]
 80065b0:	68fb      	ldr	r3, [r7, #12]
 80065b2:	2200      	movs	r2, #0
 80065b4:	85da      	strh	r2, [r3, #46]	@ 0x2e
 80065b6:	68fb      	ldr	r3, [r7, #12]
 80065b8:	2200      	movs	r2, #0
 80065ba:	84da      	strh	r2, [r3, #38]	@ 0x26
 80065bc:	68f8      	ldr	r0, [r7, #12]
 80065be:	f7ff fecf 	bl	8006360 <HAL_UART_ErrorCallback>
 80065c2:	bf00      	nop
 80065c4:	3710      	adds	r7, #16
 80065c6:	46bd      	mov	sp, r7
 80065c8:	bd80      	pop	{r7, pc}

080065ca <UART_Transmit_IT>:
 80065ca:	b480      	push	{r7}
 80065cc:	b085      	sub	sp, #20
 80065ce:	af00      	add	r7, sp, #0
 80065d0:	6078      	str	r0, [r7, #4]
 80065d2:	687b      	ldr	r3, [r7, #4]
 80065d4:	f893 303d 	ldrb.w	r3, [r3, #61]	@ 0x3d
 80065d8:	b2db      	uxtb	r3, r3
 80065da:	2b21      	cmp	r3, #33	@ 0x21
 80065dc:	d13e      	bne.n	800665c <UART_Transmit_IT+0x92>
 80065de:	687b      	ldr	r3, [r7, #4]
 80065e0:	689b      	ldr	r3, [r3, #8]
 80065e2:	f5b3 5f80 	cmp.w	r3, #4096	@ 0x1000
 80065e6:	d114      	bne.n	8006612 <UART_Transmit_IT+0x48>
 80065e8:	687b      	ldr	r3, [r7, #4]
 80065ea:	691b      	ldr	r3, [r3, #16]
 80065ec:	2b00      	cmp	r3, #0
 80065ee:	d110      	bne.n	8006612 <UART_Transmit_IT+0x48>
 80065f0:	687b      	ldr	r3, [r7, #4]
 80065f2:	6a1b      	ldr	r3, [r3, #32]
 80065f4:	60fb      	str	r3, [r7, #12]
 80065f6:	68fb      	ldr	r3, [r7, #12]
 80065f8:	881b      	ldrh	r3, [r3, #0]
 80065fa:	461a      	mov	r2, r3
 80065fc:	687b      	ldr	r3, [r7, #4]
 80065fe:	681b      	ldr	r3, [r3, #0]
 8006600:	f3c2 0208 	ubfx	r2, r2, #0, #9
 8006604:	605a      	str	r2, [r3, #4]
 8006606:	687b      	ldr	r3, [r7, #4]
 8006608:	6a1b      	ldr	r3, [r3, #32]
 800660a:	1c9a      	adds	r2, r3, #2
 800660c:	687b      	ldr	r3, [r7, #4]
 800660e:	621a      	str	r2, [r3, #32]
 8006610:	e008      	b.n	8006624 <UART_Transmit_IT+0x5a>
 8006612:	687b      	ldr	r3, [r7, #4]
 8006614:	6a1b      	ldr	r3, [r3, #32]
 8006616:	1c59      	adds	r1, r3, #1
 8006618:	687a      	ldr	r2, [r7, #4]
 800661a:	6211      	str	r1, [r2, #32]
 800661c:	781a      	ldrb	r2, [r3, #0]
 800661e:	687b      	ldr	r3, [r7, #4]
 8006620:	681b      	ldr	r3, [r3, #0]
 8006622:	605a      	str	r2, [r3, #4]
 8006624:	687b      	ldr	r3, [r7, #4]
 8006626:	8cdb      	ldrh	r3, [r3, #38]	@ 0x26
 8006628:	b29b      	uxth	r3, r3
 800662a:	3b01      	subs	r3, #1
 800662c:	b29b      	uxth	r3, r3
 800662e:	687a      	ldr	r2, [r7, #4]
 8006630:	4619      	mov	r1, r3
 8006632:	84d1      	strh	r1, [r2, #38]	@ 0x26
 8006634:	2b00      	cmp	r3, #0
 8006636:	d10f      	bne.n	8006658 <UART_Transmit_IT+0x8e>
 8006638:	687b      	ldr	r3, [r7, #4]
 800663a:	681b      	ldr	r3, [r3, #0]
 800663c:	68da      	ldr	r2, [r3, #12]
 800663e:	687b      	ldr	r3, [r7, #4]
 8006640:	681b      	ldr	r3, [r3, #0]
 8006642:	f022 0280 	bic.w	r2, r2, #128	@ 0x80
 8006646:	60da      	str	r2, [r3, #12]
 8006648:	687b      	ldr	r3, [r7, #4]
 800664a:	681b      	ldr	r3, [r3, #0]
 800664c:	68da      	ldr	r2, [r3, #12]
 800664e:	687b      	ldr	r3, [r7, #4]
 8006650:	681b      	ldr	r3, [r3, #0]
 8006652:	f042 0240 	orr.w	r2, r2, #64	@ 0x40
 8006656:	60da      	str	r2, [r3, #12]
 8006658:	2300      	movs	r3, #0
 800665a:	e000      	b.n	800665e <UART_Transmit_IT+0x94>
 800665c:	2302      	movs	r3, #2
 800665e:	4618      	mov	r0, r3
 8006660:	3714      	adds	r7, #20
 8006662:	46bd      	mov	sp, r7
 8006664:	f85d 7b04 	ldr.w	r7, [sp], #4
 8006668:	4770      	bx	lr

0800666a <UART_EndTransmit_IT>:
 800666a:	b580      	push	{r7, lr}
 800666c:	b082      	sub	sp, #8
 800666e:	af00      	add	r7, sp, #0
 8006670:	6078      	str	r0, [r7, #4]
 8006672:	687b      	ldr	r3, [r7, #4]
 8006674:	681b      	ldr	r3, [r3, #0]
 8006676:	68da      	ldr	r2, [r3, #12]
 8006678:	687b      	ldr	r3, [r7, #4]
 800667a:	681b      	ldr	r3, [r3, #0]
 800667c:	f022 0240 	bic.w	r2, r2, #64	@ 0x40
 8006680:	60da      	str	r2, [r3, #12]
 8006682:	687b      	ldr	r3, [r7, #4]
 8006684:	2220      	movs	r2, #32
 8006686:	f883 203d 	strb.w	r2, [r3, #61]	@ 0x3d
 800668a:	6878      	ldr	r0, [r7, #4]
 800668c:	f7ff fe5e 	bl	800634c <HAL_UART_TxCpltCallback>
 8006690:	2300      	movs	r3, #0
 8006692:	4618      	mov	r0, r3
 8006694:	3708      	adds	r7, #8
 8006696:	46bd      	mov	sp, r7
 8006698:	bd80      	pop	{r7, pc}

0800669a <UART_Receive_IT>:
 800669a:	b580      	push	{r7, lr}
 800669c:	b08c      	sub	sp, #48	@ 0x30
 800669e:	af00      	add	r7, sp, #0
 80066a0:	6078      	str	r0, [r7, #4]
 80066a2:	687b      	ldr	r3, [r7, #4]
 80066a4:	f893 303e 	ldrb.w	r3, [r3, #62]	@ 0x3e
 80066a8:	b2db      	uxtb	r3, r3
 80066aa:	2b22      	cmp	r3, #34	@ 0x22
 80066ac:	f040 80ab 	bne.w	8006806 <UART_Receive_IT+0x16c>
 80066b0:	687b      	ldr	r3, [r7, #4]
 80066b2:	689b      	ldr	r3, [r3, #8]
 80066b4:	f5b3 5f80 	cmp.w	r3, #4096	@ 0x1000
 80066b8:	d117      	bne.n	80066ea <UART_Receive_IT+0x50>
 80066ba:	687b      	ldr	r3, [r7, #4]
 80066bc:	691b      	ldr	r3, [r3, #16]
 80066be:	2b00      	cmp	r3, #0
 80066c0:	d113      	bne.n	80066ea <UART_Receive_IT+0x50>
 80066c2:	2300      	movs	r3, #0
 80066c4:	62fb      	str	r3, [r7, #44]	@ 0x2c
 80066c6:	687b      	ldr	r3, [r7, #4]
 80066c8:	6a9b      	ldr	r3, [r3, #40]	@ 0x28
 80066ca:	62bb      	str	r3, [r7, #40]	@ 0x28
 80066cc:	687b      	ldr	r3, [r7, #4]
 80066ce:	681b      	ldr	r3, [r3, #0]
 80066d0:	685b      	ldr	r3, [r3, #4]
 80066d2:	b29b      	uxth	r3, r3
 80066d4:	f3c3 0308 	ubfx	r3, r3, #0, #9
 80066d8:	b29a      	uxth	r2, r3
 80066da:	6abb      	ldr	r3, [r7, #40]	@ 0x28
 80066dc:	801a      	strh	r2, [r3, #0]
 80066de:	687b      	ldr	r3, [r7, #4]
 80066e0:	6a9b      	ldr	r3, [r3, #40]	@ 0x28
 80066e2:	1c9a      	adds	r2, r3, #2
 80066e4:	687b      	ldr	r3, [r7, #4]
 80066e6:	629a      	str	r2, [r3, #40]	@ 0x28
 80066e8:	e026      	b.n	8006738 <UART_Receive_IT+0x9e>
 80066ea:	687b      	ldr	r3, [r7, #4]
 80066ec:	6a9b      	ldr	r3, [r3, #40]	@ 0x28
 80066ee:	62fb      	str	r3, [r7, #44]	@ 0x2c
 80066f0:	2300      	movs	r3, #0
 80066f2:	62bb      	str	r3, [r7, #40]	@ 0x28
 80066f4:	687b      	ldr	r3, [r7, #4]
 80066f6:	689b      	ldr	r3, [r3, #8]
 80066f8:	f5b3 5f80 	cmp.w	r3, #4096	@ 0x1000
 80066fc:	d007      	beq.n	800670e <UART_Receive_IT+0x74>
 80066fe:	687b      	ldr	r3, [r7, #4]
 8006700:	689b      	ldr	r3, [r3, #8]
 8006702:	2b00      	cmp	r3, #0
 8006704:	d10a      	bne.n	800671c <UART_Receive_IT+0x82>
 8006706:	687b      	ldr	r3, [r7, #4]
 8006708:	691b      	ldr	r3, [r3, #16]
 800670a:	2b00      	cmp	r3, #0
 800670c:	d106      	bne.n	800671c <UART_Receive_IT+0x82>
 800670e:	687b      	ldr	r3, [r7, #4]
 8006710:	681b      	ldr	r3, [r3, #0]
 8006712:	685b      	ldr	r3, [r3, #4]
 8006714:	b2da      	uxtb	r2, r3
 8006716:	6afb      	ldr	r3, [r7, #44]	@ 0x2c
 8006718:	701a      	strb	r2, [r3, #0]
 800671a:	e008      	b.n	800672e <UART_Receive_IT+0x94>
 800671c:	687b      	ldr	r3, [r7, #4]
 800671e:	681b      	ldr	r3, [r3, #0]
 8006720:	685b      	ldr	r3, [r3, #4]
 8006722:	b2db      	uxtb	r3, r3
 8006724:	f003 037f 	and.w	r3, r3, #127	@ 0x7f
 8006728:	b2da      	uxtb	r2, r3
 800672a:	6afb      	ldr	r3, [r7, #44]	@ 0x2c
 800672c:	701a      	strb	r2, [r3, #0]
 800672e:	687b      	ldr	r3, [r7, #4]
 8006730:	6a9b      	ldr	r3, [r3, #40]	@ 0x28
 8006732:	1c5a      	adds	r2, r3, #1
 8006734:	687b      	ldr	r3, [r7, #4]
 8006736:	629a      	str	r2, [r3, #40]	@ 0x28
 8006738:	687b      	ldr	r3, [r7, #4]
 800673a:	8ddb      	ldrh	r3, [r3, #46]	@ 0x2e
 800673c:	b29b      	uxth	r3, r3
 800673e:	3b01      	subs	r3, #1
 8006740:	b29b      	uxth	r3, r3
 8006742:	687a      	ldr	r2, [r7, #4]
 8006744:	4619      	mov	r1, r3
 8006746:	85d1      	strh	r1, [r2, #46]	@ 0x2e
 8006748:	2b00      	cmp	r3, #0
 800674a:	d15a      	bne.n	8006802 <UART_Receive_IT+0x168>
 800674c:	687b      	ldr	r3, [r7, #4]
 800674e:	681b      	ldr	r3, [r3, #0]
 8006750:	68da      	ldr	r2, [r3, #12]
 8006752:	687b      	ldr	r3, [r7, #4]
 8006754:	681b      	ldr	r3, [r3, #0]
 8006756:	f022 0220 	bic.w	r2, r2, #32
 800675a:	60da      	str	r2, [r3, #12]
 800675c:	687b      	ldr	r3, [r7, #4]
 800675e:	681b      	ldr	r3, [r3, #0]
 8006760:	68da      	ldr	r2, [r3, #12]
 8006762:	687b      	ldr	r3, [r7, #4]
 8006764:	681b      	ldr	r3, [r3, #0]
 8006766:	f422 7280 	bic.w	r2, r2, #256	@ 0x100
 800676a:	60da      	str	r2, [r3, #12]
 800676c:	687b      	ldr	r3, [r7, #4]
 800676e:	681b      	ldr	r3, [r3, #0]
 8006770:	695a      	ldr	r2, [r3, #20]
 8006772:	687b      	ldr	r3, [r7, #4]
 8006774:	681b      	ldr	r3, [r3, #0]
 8006776:	f022 0201 	bic.w	r2, r2, #1
 800677a:	615a      	str	r2, [r3, #20]
 800677c:	687b      	ldr	r3, [r7, #4]
 800677e:	2220      	movs	r2, #32
 8006780:	f883 203e 	strb.w	r2, [r3, #62]	@ 0x3e
 8006784:	687b      	ldr	r3, [r7, #4]
 8006786:	6b1b      	ldr	r3, [r3, #48]	@ 0x30
 8006788:	2b01      	cmp	r3, #1
 800678a:	d135      	bne.n	80067f8 <UART_Receive_IT+0x15e>
 800678c:	687b      	ldr	r3, [r7, #4]
 800678e:	2200      	movs	r2, #0
 8006790:	631a      	str	r2, [r3, #48]	@ 0x30
 8006792:	687b      	ldr	r3, [r7, #4]
 8006794:	681b      	ldr	r3, [r3, #0]
 8006796:	330c      	adds	r3, #12
 8006798:	617b      	str	r3, [r7, #20]
 800679a:	697b      	ldr	r3, [r7, #20]
 800679c:	e853 3f00 	ldrex	r3, [r3]
 80067a0:	613b      	str	r3, [r7, #16]
 80067a2:	693b      	ldr	r3, [r7, #16]
 80067a4:	f023 0310 	bic.w	r3, r3, #16
 80067a8:	627b      	str	r3, [r7, #36]	@ 0x24
 80067aa:	687b      	ldr	r3, [r7, #4]
 80067ac:	681b      	ldr	r3, [r3, #0]
 80067ae:	330c      	adds	r3, #12
 80067b0:	6a7a      	ldr	r2, [r7, #36]	@ 0x24
 80067b2:	623a      	str	r2, [r7, #32]
 80067b4:	61fb      	str	r3, [r7, #28]
 80067b6:	69f9      	ldr	r1, [r7, #28]
 80067b8:	6a3a      	ldr	r2, [r7, #32]
 80067ba:	e841 2300 	strex	r3, r2, [r1]
 80067be:	61bb      	str	r3, [r7, #24]
 80067c0:	69bb      	ldr	r3, [r7, #24]
 80067c2:	2b00      	cmp	r3, #0
 80067c4:	d1e5      	bne.n	8006792 <UART_Receive_IT+0xf8>
 80067c6:	687b      	ldr	r3, [r7, #4]
 80067c8:	681b      	ldr	r3, [r3, #0]
 80067ca:	681b      	ldr	r3, [r3, #0]
 80067cc:	f003 0310 	and.w	r3, r3, #16
 80067d0:	2b10      	cmp	r3, #16
 80067d2:	d10a      	bne.n	80067ea <UART_Receive_IT+0x150>
 80067d4:	2300      	movs	r3, #0
 80067d6:	60fb      	str	r3, [r7, #12]
 80067d8:	687b      	ldr	r3, [r7, #4]
 80067da:	681b      	ldr	r3, [r3, #0]
 80067dc:	681b      	ldr	r3, [r3, #0]
 80067de:	60fb      	str	r3, [r7, #12]
 80067e0:	687b      	ldr	r3, [r7, #4]
 80067e2:	681b      	ldr	r3, [r3, #0]
 80067e4:	685b      	ldr	r3, [r3, #4]
 80067e6:	60fb      	str	r3, [r7, #12]
 80067e8:	68fb      	ldr	r3, [r7, #12]
 80067ea:	687b      	ldr	r3, [r7, #4]
 80067ec:	8d9b      	ldrh	r3, [r3, #44]	@ 0x2c
 80067ee:	4619      	mov	r1, r3
 80067f0:	6878      	ldr	r0, [r7, #4]
 80067f2:	f7ff fdbf 	bl	8006374 <HAL_UARTEx_RxEventCallback>
 80067f6:	e002      	b.n	80067fe <UART_Receive_IT+0x164>
 80067f8:	6878      	ldr	r0, [r7, #4]
 80067fa:	f7fb fc93 	bl	8002124 <HAL_UART_RxCpltCallback>
 80067fe:	2300      	movs	r3, #0
 8006800:	e002      	b.n	8006808 <UART_Receive_IT+0x16e>
 8006802:	2300      	movs	r3, #0
 8006804:	e000      	b.n	8006808 <UART_Receive_IT+0x16e>
 8006806:	2302      	movs	r3, #2
 8006808:	4618      	mov	r0, r3
 800680a:	3730      	adds	r7, #48	@ 0x30
 800680c:	46bd      	mov	sp, r7
 800680e:	bd80      	pop	{r7, pc}

08006810 <UART_SetConfig>:
 8006810:	e92d 4fb0 	stmdb	sp!, {r4, r5, r7, r8, r9, sl, fp, lr}
 8006814:	b0c0      	sub	sp, #256	@ 0x100
 8006816:	af00      	add	r7, sp, #0
 8006818:	f8c7 00f4 	str.w	r0, [r7, #244]	@ 0xf4
 800681c:	f8d7 30f4 	ldr.w	r3, [r7, #244]	@ 0xf4
 8006820:	681b      	ldr	r3, [r3, #0]
 8006822:	691b      	ldr	r3, [r3, #16]
 8006824:	f423 5040 	bic.w	r0, r3, #12288	@ 0x3000
 8006828:	f8d7 30f4 	ldr.w	r3, [r7, #244]	@ 0xf4
 800682c:	68d9      	ldr	r1, [r3, #12]
 800682e:	f8d7 30f4 	ldr.w	r3, [r7, #244]	@ 0xf4
 8006832:	681a      	ldr	r2, [r3, #0]
 8006834:	ea40 0301 	orr.w	r3, r0, r1
 8006838:	6113      	str	r3, [r2, #16]
 800683a:	f8d7 30f4 	ldr.w	r3, [r7, #244]	@ 0xf4
 800683e:	689a      	ldr	r2, [r3, #8]
 8006840:	f8d7 30f4 	ldr.w	r3, [r7, #244]	@ 0xf4
 8006844:	691b      	ldr	r3, [r3, #16]
 8006846:	431a      	orrs	r2, r3
 8006848:	f8d7 30f4 	ldr.w	r3, [r7, #244]	@ 0xf4
 800684c:	695b      	ldr	r3, [r3, #20]
 800684e:	431a      	orrs	r2, r3
 8006850:	f8d7 30f4 	ldr.w	r3, [r7, #244]	@ 0xf4
 8006854:	69db      	ldr	r3, [r3, #28]
 8006856:	4313      	orrs	r3, r2
 8006858:	f8c7 30f8 	str.w	r3, [r7, #248]	@ 0xf8
 800685c:	f8d7 30f4 	ldr.w	r3, [r7, #244]	@ 0xf4
 8006860:	681b      	ldr	r3, [r3, #0]
 8006862:	68db      	ldr	r3, [r3, #12]
 8006864:	f423 4116 	bic.w	r1, r3, #38400	@ 0x9600
 8006868:	f021 010c 	bic.w	r1, r1, #12
 800686c:	f8d7 30f4 	ldr.w	r3, [r7, #244]	@ 0xf4
 8006870:	681a      	ldr	r2, [r3, #0]
 8006872:	f8d7 30f8 	ldr.w	r3, [r7, #248]	@ 0xf8
 8006876:	430b      	orrs	r3, r1
 8006878:	60d3      	str	r3, [r2, #12]
 800687a:	f8d7 30f4 	ldr.w	r3, [r7, #244]	@ 0xf4
 800687e:	681b      	ldr	r3, [r3, #0]
 8006880:	695b      	ldr	r3, [r3, #20]
 8006882:	f423 7040 	bic.w	r0, r3, #768	@ 0x300
 8006886:	f8d7 30f4 	ldr.w	r3, [r7, #244]	@ 0xf4
 800688a:	6999      	ldr	r1, [r3, #24]
 800688c:	f8d7 30f4 	ldr.w	r3, [r7, #244]	@ 0xf4
 8006890:	681a      	ldr	r2, [r3, #0]
 8006892:	ea40 0301 	orr.w	r3, r0, r1
 8006896:	6153      	str	r3, [r2, #20]
 8006898:	f8d7 30f4 	ldr.w	r3, [r7, #244]	@ 0xf4
 800689c:	681a      	ldr	r2, [r3, #0]
 800689e:	4b8f      	ldr	r3, [pc, #572]	@ (8006adc <UART_SetConfig+0x2cc>)
 80068a0:	429a      	cmp	r2, r3
 80068a2:	d005      	beq.n	80068b0 <UART_SetConfig+0xa0>
 80068a4:	f8d7 30f4 	ldr.w	r3, [r7, #244]	@ 0xf4
 80068a8:	681a      	ldr	r2, [r3, #0]
 80068aa:	4b8d      	ldr	r3, [pc, #564]	@ (8006ae0 <UART_SetConfig+0x2d0>)
 80068ac:	429a      	cmp	r2, r3
 80068ae:	d104      	bne.n	80068ba <UART_SetConfig+0xaa>
 80068b0:	f7fd ff10 	bl	80046d4 <HAL_RCC_GetPCLK2Freq>
 80068b4:	f8c7 00fc 	str.w	r0, [r7, #252]	@ 0xfc
 80068b8:	e003      	b.n	80068c2 <UART_SetConfig+0xb2>
 80068ba:	f7fd fef7 	bl	80046ac <HAL_RCC_GetPCLK1Freq>
 80068be:	f8c7 00fc 	str.w	r0, [r7, #252]	@ 0xfc
 80068c2:	f8d7 30f4 	ldr.w	r3, [r7, #244]	@ 0xf4
 80068c6:	69db      	ldr	r3, [r3, #28]
 80068c8:	f5b3 4f00 	cmp.w	r3, #32768	@ 0x8000
 80068cc:	f040 810c 	bne.w	8006ae8 <UART_SetConfig+0x2d8>
 80068d0:	f8d7 30fc 	ldr.w	r3, [r7, #252]	@ 0xfc
 80068d4:	2200      	movs	r2, #0
 80068d6:	f8c7 30e8 	str.w	r3, [r7, #232]	@ 0xe8
 80068da:	f8c7 20ec 	str.w	r2, [r7, #236]	@ 0xec
 80068de:	e9d7 453a 	ldrd	r4, r5, [r7, #232]	@ 0xe8
 80068e2:	4622      	mov	r2, r4
 80068e4:	462b      	mov	r3, r5
 80068e6:	1891      	adds	r1, r2, r2
 80068e8:	65b9      	str	r1, [r7, #88]	@ 0x58
 80068ea:	415b      	adcs	r3, r3
 80068ec:	65fb      	str	r3, [r7, #92]	@ 0x5c
 80068ee:	e9d7 2316 	ldrd	r2, r3, [r7, #88]	@ 0x58
 80068f2:	4621      	mov	r1, r4
 80068f4:	eb12 0801 	adds.w	r8, r2, r1
 80068f8:	4629      	mov	r1, r5
 80068fa:	eb43 0901 	adc.w	r9, r3, r1
 80068fe:	f04f 0200 	mov.w	r2, #0
 8006902:	f04f 0300 	mov.w	r3, #0
 8006906:	ea4f 03c9 	mov.w	r3, r9, lsl #3
 800690a:	ea43 7358 	orr.w	r3, r3, r8, lsr #29
 800690e:	ea4f 02c8 	mov.w	r2, r8, lsl #3
 8006912:	4690      	mov	r8, r2
 8006914:	4699      	mov	r9, r3
 8006916:	4623      	mov	r3, r4
 8006918:	eb18 0303 	adds.w	r3, r8, r3
 800691c:	f8c7 30e0 	str.w	r3, [r7, #224]	@ 0xe0
 8006920:	462b      	mov	r3, r5
 8006922:	eb49 0303 	adc.w	r3, r9, r3
 8006926:	f8c7 30e4 	str.w	r3, [r7, #228]	@ 0xe4
 800692a:	f8d7 30f4 	ldr.w	r3, [r7, #244]	@ 0xf4
 800692e:	685b      	ldr	r3, [r3, #4]
 8006930:	2200      	movs	r2, #0
 8006932:	f8c7 30d8 	str.w	r3, [r7, #216]	@ 0xd8
 8006936:	f8c7 20dc 	str.w	r2, [r7, #220]	@ 0xdc
 800693a:	e9d7 1236 	ldrd	r1, r2, [r7, #216]	@ 0xd8
 800693e:	460b      	mov	r3, r1
 8006940:	18db      	adds	r3, r3, r3
 8006942:	653b      	str	r3, [r7, #80]	@ 0x50
 8006944:	4613      	mov	r3, r2
 8006946:	eb42 0303 	adc.w	r3, r2, r3
 800694a:	657b      	str	r3, [r7, #84]	@ 0x54
 800694c:	e9d7 2314 	ldrd	r2, r3, [r7, #80]	@ 0x50
 8006950:	e9d7 0138 	ldrd	r0, r1, [r7, #224]	@ 0xe0
 8006954:	f7f9 fc94 	bl	8000280 <__aeabi_uldivmod>
 8006958:	4602      	mov	r2, r0
 800695a:	460b      	mov	r3, r1
 800695c:	4b61      	ldr	r3, [pc, #388]	@ (8006ae4 <UART_SetConfig+0x2d4>)
 800695e:	fba3 2302 	umull	r2, r3, r3, r2
 8006962:	095b      	lsrs	r3, r3, #5
 8006964:	011c      	lsls	r4, r3, #4
 8006966:	f8d7 30fc 	ldr.w	r3, [r7, #252]	@ 0xfc
 800696a:	2200      	movs	r2, #0
 800696c:	f8c7 30d0 	str.w	r3, [r7, #208]	@ 0xd0
 8006970:	f8c7 20d4 	str.w	r2, [r7, #212]	@ 0xd4
 8006974:	e9d7 8934 	ldrd	r8, r9, [r7, #208]	@ 0xd0
 8006978:	4642      	mov	r2, r8
 800697a:	464b      	mov	r3, r9
 800697c:	1891      	adds	r1, r2, r2
 800697e:	64b9      	str	r1, [r7, #72]	@ 0x48
 8006980:	415b      	adcs	r3, r3
 8006982:	64fb      	str	r3, [r7, #76]	@ 0x4c
 8006984:	e9d7 2312 	ldrd	r2, r3, [r7, #72]	@ 0x48
 8006988:	4641      	mov	r1, r8
 800698a:	eb12 0a01 	adds.w	sl, r2, r1
 800698e:	4649      	mov	r1, r9
 8006990:	eb43 0b01 	adc.w	fp, r3, r1
 8006994:	f04f 0200 	mov.w	r2, #0
 8006998:	f04f 0300 	mov.w	r3, #0
 800699c:	ea4f 03cb 	mov.w	r3, fp, lsl #3
 80069a0:	ea43 735a 	orr.w	r3, r3, sl, lsr #29
 80069a4:	ea4f 02ca 	mov.w	r2, sl, lsl #3
 80069a8:	4692      	mov	sl, r2
 80069aa:	469b      	mov	fp, r3
 80069ac:	4643      	mov	r3, r8
 80069ae:	eb1a 0303 	adds.w	r3, sl, r3
 80069b2:	f8c7 30c8 	str.w	r3, [r7, #200]	@ 0xc8
 80069b6:	464b      	mov	r3, r9
 80069b8:	eb4b 0303 	adc.w	r3, fp, r3
 80069bc:	f8c7 30cc 	str.w	r3, [r7, #204]	@ 0xcc
 80069c0:	f8d7 30f4 	ldr.w	r3, [r7, #244]	@ 0xf4
 80069c4:	685b      	ldr	r3, [r3, #4]
 80069c6:	2200      	movs	r2, #0
 80069c8:	f8c7 30c0 	str.w	r3, [r7, #192]	@ 0xc0
 80069cc:	f8c7 20c4 	str.w	r2, [r7, #196]	@ 0xc4
 80069d0:	e9d7 1230 	ldrd	r1, r2, [r7, #192]	@ 0xc0
 80069d4:	460b      	mov	r3, r1
 80069d6:	18db      	adds	r3, r3, r3
 80069d8:	643b      	str	r3, [r7, #64]	@ 0x40
 80069da:	4613      	mov	r3, r2
 80069dc:	eb42 0303 	adc.w	r3, r2, r3
 80069e0:	647b      	str	r3, [r7, #68]	@ 0x44
 80069e2:	e9d7 2310 	ldrd	r2, r3, [r7, #64]	@ 0x40
 80069e6:	e9d7 0132 	ldrd	r0, r1, [r7, #200]	@ 0xc8
 80069ea:	f7f9 fc49 	bl	8000280 <__aeabi_uldivmod>
 80069ee:	4602      	mov	r2, r0
 80069f0:	460b      	mov	r3, r1
 80069f2:	4611      	mov	r1, r2
 80069f4:	4b3b      	ldr	r3, [pc, #236]	@ (8006ae4 <UART_SetConfig+0x2d4>)
 80069f6:	fba3 2301 	umull	r2, r3, r3, r1
 80069fa:	095b      	lsrs	r3, r3, #5
 80069fc:	2264      	movs	r2, #100	@ 0x64
 80069fe:	fb02 f303 	mul.w	r3, r2, r3
 8006a02:	1acb      	subs	r3, r1, r3
 8006a04:	00db      	lsls	r3, r3, #3
 8006a06:	f103 0232 	add.w	r2, r3, #50	@ 0x32
 8006a0a:	4b36      	ldr	r3, [pc, #216]	@ (8006ae4 <UART_SetConfig+0x2d4>)
 8006a0c:	fba3 2302 	umull	r2, r3, r3, r2
 8006a10:	095b      	lsrs	r3, r3, #5
 8006a12:	005b      	lsls	r3, r3, #1
 8006a14:	f403 73f8 	and.w	r3, r3, #496	@ 0x1f0
 8006a18:	441c      	add	r4, r3
 8006a1a:	f8d7 30fc 	ldr.w	r3, [r7, #252]	@ 0xfc
 8006a1e:	2200      	movs	r2, #0
 8006a20:	f8c7 30b8 	str.w	r3, [r7, #184]	@ 0xb8
 8006a24:	f8c7 20bc 	str.w	r2, [r7, #188]	@ 0xbc
 8006a28:	e9d7 892e 	ldrd	r8, r9, [r7, #184]	@ 0xb8
 8006a2c:	4642      	mov	r2, r8
 8006a2e:	464b      	mov	r3, r9
 8006a30:	1891      	adds	r1, r2, r2
 8006a32:	63b9      	str	r1, [r7, #56]	@ 0x38
 8006a34:	415b      	adcs	r3, r3
 8006a36:	63fb      	str	r3, [r7, #60]	@ 0x3c
 8006a38:	e9d7 230e 	ldrd	r2, r3, [r7, #56]	@ 0x38
 8006a3c:	4641      	mov	r1, r8
 8006a3e:	1851      	adds	r1, r2, r1
 8006a40:	6339      	str	r1, [r7, #48]	@ 0x30
 8006a42:	4649      	mov	r1, r9
 8006a44:	414b      	adcs	r3, r1
 8006a46:	637b      	str	r3, [r7, #52]	@ 0x34
 8006a48:	f04f 0200 	mov.w	r2, #0
 8006a4c:	f04f 0300 	mov.w	r3, #0
 8006a50:	e9d7 ab0c 	ldrd	sl, fp, [r7, #48]	@ 0x30
 8006a54:	4659      	mov	r1, fp
 8006a56:	00cb      	lsls	r3, r1, #3
 8006a58:	4651      	mov	r1, sl
 8006a5a:	ea43 7351 	orr.w	r3, r3, r1, lsr #29
 8006a5e:	4651      	mov	r1, sl
 8006a60:	00ca      	lsls	r2, r1, #3
 8006a62:	4610      	mov	r0, r2
 8006a64:	4619      	mov	r1, r3
 8006a66:	4603      	mov	r3, r0
 8006a68:	4642      	mov	r2, r8
 8006a6a:	189b      	adds	r3, r3, r2
 8006a6c:	f8c7 30b0 	str.w	r3, [r7, #176]	@ 0xb0
 8006a70:	464b      	mov	r3, r9
 8006a72:	460a      	mov	r2, r1
 8006a74:	eb42 0303 	adc.w	r3, r2, r3
 8006a78:	f8c7 30b4 	str.w	r3, [r7, #180]	@ 0xb4
 8006a7c:	f8d7 30f4 	ldr.w	r3, [r7, #244]	@ 0xf4
 8006a80:	685b      	ldr	r3, [r3, #4]
 8006a82:	2200      	movs	r2, #0
 8006a84:	f8c7 30a8 	str.w	r3, [r7, #168]	@ 0xa8
 8006a88:	f8c7 20ac 	str.w	r2, [r7, #172]	@ 0xac
 8006a8c:	e9d7 122a 	ldrd	r1, r2, [r7, #168]	@ 0xa8
 8006a90:	460b      	mov	r3, r1
 8006a92:	18db      	adds	r3, r3, r3
 8006a94:	62bb      	str	r3, [r7, #40]	@ 0x28
 8006a96:	4613      	mov	r3, r2
 8006a98:	eb42 0303 	adc.w	r3, r2, r3
 8006a9c:	62fb      	str	r3, [r7, #44]	@ 0x2c
 8006a9e:	e9d7 230a 	ldrd	r2, r3, [r7, #40]	@ 0x28
 8006aa2:	e9d7 012c 	ldrd	r0, r1, [r7, #176]	@ 0xb0
 8006aa6:	f7f9 fbeb 	bl	8000280 <__aeabi_uldivmod>
 8006aaa:	4602      	mov	r2, r0
 8006aac:	460b      	mov	r3, r1
 8006aae:	4b0d      	ldr	r3, [pc, #52]	@ (8006ae4 <UART_SetConfig+0x2d4>)
 8006ab0:	fba3 1302 	umull	r1, r3, r3, r2
 8006ab4:	095b      	lsrs	r3, r3, #5
 8006ab6:	2164      	movs	r1, #100	@ 0x64
 8006ab8:	fb01 f303 	mul.w	r3, r1, r3
 8006abc:	1ad3      	subs	r3, r2, r3
 8006abe:	00db      	lsls	r3, r3, #3
 8006ac0:	3332      	adds	r3, #50	@ 0x32
 8006ac2:	4a08      	ldr	r2, [pc, #32]	@ (8006ae4 <UART_SetConfig+0x2d4>)
 8006ac4:	fba2 2303 	umull	r2, r3, r2, r3
 8006ac8:	095b      	lsrs	r3, r3, #5
 8006aca:	f003 0207 	and.w	r2, r3, #7
 8006ace:	f8d7 30f4 	ldr.w	r3, [r7, #244]	@ 0xf4
 8006ad2:	681b      	ldr	r3, [r3, #0]
 8006ad4:	4422      	add	r2, r4
 8006ad6:	609a      	str	r2, [r3, #8]
 8006ad8:	e106      	b.n	8006ce8 <UART_SetConfig+0x4d8>
 8006ada:	bf00      	nop
 8006adc:	40011000 	.word	0x40011000
 8006ae0:	40011400 	.word	0x40011400
 8006ae4:	51eb851f 	.word	0x51eb851f
 8006ae8:	f8d7 30fc 	ldr.w	r3, [r7, #252]	@ 0xfc
 8006aec:	2200      	movs	r2, #0
 8006aee:	f8c7 30a0 	str.w	r3, [r7, #160]	@ 0xa0
 8006af2:	f8c7 20a4 	str.w	r2, [r7, #164]	@ 0xa4
 8006af6:	e9d7 8928 	ldrd	r8, r9, [r7, #160]	@ 0xa0
 8006afa:	4642      	mov	r2, r8
 8006afc:	464b      	mov	r3, r9
 8006afe:	1891      	adds	r1, r2, r2
 8006b00:	6239      	str	r1, [r7, #32]
 8006b02:	415b      	adcs	r3, r3
 8006b04:	627b      	str	r3, [r7, #36]	@ 0x24
 8006b06:	e9d7 2308 	ldrd	r2, r3, [r7, #32]
 8006b0a:	4641      	mov	r1, r8
 8006b0c:	1854      	adds	r4, r2, r1
 8006b0e:	4649      	mov	r1, r9
 8006b10:	eb43 0501 	adc.w	r5, r3, r1
 8006b14:	f04f 0200 	mov.w	r2, #0
 8006b18:	f04f 0300 	mov.w	r3, #0
 8006b1c:	00eb      	lsls	r3, r5, #3
 8006b1e:	ea43 7354 	orr.w	r3, r3, r4, lsr #29
 8006b22:	00e2      	lsls	r2, r4, #3
 8006b24:	4614      	mov	r4, r2
 8006b26:	461d      	mov	r5, r3
 8006b28:	4643      	mov	r3, r8
 8006b2a:	18e3      	adds	r3, r4, r3
 8006b2c:	f8c7 3098 	str.w	r3, [r7, #152]	@ 0x98
 8006b30:	464b      	mov	r3, r9
 8006b32:	eb45 0303 	adc.w	r3, r5, r3
 8006b36:	f8c7 309c 	str.w	r3, [r7, #156]	@ 0x9c
 8006b3a:	f8d7 30f4 	ldr.w	r3, [r7, #244]	@ 0xf4
 8006b3e:	685b      	ldr	r3, [r3, #4]
 8006b40:	2200      	movs	r2, #0
 8006b42:	f8c7 3090 	str.w	r3, [r7, #144]	@ 0x90
 8006b46:	f8c7 2094 	str.w	r2, [r7, #148]	@ 0x94
 8006b4a:	f04f 0200 	mov.w	r2, #0
 8006b4e:	f04f 0300 	mov.w	r3, #0
 8006b52:	e9d7 4524 	ldrd	r4, r5, [r7, #144]	@ 0x90
 8006b56:	4629      	mov	r1, r5
 8006b58:	008b      	lsls	r3, r1, #2
 8006b5a:	4621      	mov	r1, r4
 8006b5c:	ea43 7391 	orr.w	r3, r3, r1, lsr #30
 8006b60:	4621      	mov	r1, r4
 8006b62:	008a      	lsls	r2, r1, #2
 8006b64:	e9d7 0126 	ldrd	r0, r1, [r7, #152]	@ 0x98
 8006b68:	f7f9 fb8a 	bl	8000280 <__aeabi_uldivmod>
 8006b6c:	4602      	mov	r2, r0
 8006b6e:	460b      	mov	r3, r1
 8006b70:	4b60      	ldr	r3, [pc, #384]	@ (8006cf4 <UART_SetConfig+0x4e4>)
 8006b72:	fba3 2302 	umull	r2, r3, r3, r2
 8006b76:	095b      	lsrs	r3, r3, #5
 8006b78:	011c      	lsls	r4, r3, #4
 8006b7a:	f8d7 30fc 	ldr.w	r3, [r7, #252]	@ 0xfc
 8006b7e:	2200      	movs	r2, #0
 8006b80:	f8c7 3088 	str.w	r3, [r7, #136]	@ 0x88
 8006b84:	f8c7 208c 	str.w	r2, [r7, #140]	@ 0x8c
 8006b88:	e9d7 8922 	ldrd	r8, r9, [r7, #136]	@ 0x88
 8006b8c:	4642      	mov	r2, r8
 8006b8e:	464b      	mov	r3, r9
 8006b90:	1891      	adds	r1, r2, r2
 8006b92:	61b9      	str	r1, [r7, #24]
 8006b94:	415b      	adcs	r3, r3
 8006b96:	61fb      	str	r3, [r7, #28]
 8006b98:	e9d7 2306 	ldrd	r2, r3, [r7, #24]
 8006b9c:	4641      	mov	r1, r8
 8006b9e:	1851      	adds	r1, r2, r1
 8006ba0:	6139      	str	r1, [r7, #16]
 8006ba2:	4649      	mov	r1, r9
 8006ba4:	414b      	adcs	r3, r1
 8006ba6:	617b      	str	r3, [r7, #20]
 8006ba8:	f04f 0200 	mov.w	r2, #0
 8006bac:	f04f 0300 	mov.w	r3, #0
 8006bb0:	e9d7 ab04 	ldrd	sl, fp, [r7, #16]
 8006bb4:	4659      	mov	r1, fp
 8006bb6:	00cb      	lsls	r3, r1, #3
 8006bb8:	4651      	mov	r1, sl
 8006bba:	ea43 7351 	orr.w	r3, r3, r1, lsr #29
 8006bbe:	4651      	mov	r1, sl
 8006bc0:	00ca      	lsls	r2, r1, #3
 8006bc2:	4610      	mov	r0, r2
 8006bc4:	4619      	mov	r1, r3
 8006bc6:	4603      	mov	r3, r0
 8006bc8:	4642      	mov	r2, r8
 8006bca:	189b      	adds	r3, r3, r2
 8006bcc:	f8c7 3080 	str.w	r3, [r7, #128]	@ 0x80
 8006bd0:	464b      	mov	r3, r9
 8006bd2:	460a      	mov	r2, r1
 8006bd4:	eb42 0303 	adc.w	r3, r2, r3
 8006bd8:	f8c7 3084 	str.w	r3, [r7, #132]	@ 0x84
 8006bdc:	f8d7 30f4 	ldr.w	r3, [r7, #244]	@ 0xf4
 8006be0:	685b      	ldr	r3, [r3, #4]
 8006be2:	2200      	movs	r2, #0
 8006be4:	67bb      	str	r3, [r7, #120]	@ 0x78
 8006be6:	67fa      	str	r2, [r7, #124]	@ 0x7c
 8006be8:	f04f 0200 	mov.w	r2, #0
 8006bec:	f04f 0300 	mov.w	r3, #0
 8006bf0:	e9d7 891e 	ldrd	r8, r9, [r7, #120]	@ 0x78
 8006bf4:	4649      	mov	r1, r9
 8006bf6:	008b      	lsls	r3, r1, #2
 8006bf8:	4641      	mov	r1, r8
 8006bfa:	ea43 7391 	orr.w	r3, r3, r1, lsr #30
 8006bfe:	4641      	mov	r1, r8
 8006c00:	008a      	lsls	r2, r1, #2
 8006c02:	e9d7 0120 	ldrd	r0, r1, [r7, #128]	@ 0x80
 8006c06:	f7f9 fb3b 	bl	8000280 <__aeabi_uldivmod>
 8006c0a:	4602      	mov	r2, r0
 8006c0c:	460b      	mov	r3, r1
 8006c0e:	4611      	mov	r1, r2
 8006c10:	4b38      	ldr	r3, [pc, #224]	@ (8006cf4 <UART_SetConfig+0x4e4>)
 8006c12:	fba3 2301 	umull	r2, r3, r3, r1
 8006c16:	095b      	lsrs	r3, r3, #5
 8006c18:	2264      	movs	r2, #100	@ 0x64
 8006c1a:	fb02 f303 	mul.w	r3, r2, r3
 8006c1e:	1acb      	subs	r3, r1, r3
 8006c20:	011b      	lsls	r3, r3, #4
 8006c22:	3332      	adds	r3, #50	@ 0x32
 8006c24:	4a33      	ldr	r2, [pc, #204]	@ (8006cf4 <UART_SetConfig+0x4e4>)
 8006c26:	fba2 2303 	umull	r2, r3, r2, r3
 8006c2a:	095b      	lsrs	r3, r3, #5
 8006c2c:	f003 03f0 	and.w	r3, r3, #240	@ 0xf0
 8006c30:	441c      	add	r4, r3
 8006c32:	f8d7 30fc 	ldr.w	r3, [r7, #252]	@ 0xfc
 8006c36:	2200      	movs	r2, #0
 8006c38:	673b      	str	r3, [r7, #112]	@ 0x70
 8006c3a:	677a      	str	r2, [r7, #116]	@ 0x74
 8006c3c:	e9d7 891c 	ldrd	r8, r9, [r7, #112]	@ 0x70
 8006c40:	4642      	mov	r2, r8
 8006c42:	464b      	mov	r3, r9
 8006c44:	1891      	adds	r1, r2, r2
 8006c46:	60b9      	str	r1, [r7, #8]
 8006c48:	415b      	adcs	r3, r3
 8006c4a:	60fb      	str	r3, [r7, #12]
 8006c4c:	e9d7 2302 	ldrd	r2, r3, [r7, #8]
 8006c50:	4641      	mov	r1, r8
 8006c52:	1851      	adds	r1, r2, r1
 8006c54:	6039      	str	r1, [r7, #0]
 8006c56:	4649      	mov	r1, r9
 8006c58:	414b      	adcs	r3, r1
 8006c5a:	607b      	str	r3, [r7, #4]
 8006c5c:	f04f 0200 	mov.w	r2, #0
 8006c60:	f04f 0300 	mov.w	r3, #0
 8006c64:	e9d7 ab00 	ldrd	sl, fp, [r7]
 8006c68:	4659      	mov	r1, fp
 8006c6a:	00cb      	lsls	r3, r1, #3
 8006c6c:	4651      	mov	r1, sl
 8006c6e:	ea43 7351 	orr.w	r3, r3, r1, lsr #29
 8006c72:	4651      	mov	r1, sl
 8006c74:	00ca      	lsls	r2, r1, #3
 8006c76:	4610      	mov	r0, r2
 8006c78:	4619      	mov	r1, r3
 8006c7a:	4603      	mov	r3, r0
 8006c7c:	4642      	mov	r2, r8
 8006c7e:	189b      	adds	r3, r3, r2
 8006c80:	66bb      	str	r3, [r7, #104]	@ 0x68
 8006c82:	464b      	mov	r3, r9
 8006c84:	460a      	mov	r2, r1
 8006c86:	eb42 0303 	adc.w	r3, r2, r3
 8006c8a:	66fb      	str	r3, [r7, #108]	@ 0x6c
 8006c8c:	f8d7 30f4 	ldr.w	r3, [r7, #244]	@ 0xf4
 8006c90:	685b      	ldr	r3, [r3, #4]
 8006c92:	2200      	movs	r2, #0
 8006c94:	663b      	str	r3, [r7, #96]	@ 0x60
 8006c96:	667a      	str	r2, [r7, #100]	@ 0x64
 8006c98:	f04f 0200 	mov.w	r2, #0
 8006c9c:	f04f 0300 	mov.w	r3, #0
 8006ca0:	e9d7 8918 	ldrd	r8, r9, [r7, #96]	@ 0x60
 8006ca4:	4649      	mov	r1, r9
 8006ca6:	008b      	lsls	r3, r1, #2
 8006ca8:	4641      	mov	r1, r8
 8006caa:	ea43 7391 	orr.w	r3, r3, r1, lsr #30
 8006cae:	4641      	mov	r1, r8
 8006cb0:	008a      	lsls	r2, r1, #2
 8006cb2:	e9d7 011a 	ldrd	r0, r1, [r7, #104]	@ 0x68
 8006cb6:	f7f9 fae3 	bl	8000280 <__aeabi_uldivmod>
 8006cba:	4602      	mov	r2, r0
 8006cbc:	460b      	mov	r3, r1
 8006cbe:	4b0d      	ldr	r3, [pc, #52]	@ (8006cf4 <UART_SetConfig+0x4e4>)
 8006cc0:	fba3 1302 	umull	r1, r3, r3, r2
 8006cc4:	095b      	lsrs	r3, r3, #5
 8006cc6:	2164      	movs	r1, #100	@ 0x64
 8006cc8:	fb01 f303 	mul.w	r3, r1, r3
 8006ccc:	1ad3      	subs	r3, r2, r3
 8006cce:	011b      	lsls	r3, r3, #4
 8006cd0:	3332      	adds	r3, #50	@ 0x32
 8006cd2:	4a08      	ldr	r2, [pc, #32]	@ (8006cf4 <UART_SetConfig+0x4e4>)
 8006cd4:	fba2 2303 	umull	r2, r3, r2, r3
 8006cd8:	095b      	lsrs	r3, r3, #5
 8006cda:	f003 020f 	and.w	r2, r3, #15
 8006cde:	f8d7 30f4 	ldr.w	r3, [r7, #244]	@ 0xf4
 8006ce2:	681b      	ldr	r3, [r3, #0]
 8006ce4:	4422      	add	r2, r4
 8006ce6:	609a      	str	r2, [r3, #8]
 8006ce8:	bf00      	nop
 8006cea:	f507 7780 	add.w	r7, r7, #256	@ 0x100
 8006cee:	46bd      	mov	sp, r7
 8006cf0:	e8bd 8fb0 	ldmia.w	sp!, {r4, r5, r7, r8, r9, sl, fp, pc}
 8006cf4:	51eb851f 	.word	0x51eb851f

08006cf8 <FSMC_NORSRAM_Init>:
 8006cf8:	b480      	push	{r7}
 8006cfa:	b085      	sub	sp, #20
 8006cfc:	af00      	add	r7, sp, #0
 8006cfe:	6078      	str	r0, [r7, #4]
 8006d00:	6039      	str	r1, [r7, #0]
 8006d02:	2300      	movs	r3, #0
 8006d04:	60fb      	str	r3, [r7, #12]
 8006d06:	683b      	ldr	r3, [r7, #0]
 8006d08:	681a      	ldr	r2, [r3, #0]
 8006d0a:	687b      	ldr	r3, [r7, #4]
 8006d0c:	f853 3022 	ldr.w	r3, [r3, r2, lsl #2]
 8006d10:	60fb      	str	r3, [r7, #12]
 8006d12:	68fa      	ldr	r2, [r7, #12]
 8006d14:	4b20      	ldr	r3, [pc, #128]	@ (8006d98 <FSMC_NORSRAM_Init+0xa0>)
 8006d16:	4013      	ands	r3, r2
 8006d18:	60fb      	str	r3, [r7, #12]
 8006d1a:	683b      	ldr	r3, [r7, #0]
 8006d1c:	685a      	ldr	r2, [r3, #4]
 8006d1e:	683b      	ldr	r3, [r7, #0]
 8006d20:	689b      	ldr	r3, [r3, #8]
 8006d22:	431a      	orrs	r2, r3
 8006d24:	683b      	ldr	r3, [r7, #0]
 8006d26:	68db      	ldr	r3, [r3, #12]
 8006d28:	431a      	orrs	r2, r3
 8006d2a:	683b      	ldr	r3, [r7, #0]
 8006d2c:	691b      	ldr	r3, [r3, #16]
 8006d2e:	431a      	orrs	r2, r3
 8006d30:	683b      	ldr	r3, [r7, #0]
 8006d32:	695b      	ldr	r3, [r3, #20]
 8006d34:	431a      	orrs	r2, r3
 8006d36:	683b      	ldr	r3, [r7, #0]
 8006d38:	699b      	ldr	r3, [r3, #24]
 8006d3a:	431a      	orrs	r2, r3
 8006d3c:	683b      	ldr	r3, [r7, #0]
 8006d3e:	69db      	ldr	r3, [r3, #28]
 8006d40:	431a      	orrs	r2, r3
 8006d42:	683b      	ldr	r3, [r7, #0]
 8006d44:	6a1b      	ldr	r3, [r3, #32]
 8006d46:	431a      	orrs	r2, r3
 8006d48:	683b      	ldr	r3, [r7, #0]
 8006d4a:	6a5b      	ldr	r3, [r3, #36]	@ 0x24
 8006d4c:	431a      	orrs	r2, r3
 8006d4e:	683b      	ldr	r3, [r7, #0]
 8006d50:	6a9b      	ldr	r3, [r3, #40]	@ 0x28
 8006d52:	431a      	orrs	r2, r3
 8006d54:	683b      	ldr	r3, [r7, #0]
 8006d56:	6adb      	ldr	r3, [r3, #44]	@ 0x2c
 8006d58:	431a      	orrs	r2, r3
 8006d5a:	683b      	ldr	r3, [r7, #0]
 8006d5c:	6bdb      	ldr	r3, [r3, #60]	@ 0x3c
 8006d5e:	431a      	orrs	r2, r3
 8006d60:	683b      	ldr	r3, [r7, #0]
 8006d62:	6b1b      	ldr	r3, [r3, #48]	@ 0x30
 8006d64:	4313      	orrs	r3, r2
 8006d66:	68fa      	ldr	r2, [r7, #12]
 8006d68:	4313      	orrs	r3, r2
 8006d6a:	60fb      	str	r3, [r7, #12]
 8006d6c:	683b      	ldr	r3, [r7, #0]
 8006d6e:	689b      	ldr	r3, [r3, #8]
 8006d70:	2b08      	cmp	r3, #8
 8006d72:	d103      	bne.n	8006d7c <FSMC_NORSRAM_Init+0x84>
 8006d74:	68fb      	ldr	r3, [r7, #12]
 8006d76:	f043 0340 	orr.w	r3, r3, #64	@ 0x40
 8006d7a:	60fb      	str	r3, [r7, #12]
 8006d7c:	683b      	ldr	r3, [r7, #0]
 8006d7e:	681a      	ldr	r2, [r3, #0]
 8006d80:	687b      	ldr	r3, [r7, #4]
 8006d82:	68f9      	ldr	r1, [r7, #12]
 8006d84:	f843 1022 	str.w	r1, [r3, r2, lsl #2]
 8006d88:	2300      	movs	r3, #0
 8006d8a:	4618      	mov	r0, r3
 8006d8c:	3714      	adds	r7, #20
 8006d8e:	46bd      	mov	sp, r7
 8006d90:	f85d 7b04 	ldr.w	r7, [sp], #4
 8006d94:	4770      	bx	lr
 8006d96:	bf00      	nop
 8006d98:	fff00080 	.word	0xfff00080

08006d9c <FSMC_NORSRAM_Timing_Init>:
 8006d9c:	b480      	push	{r7}
 8006d9e:	b087      	sub	sp, #28
 8006da0:	af00      	add	r7, sp, #0
 8006da2:	60f8      	str	r0, [r7, #12]
 8006da4:	60b9      	str	r1, [r7, #8]
 8006da6:	607a      	str	r2, [r7, #4]
 8006da8:	2300      	movs	r3, #0
 8006daa:	617b      	str	r3, [r7, #20]
 8006dac:	687b      	ldr	r3, [r7, #4]
 8006dae:	1c5a      	adds	r2, r3, #1
 8006db0:	68fb      	ldr	r3, [r7, #12]
 8006db2:	f853 3022 	ldr.w	r3, [r3, r2, lsl #2]
 8006db6:	617b      	str	r3, [r7, #20]
 8006db8:	697b      	ldr	r3, [r7, #20]
 8006dba:	f003 4340 	and.w	r3, r3, #3221225472	@ 0xc0000000
 8006dbe:	617b      	str	r3, [r7, #20]
 8006dc0:	68bb      	ldr	r3, [r7, #8]
 8006dc2:	681a      	ldr	r2, [r3, #0]
 8006dc4:	68bb      	ldr	r3, [r7, #8]
 8006dc6:	685b      	ldr	r3, [r3, #4]
 8006dc8:	011b      	lsls	r3, r3, #4
 8006dca:	431a      	orrs	r2, r3
 8006dcc:	68bb      	ldr	r3, [r7, #8]
 8006dce:	689b      	ldr	r3, [r3, #8]
 8006dd0:	021b      	lsls	r3, r3, #8
 8006dd2:	431a      	orrs	r2, r3
 8006dd4:	68bb      	ldr	r3, [r7, #8]
 8006dd6:	68db      	ldr	r3, [r3, #12]
 8006dd8:	041b      	lsls	r3, r3, #16
 8006dda:	431a      	orrs	r2, r3
 8006ddc:	68bb      	ldr	r3, [r7, #8]
 8006dde:	691b      	ldr	r3, [r3, #16]
 8006de0:	3b01      	subs	r3, #1
 8006de2:	051b      	lsls	r3, r3, #20
 8006de4:	431a      	orrs	r2, r3
 8006de6:	68bb      	ldr	r3, [r7, #8]
 8006de8:	695b      	ldr	r3, [r3, #20]
 8006dea:	3b02      	subs	r3, #2
 8006dec:	061b      	lsls	r3, r3, #24
 8006dee:	431a      	orrs	r2, r3
 8006df0:	68bb      	ldr	r3, [r7, #8]
 8006df2:	699b      	ldr	r3, [r3, #24]
 8006df4:	4313      	orrs	r3, r2
 8006df6:	697a      	ldr	r2, [r7, #20]
 8006df8:	4313      	orrs	r3, r2
 8006dfa:	617b      	str	r3, [r7, #20]
 8006dfc:	687b      	ldr	r3, [r7, #4]
 8006dfe:	1c5a      	adds	r2, r3, #1
 8006e00:	68fb      	ldr	r3, [r7, #12]
 8006e02:	6979      	ldr	r1, [r7, #20]
 8006e04:	f843 1022 	str.w	r1, [r3, r2, lsl #2]
 8006e08:	2300      	movs	r3, #0
 8006e0a:	4618      	mov	r0, r3
 8006e0c:	371c      	adds	r7, #28
 8006e0e:	46bd      	mov	sp, r7
 8006e10:	f85d 7b04 	ldr.w	r7, [sp], #4
 8006e14:	4770      	bx	lr
	...

08006e18 <FSMC_NORSRAM_Extended_Timing_Init>:
 8006e18:	b480      	push	{r7}
 8006e1a:	b087      	sub	sp, #28
 8006e1c:	af00      	add	r7, sp, #0
 8006e1e:	60f8      	str	r0, [r7, #12]
 8006e20:	60b9      	str	r1, [r7, #8]
 8006e22:	607a      	str	r2, [r7, #4]
 8006e24:	603b      	str	r3, [r7, #0]
 8006e26:	2300      	movs	r3, #0
 8006e28:	617b      	str	r3, [r7, #20]
 8006e2a:	683b      	ldr	r3, [r7, #0]
 8006e2c:	f5b3 4f80 	cmp.w	r3, #16384	@ 0x4000
 8006e30:	d122      	bne.n	8006e78 <FSMC_NORSRAM_Extended_Timing_Init+0x60>
 8006e32:	68fb      	ldr	r3, [r7, #12]
 8006e34:	687a      	ldr	r2, [r7, #4]
 8006e36:	f853 3022 	ldr.w	r3, [r3, r2, lsl #2]
 8006e3a:	617b      	str	r3, [r7, #20]
 8006e3c:	697a      	ldr	r2, [r7, #20]
 8006e3e:	4b15      	ldr	r3, [pc, #84]	@ (8006e94 <FSMC_NORSRAM_Extended_Timing_Init+0x7c>)
 8006e40:	4013      	ands	r3, r2
 8006e42:	617b      	str	r3, [r7, #20]
 8006e44:	68bb      	ldr	r3, [r7, #8]
 8006e46:	681a      	ldr	r2, [r3, #0]
 8006e48:	68bb      	ldr	r3, [r7, #8]
 8006e4a:	685b      	ldr	r3, [r3, #4]
 8006e4c:	011b      	lsls	r3, r3, #4
 8006e4e:	431a      	orrs	r2, r3
 8006e50:	68bb      	ldr	r3, [r7, #8]
 8006e52:	689b      	ldr	r3, [r3, #8]
 8006e54:	021b      	lsls	r3, r3, #8
 8006e56:	431a      	orrs	r2, r3
 8006e58:	68bb      	ldr	r3, [r7, #8]
 8006e5a:	68db      	ldr	r3, [r3, #12]
 8006e5c:	041b      	lsls	r3, r3, #16
 8006e5e:	431a      	orrs	r2, r3
 8006e60:	68bb      	ldr	r3, [r7, #8]
 8006e62:	699b      	ldr	r3, [r3, #24]
 8006e64:	4313      	orrs	r3, r2
 8006e66:	697a      	ldr	r2, [r7, #20]
 8006e68:	4313      	orrs	r3, r2
 8006e6a:	617b      	str	r3, [r7, #20]
 8006e6c:	68fb      	ldr	r3, [r7, #12]
 8006e6e:	687a      	ldr	r2, [r7, #4]
 8006e70:	6979      	ldr	r1, [r7, #20]
 8006e72:	f843 1022 	str.w	r1, [r3, r2, lsl #2]
 8006e76:	e005      	b.n	8006e84 <FSMC_NORSRAM_Extended_Timing_Init+0x6c>
 8006e78:	68fb      	ldr	r3, [r7, #12]
 8006e7a:	687a      	ldr	r2, [r7, #4]
 8006e7c:	f06f 4170 	mvn.w	r1, #4026531840	@ 0xf0000000
 8006e80:	f843 1022 	str.w	r1, [r3, r2, lsl #2]
 8006e84:	2300      	movs	r3, #0
 8006e86:	4618      	mov	r0, r3
 8006e88:	371c      	adds	r7, #28
 8006e8a:	46bd      	mov	sp, r7
 8006e8c:	f85d 7b04 	ldr.w	r7, [sp], #4
 8006e90:	4770      	bx	lr
 8006e92:	bf00      	nop
 8006e94:	cff00000 	.word	0xcff00000

08006e98 <srand>:
 8006e98:	b538      	push	{r3, r4, r5, lr}
 8006e9a:	4b10      	ldr	r3, [pc, #64]	@ (8006edc <srand+0x44>)
 8006e9c:	681d      	ldr	r5, [r3, #0]
 8006e9e:	6b2b      	ldr	r3, [r5, #48]	@ 0x30
 8006ea0:	4604      	mov	r4, r0
 8006ea2:	b9b3      	cbnz	r3, 8006ed2 <srand+0x3a>
 8006ea4:	2018      	movs	r0, #24
 8006ea6:	f000 fad9 	bl	800745c <malloc>
 8006eaa:	4602      	mov	r2, r0
 8006eac:	6328      	str	r0, [r5, #48]	@ 0x30
 8006eae:	b920      	cbnz	r0, 8006eba <srand+0x22>
 8006eb0:	4b0b      	ldr	r3, [pc, #44]	@ (8006ee0 <srand+0x48>)
 8006eb2:	480c      	ldr	r0, [pc, #48]	@ (8006ee4 <srand+0x4c>)
 8006eb4:	2146      	movs	r1, #70	@ 0x46
 8006eb6:	f000 fa69 	bl	800738c <__assert_func>
 8006eba:	490b      	ldr	r1, [pc, #44]	@ (8006ee8 <srand+0x50>)
 8006ebc:	4b0b      	ldr	r3, [pc, #44]	@ (8006eec <srand+0x54>)
 8006ebe:	e9c0 1300 	strd	r1, r3, [r0]
 8006ec2:	4b0b      	ldr	r3, [pc, #44]	@ (8006ef0 <srand+0x58>)
 8006ec4:	6083      	str	r3, [r0, #8]
 8006ec6:	230b      	movs	r3, #11
 8006ec8:	8183      	strh	r3, [r0, #12]
 8006eca:	2100      	movs	r1, #0
 8006ecc:	2001      	movs	r0, #1
 8006ece:	e9c2 0104 	strd	r0, r1, [r2, #16]
 8006ed2:	6b2b      	ldr	r3, [r5, #48]	@ 0x30
 8006ed4:	2200      	movs	r2, #0
 8006ed6:	611c      	str	r4, [r3, #16]
 8006ed8:	615a      	str	r2, [r3, #20]
 8006eda:	bd38      	pop	{r3, r4, r5, pc}
 8006edc:	20000020 	.word	0x20000020
 8006ee0:	0800b2fc 	.word	0x0800b2fc
 8006ee4:	0800b313 	.word	0x0800b313
 8006ee8:	abcd330e 	.word	0xabcd330e
 8006eec:	e66d1234 	.word	0xe66d1234
 8006ef0:	0005deec 	.word	0x0005deec

08006ef4 <rand>:
 8006ef4:	4b16      	ldr	r3, [pc, #88]	@ (8006f50 <rand+0x5c>)
 8006ef6:	b510      	push	{r4, lr}
 8006ef8:	681c      	ldr	r4, [r3, #0]
 8006efa:	6b23      	ldr	r3, [r4, #48]	@ 0x30
 8006efc:	b9b3      	cbnz	r3, 8006f2c <rand+0x38>
 8006efe:	2018      	movs	r0, #24
 8006f00:	f000 faac 	bl	800745c <malloc>
 8006f04:	4602      	mov	r2, r0
 8006f06:	6320      	str	r0, [r4, #48]	@ 0x30
 8006f08:	b920      	cbnz	r0, 8006f14 <rand+0x20>
 8006f0a:	4b12      	ldr	r3, [pc, #72]	@ (8006f54 <rand+0x60>)
 8006f0c:	4812      	ldr	r0, [pc, #72]	@ (8006f58 <rand+0x64>)
 8006f0e:	2152      	movs	r1, #82	@ 0x52
 8006f10:	f000 fa3c 	bl	800738c <__assert_func>
 8006f14:	4911      	ldr	r1, [pc, #68]	@ (8006f5c <rand+0x68>)
 8006f16:	4b12      	ldr	r3, [pc, #72]	@ (8006f60 <rand+0x6c>)
 8006f18:	e9c0 1300 	strd	r1, r3, [r0]
 8006f1c:	4b11      	ldr	r3, [pc, #68]	@ (8006f64 <rand+0x70>)
 8006f1e:	6083      	str	r3, [r0, #8]
 8006f20:	230b      	movs	r3, #11
 8006f22:	8183      	strh	r3, [r0, #12]
 8006f24:	2100      	movs	r1, #0
 8006f26:	2001      	movs	r0, #1
 8006f28:	e9c2 0104 	strd	r0, r1, [r2, #16]
 8006f2c:	6b21      	ldr	r1, [r4, #48]	@ 0x30
 8006f2e:	480e      	ldr	r0, [pc, #56]	@ (8006f68 <rand+0x74>)
 8006f30:	690b      	ldr	r3, [r1, #16]
 8006f32:	694c      	ldr	r4, [r1, #20]
 8006f34:	4a0d      	ldr	r2, [pc, #52]	@ (8006f6c <rand+0x78>)
 8006f36:	4358      	muls	r0, r3
 8006f38:	fb02 0004 	mla	r0, r2, r4, r0
 8006f3c:	fba3 3202 	umull	r3, r2, r3, r2
 8006f40:	3301      	adds	r3, #1
 8006f42:	eb40 0002 	adc.w	r0, r0, r2
 8006f46:	e9c1 3004 	strd	r3, r0, [r1, #16]
 8006f4a:	f020 4000 	bic.w	r0, r0, #2147483648	@ 0x80000000
 8006f4e:	bd10      	pop	{r4, pc}
 8006f50:	20000020 	.word	0x20000020
 8006f54:	0800b2fc 	.word	0x0800b2fc
 8006f58:	0800b313 	.word	0x0800b313
 8006f5c:	abcd330e 	.word	0xabcd330e
 8006f60:	e66d1234 	.word	0xe66d1234
 8006f64:	0005deec 	.word	0x0005deec
 8006f68:	5851f42d 	.word	0x5851f42d
 8006f6c:	4c957f2d 	.word	0x4c957f2d

08006f70 <std>:
 8006f70:	2300      	movs	r3, #0
 8006f72:	b510      	push	{r4, lr}
 8006f74:	4604      	mov	r4, r0
 8006f76:	e9c0 3300 	strd	r3, r3, [r0]
 8006f7a:	e9c0 3304 	strd	r3, r3, [r0, #16]
 8006f7e:	6083      	str	r3, [r0, #8]
 8006f80:	8181      	strh	r1, [r0, #12]
 8006f82:	6643      	str	r3, [r0, #100]	@ 0x64
 8006f84:	81c2      	strh	r2, [r0, #14]
 8006f86:	6183      	str	r3, [r0, #24]
 8006f88:	4619      	mov	r1, r3
 8006f8a:	2208      	movs	r2, #8
 8006f8c:	305c      	adds	r0, #92	@ 0x5c
 8006f8e:	f000 f928 	bl	80071e2 <memset>
 8006f92:	4b0d      	ldr	r3, [pc, #52]	@ (8006fc8 <std+0x58>)
 8006f94:	6263      	str	r3, [r4, #36]	@ 0x24
 8006f96:	4b0d      	ldr	r3, [pc, #52]	@ (8006fcc <std+0x5c>)
 8006f98:	62a3      	str	r3, [r4, #40]	@ 0x28
 8006f9a:	4b0d      	ldr	r3, [pc, #52]	@ (8006fd0 <std+0x60>)
 8006f9c:	62e3      	str	r3, [r4, #44]	@ 0x2c
 8006f9e:	4b0d      	ldr	r3, [pc, #52]	@ (8006fd4 <std+0x64>)
 8006fa0:	6323      	str	r3, [r4, #48]	@ 0x30
 8006fa2:	4b0d      	ldr	r3, [pc, #52]	@ (8006fd8 <std+0x68>)
 8006fa4:	6224      	str	r4, [r4, #32]
 8006fa6:	429c      	cmp	r4, r3
 8006fa8:	d006      	beq.n	8006fb8 <std+0x48>
 8006faa:	f103 0268 	add.w	r2, r3, #104	@ 0x68
 8006fae:	4294      	cmp	r4, r2
 8006fb0:	d002      	beq.n	8006fb8 <std+0x48>
 8006fb2:	33d0      	adds	r3, #208	@ 0xd0
 8006fb4:	429c      	cmp	r4, r3
 8006fb6:	d105      	bne.n	8006fc4 <std+0x54>
 8006fb8:	f104 0058 	add.w	r0, r4, #88	@ 0x58
 8006fbc:	e8bd 4010 	ldmia.w	sp!, {r4, lr}
 8006fc0:	f000 b9d2 	b.w	8007368 <__retarget_lock_init_recursive>
 8006fc4:	bd10      	pop	{r4, pc}
 8006fc6:	bf00      	nop
 8006fc8:	0800715d 	.word	0x0800715d
 8006fcc:	0800717f 	.word	0x0800717f
 8006fd0:	080071b7 	.word	0x080071b7
 8006fd4:	080071db 	.word	0x080071db
 8006fd8:	200003c8 	.word	0x200003c8

08006fdc <stdio_exit_handler>:
 8006fdc:	4a02      	ldr	r2, [pc, #8]	@ (8006fe8 <stdio_exit_handler+0xc>)
 8006fde:	4903      	ldr	r1, [pc, #12]	@ (8006fec <stdio_exit_handler+0x10>)
 8006fe0:	4803      	ldr	r0, [pc, #12]	@ (8006ff0 <stdio_exit_handler+0x14>)
 8006fe2:	f000 b869 	b.w	80070b8 <_fwalk_sglue>
 8006fe6:	bf00      	nop
 8006fe8:	20000014 	.word	0x20000014
 8006fec:	08007c9d 	.word	0x08007c9d
 8006ff0:	20000024 	.word	0x20000024

08006ff4 <cleanup_stdio>:
 8006ff4:	6841      	ldr	r1, [r0, #4]
 8006ff6:	4b0c      	ldr	r3, [pc, #48]	@ (8007028 <cleanup_stdio+0x34>)
 8006ff8:	4299      	cmp	r1, r3
 8006ffa:	b510      	push	{r4, lr}
 8006ffc:	4604      	mov	r4, r0
 8006ffe:	d001      	beq.n	8007004 <cleanup_stdio+0x10>
 8007000:	f000 fe4c 	bl	8007c9c <_fflush_r>
 8007004:	68a1      	ldr	r1, [r4, #8]
 8007006:	4b09      	ldr	r3, [pc, #36]	@ (800702c <cleanup_stdio+0x38>)
 8007008:	4299      	cmp	r1, r3
 800700a:	d002      	beq.n	8007012 <cleanup_stdio+0x1e>
 800700c:	4620      	mov	r0, r4
 800700e:	f000 fe45 	bl	8007c9c <_fflush_r>
 8007012:	68e1      	ldr	r1, [r4, #12]
 8007014:	4b06      	ldr	r3, [pc, #24]	@ (8007030 <cleanup_stdio+0x3c>)
 8007016:	4299      	cmp	r1, r3
 8007018:	d004      	beq.n	8007024 <cleanup_stdio+0x30>
 800701a:	4620      	mov	r0, r4
 800701c:	e8bd 4010 	ldmia.w	sp!, {r4, lr}
 8007020:	f000 be3c 	b.w	8007c9c <_fflush_r>
 8007024:	bd10      	pop	{r4, pc}
 8007026:	bf00      	nop
 8007028:	200003c8 	.word	0x200003c8
 800702c:	20000430 	.word	0x20000430
 8007030:	20000498 	.word	0x20000498

08007034 <global_stdio_init.part.0>:
 8007034:	b510      	push	{r4, lr}
 8007036:	4b0b      	ldr	r3, [pc, #44]	@ (8007064 <global_stdio_init.part.0+0x30>)
 8007038:	4c0b      	ldr	r4, [pc, #44]	@ (8007068 <global_stdio_init.part.0+0x34>)
 800703a:	4a0c      	ldr	r2, [pc, #48]	@ (800706c <global_stdio_init.part.0+0x38>)
 800703c:	601a      	str	r2, [r3, #0]
 800703e:	4620      	mov	r0, r4
 8007040:	2200      	movs	r2, #0
 8007042:	2104      	movs	r1, #4
 8007044:	f7ff ff94 	bl	8006f70 <std>
 8007048:	f104 0068 	add.w	r0, r4, #104	@ 0x68
 800704c:	2201      	movs	r2, #1
 800704e:	2109      	movs	r1, #9
 8007050:	f7ff ff8e 	bl	8006f70 <std>
 8007054:	f104 00d0 	add.w	r0, r4, #208	@ 0xd0
 8007058:	2202      	movs	r2, #2
 800705a:	e8bd 4010 	ldmia.w	sp!, {r4, lr}
 800705e:	2112      	movs	r1, #18
 8007060:	f7ff bf86 	b.w	8006f70 <std>
 8007064:	20000500 	.word	0x20000500
 8007068:	200003c8 	.word	0x200003c8
 800706c:	08006fdd 	.word	0x08006fdd

08007070 <__sfp_lock_acquire>:
 8007070:	4801      	ldr	r0, [pc, #4]	@ (8007078 <__sfp_lock_acquire+0x8>)
 8007072:	f000 b97a 	b.w	800736a <__retarget_lock_acquire_recursive>
 8007076:	bf00      	nop
 8007078:	20000509 	.word	0x20000509

0800707c <__sfp_lock_release>:
 800707c:	4801      	ldr	r0, [pc, #4]	@ (8007084 <__sfp_lock_release+0x8>)
 800707e:	f000 b975 	b.w	800736c <__retarget_lock_release_recursive>
 8007082:	bf00      	nop
 8007084:	20000509 	.word	0x20000509

08007088 <__sinit>:
 8007088:	b510      	push	{r4, lr}
 800708a:	4604      	mov	r4, r0
 800708c:	f7ff fff0 	bl	8007070 <__sfp_lock_acquire>
 8007090:	6a23      	ldr	r3, [r4, #32]
 8007092:	b11b      	cbz	r3, 800709c <__sinit+0x14>
 8007094:	e8bd 4010 	ldmia.w	sp!, {r4, lr}
 8007098:	f7ff bff0 	b.w	800707c <__sfp_lock_release>
 800709c:	4b04      	ldr	r3, [pc, #16]	@ (80070b0 <__sinit+0x28>)
 800709e:	6223      	str	r3, [r4, #32]
 80070a0:	4b04      	ldr	r3, [pc, #16]	@ (80070b4 <__sinit+0x2c>)
 80070a2:	681b      	ldr	r3, [r3, #0]
 80070a4:	2b00      	cmp	r3, #0
 80070a6:	d1f5      	bne.n	8007094 <__sinit+0xc>
 80070a8:	f7ff ffc4 	bl	8007034 <global_stdio_init.part.0>
 80070ac:	e7f2      	b.n	8007094 <__sinit+0xc>
 80070ae:	bf00      	nop
 80070b0:	08006ff5 	.word	0x08006ff5
 80070b4:	20000500 	.word	0x20000500

080070b8 <_fwalk_sglue>:
 80070b8:	e92d 43f8 	stmdb	sp!, {r3, r4, r5, r6, r7, r8, r9, lr}
 80070bc:	4607      	mov	r7, r0
 80070be:	4688      	mov	r8, r1
 80070c0:	4614      	mov	r4, r2
 80070c2:	2600      	movs	r6, #0
 80070c4:	e9d4 9501 	ldrd	r9, r5, [r4, #4]
 80070c8:	f1b9 0901 	subs.w	r9, r9, #1
 80070cc:	d505      	bpl.n	80070da <_fwalk_sglue+0x22>
 80070ce:	6824      	ldr	r4, [r4, #0]
 80070d0:	2c00      	cmp	r4, #0
 80070d2:	d1f7      	bne.n	80070c4 <_fwalk_sglue+0xc>
 80070d4:	4630      	mov	r0, r6
 80070d6:	e8bd 83f8 	ldmia.w	sp!, {r3, r4, r5, r6, r7, r8, r9, pc}
 80070da:	89ab      	ldrh	r3, [r5, #12]
 80070dc:	2b01      	cmp	r3, #1
 80070de:	d907      	bls.n	80070f0 <_fwalk_sglue+0x38>
 80070e0:	f9b5 300e 	ldrsh.w	r3, [r5, #14]
 80070e4:	3301      	adds	r3, #1
 80070e6:	d003      	beq.n	80070f0 <_fwalk_sglue+0x38>
 80070e8:	4629      	mov	r1, r5
 80070ea:	4638      	mov	r0, r7
 80070ec:	47c0      	blx	r8
 80070ee:	4306      	orrs	r6, r0
 80070f0:	3568      	adds	r5, #104	@ 0x68
 80070f2:	e7e9      	b.n	80070c8 <_fwalk_sglue+0x10>

080070f4 <sniprintf>:
 80070f4:	b40c      	push	{r2, r3}
 80070f6:	b530      	push	{r4, r5, lr}
 80070f8:	4b17      	ldr	r3, [pc, #92]	@ (8007158 <sniprintf+0x64>)
 80070fa:	1e0c      	subs	r4, r1, #0
 80070fc:	681d      	ldr	r5, [r3, #0]
 80070fe:	b09d      	sub	sp, #116	@ 0x74
 8007100:	da08      	bge.n	8007114 <sniprintf+0x20>
 8007102:	238b      	movs	r3, #139	@ 0x8b
 8007104:	602b      	str	r3, [r5, #0]
 8007106:	f04f 30ff 	mov.w	r0, #4294967295
 800710a:	b01d      	add	sp, #116	@ 0x74
 800710c:	e8bd 4030 	ldmia.w	sp!, {r4, r5, lr}
 8007110:	b002      	add	sp, #8
 8007112:	4770      	bx	lr
 8007114:	f44f 7302 	mov.w	r3, #520	@ 0x208
 8007118:	f8ad 3014 	strh.w	r3, [sp, #20]
 800711c:	bf14      	ite	ne
 800711e:	f104 33ff 	addne.w	r3, r4, #4294967295
 8007122:	4623      	moveq	r3, r4
 8007124:	9304      	str	r3, [sp, #16]
 8007126:	9307      	str	r3, [sp, #28]
 8007128:	f64f 73ff 	movw	r3, #65535	@ 0xffff
 800712c:	9002      	str	r0, [sp, #8]
 800712e:	9006      	str	r0, [sp, #24]
 8007130:	f8ad 3016 	strh.w	r3, [sp, #22]
 8007134:	9a20      	ldr	r2, [sp, #128]	@ 0x80
 8007136:	ab21      	add	r3, sp, #132	@ 0x84
 8007138:	a902      	add	r1, sp, #8
 800713a:	4628      	mov	r0, r5
 800713c:	9301      	str	r3, [sp, #4]
 800713e:	f000 fa9f 	bl	8007680 <_svfiprintf_r>
 8007142:	1c43      	adds	r3, r0, #1
 8007144:	bfbc      	itt	lt
 8007146:	238b      	movlt	r3, #139	@ 0x8b
 8007148:	602b      	strlt	r3, [r5, #0]
 800714a:	2c00      	cmp	r4, #0
 800714c:	d0dd      	beq.n	800710a <sniprintf+0x16>
 800714e:	9b02      	ldr	r3, [sp, #8]
 8007150:	2200      	movs	r2, #0
 8007152:	701a      	strb	r2, [r3, #0]
 8007154:	e7d9      	b.n	800710a <sniprintf+0x16>
 8007156:	bf00      	nop
 8007158:	20000020 	.word	0x20000020

0800715c <__sread>:
 800715c:	b510      	push	{r4, lr}
 800715e:	460c      	mov	r4, r1
 8007160:	f9b1 100e 	ldrsh.w	r1, [r1, #14]
 8007164:	f000 f8b2 	bl	80072cc <_read_r>
 8007168:	2800      	cmp	r0, #0
 800716a:	bfab      	itete	ge
 800716c:	6d63      	ldrge	r3, [r4, #84]	@ 0x54
 800716e:	89a3      	ldrhlt	r3, [r4, #12]
 8007170:	181b      	addge	r3, r3, r0
 8007172:	f423 5380 	biclt.w	r3, r3, #4096	@ 0x1000
 8007176:	bfac      	ite	ge
 8007178:	6563      	strge	r3, [r4, #84]	@ 0x54
 800717a:	81a3      	strhlt	r3, [r4, #12]
 800717c:	bd10      	pop	{r4, pc}

0800717e <__swrite>:
 800717e:	e92d 41f0 	stmdb	sp!, {r4, r5, r6, r7, r8, lr}
 8007182:	461f      	mov	r7, r3
 8007184:	898b      	ldrh	r3, [r1, #12]
 8007186:	05db      	lsls	r3, r3, #23
 8007188:	4605      	mov	r5, r0
 800718a:	460c      	mov	r4, r1
 800718c:	4616      	mov	r6, r2
 800718e:	d505      	bpl.n	800719c <__swrite+0x1e>
 8007190:	f9b1 100e 	ldrsh.w	r1, [r1, #14]
 8007194:	2302      	movs	r3, #2
 8007196:	2200      	movs	r2, #0
 8007198:	f000 f886 	bl	80072a8 <_lseek_r>
 800719c:	89a3      	ldrh	r3, [r4, #12]
 800719e:	f9b4 100e 	ldrsh.w	r1, [r4, #14]
 80071a2:	f423 5380 	bic.w	r3, r3, #4096	@ 0x1000
 80071a6:	81a3      	strh	r3, [r4, #12]
 80071a8:	4632      	mov	r2, r6
 80071aa:	463b      	mov	r3, r7
 80071ac:	4628      	mov	r0, r5
 80071ae:	e8bd 41f0 	ldmia.w	sp!, {r4, r5, r6, r7, r8, lr}
 80071b2:	f000 b89d 	b.w	80072f0 <_write_r>

080071b6 <__sseek>:
 80071b6:	b510      	push	{r4, lr}
 80071b8:	460c      	mov	r4, r1
 80071ba:	f9b1 100e 	ldrsh.w	r1, [r1, #14]
 80071be:	f000 f873 	bl	80072a8 <_lseek_r>
 80071c2:	1c43      	adds	r3, r0, #1
 80071c4:	89a3      	ldrh	r3, [r4, #12]
 80071c6:	bf15      	itete	ne
 80071c8:	6560      	strne	r0, [r4, #84]	@ 0x54
 80071ca:	f423 5380 	biceq.w	r3, r3, #4096	@ 0x1000
 80071ce:	f443 5380 	orrne.w	r3, r3, #4096	@ 0x1000
 80071d2:	81a3      	strheq	r3, [r4, #12]
 80071d4:	bf18      	it	ne
 80071d6:	81a3      	strhne	r3, [r4, #12]
 80071d8:	bd10      	pop	{r4, pc}

080071da <__sclose>:
 80071da:	f9b1 100e 	ldrsh.w	r1, [r1, #14]
 80071de:	f000 b841 	b.w	8007264 <_close_r>

080071e2 <memset>:
 80071e2:	4402      	add	r2, r0
 80071e4:	4603      	mov	r3, r0
 80071e6:	4293      	cmp	r3, r2
 80071e8:	d100      	bne.n	80071ec <memset+0xa>
 80071ea:	4770      	bx	lr
 80071ec:	f803 1b01 	strb.w	r1, [r3], #1
 80071f0:	e7f9      	b.n	80071e6 <memset+0x4>
	...

080071f4 <strdup>:
 80071f4:	4b02      	ldr	r3, [pc, #8]	@ (8007200 <strdup+0xc>)
 80071f6:	4601      	mov	r1, r0
 80071f8:	6818      	ldr	r0, [r3, #0]
 80071fa:	f000 b803 	b.w	8007204 <_strdup_r>
 80071fe:	bf00      	nop
 8007200:	20000020 	.word	0x20000020

08007204 <_strdup_r>:
 8007204:	b570      	push	{r4, r5, r6, lr}
 8007206:	4604      	mov	r4, r0
 8007208:	4608      	mov	r0, r1
 800720a:	460d      	mov	r5, r1
 800720c:	f7f8 ffe0 	bl	80001d0 <strlen>
 8007210:	1c46      	adds	r6, r0, #1
 8007212:	4631      	mov	r1, r6
 8007214:	4620      	mov	r0, r4
 8007216:	f000 f94b 	bl	80074b0 <_malloc_r>
 800721a:	4604      	mov	r4, r0
 800721c:	b118      	cbz	r0, 8007226 <_strdup_r+0x22>
 800721e:	4632      	mov	r2, r6
 8007220:	4629      	mov	r1, r5
 8007222:	f000 f8a4 	bl	800736e <memcpy>
 8007226:	4620      	mov	r0, r4
 8007228:	bd70      	pop	{r4, r5, r6, pc}
	...

0800722c <time>:
 800722c:	b5df      	push	{r0, r1, r2, r3, r4, r6, r7, lr}
 800722e:	4b0c      	ldr	r3, [pc, #48]	@ (8007260 <time+0x34>)
 8007230:	f04f 36ff 	mov.w	r6, #4294967295
 8007234:	f04f 37ff 	mov.w	r7, #4294967295
 8007238:	4669      	mov	r1, sp
 800723a:	4604      	mov	r4, r0
 800723c:	2200      	movs	r2, #0
 800723e:	6818      	ldr	r0, [r3, #0]
 8007240:	e9cd 6700 	strd	r6, r7, [sp]
 8007244:	f000 f81e 	bl	8007284 <_gettimeofday_r>
 8007248:	2800      	cmp	r0, #0
 800724a:	bfb8      	it	lt
 800724c:	e9cd 6700 	strdlt	r6, r7, [sp]
 8007250:	e9dd 0100 	ldrd	r0, r1, [sp]
 8007254:	b10c      	cbz	r4, 800725a <time+0x2e>
 8007256:	e9c4 0100 	strd	r0, r1, [r4]
 800725a:	b004      	add	sp, #16
 800725c:	bdd0      	pop	{r4, r6, r7, pc}
 800725e:	bf00      	nop
 8007260:	20000020 	.word	0x20000020

08007264 <_close_r>:
 8007264:	b538      	push	{r3, r4, r5, lr}
 8007266:	4d06      	ldr	r5, [pc, #24]	@ (8007280 <_close_r+0x1c>)
 8007268:	2300      	movs	r3, #0
 800726a:	4604      	mov	r4, r0
 800726c:	4608      	mov	r0, r1
 800726e:	602b      	str	r3, [r5, #0]
 8007270:	f7fa fd3e 	bl	8001cf0 <_close>
 8007274:	1c43      	adds	r3, r0, #1
 8007276:	d102      	bne.n	800727e <_close_r+0x1a>
 8007278:	682b      	ldr	r3, [r5, #0]
 800727a:	b103      	cbz	r3, 800727e <_close_r+0x1a>
 800727c:	6023      	str	r3, [r4, #0]
 800727e:	bd38      	pop	{r3, r4, r5, pc}
 8007280:	20000504 	.word	0x20000504

08007284 <_gettimeofday_r>:
 8007284:	b538      	push	{r3, r4, r5, lr}
 8007286:	4d07      	ldr	r5, [pc, #28]	@ (80072a4 <_gettimeofday_r+0x20>)
 8007288:	2300      	movs	r3, #0
 800728a:	4604      	mov	r4, r0
 800728c:	4608      	mov	r0, r1
 800728e:	4611      	mov	r1, r2
 8007290:	602b      	str	r3, [r5, #0]
 8007292:	f001 f841 	bl	8008318 <_gettimeofday>
 8007296:	1c43      	adds	r3, r0, #1
 8007298:	d102      	bne.n	80072a0 <_gettimeofday_r+0x1c>
 800729a:	682b      	ldr	r3, [r5, #0]
 800729c:	b103      	cbz	r3, 80072a0 <_gettimeofday_r+0x1c>
 800729e:	6023      	str	r3, [r4, #0]
 80072a0:	bd38      	pop	{r3, r4, r5, pc}
 80072a2:	bf00      	nop
 80072a4:	20000504 	.word	0x20000504

080072a8 <_lseek_r>:
 80072a8:	b538      	push	{r3, r4, r5, lr}
 80072aa:	4d07      	ldr	r5, [pc, #28]	@ (80072c8 <_lseek_r+0x20>)
 80072ac:	4604      	mov	r4, r0
 80072ae:	4608      	mov	r0, r1
 80072b0:	4611      	mov	r1, r2
 80072b2:	2200      	movs	r2, #0
 80072b4:	602a      	str	r2, [r5, #0]
 80072b6:	461a      	mov	r2, r3
 80072b8:	f7fa fd41 	bl	8001d3e <_lseek>
 80072bc:	1c43      	adds	r3, r0, #1
 80072be:	d102      	bne.n	80072c6 <_lseek_r+0x1e>
 80072c0:	682b      	ldr	r3, [r5, #0]
 80072c2:	b103      	cbz	r3, 80072c6 <_lseek_r+0x1e>
 80072c4:	6023      	str	r3, [r4, #0]
 80072c6:	bd38      	pop	{r3, r4, r5, pc}
 80072c8:	20000504 	.word	0x20000504

080072cc <_read_r>:
 80072cc:	b538      	push	{r3, r4, r5, lr}
 80072ce:	4d07      	ldr	r5, [pc, #28]	@ (80072ec <_read_r+0x20>)
 80072d0:	4604      	mov	r4, r0
 80072d2:	4608      	mov	r0, r1
 80072d4:	4611      	mov	r1, r2
 80072d6:	2200      	movs	r2, #0
 80072d8:	602a      	str	r2, [r5, #0]
 80072da:	461a      	mov	r2, r3
 80072dc:	f7fa fccf 	bl	8001c7e <_read>
 80072e0:	1c43      	adds	r3, r0, #1
 80072e2:	d102      	bne.n	80072ea <_read_r+0x1e>
 80072e4:	682b      	ldr	r3, [r5, #0]
 80072e6:	b103      	cbz	r3, 80072ea <_read_r+0x1e>
 80072e8:	6023      	str	r3, [r4, #0]
 80072ea:	bd38      	pop	{r3, r4, r5, pc}
 80072ec:	20000504 	.word	0x20000504

080072f0 <_write_r>:
 80072f0:	b538      	push	{r3, r4, r5, lr}
 80072f2:	4d07      	ldr	r5, [pc, #28]	@ (8007310 <_write_r+0x20>)
 80072f4:	4604      	mov	r4, r0
 80072f6:	4608      	mov	r0, r1
 80072f8:	4611      	mov	r1, r2
 80072fa:	2200      	movs	r2, #0
 80072fc:	602a      	str	r2, [r5, #0]
 80072fe:	461a      	mov	r2, r3
 8007300:	f7fa fcda 	bl	8001cb8 <_write>
 8007304:	1c43      	adds	r3, r0, #1
 8007306:	d102      	bne.n	800730e <_write_r+0x1e>
 8007308:	682b      	ldr	r3, [r5, #0]
 800730a:	b103      	cbz	r3, 800730e <_write_r+0x1e>
 800730c:	6023      	str	r3, [r4, #0]
 800730e:	bd38      	pop	{r3, r4, r5, pc}
 8007310:	20000504 	.word	0x20000504

08007314 <__errno>:
 8007314:	4b01      	ldr	r3, [pc, #4]	@ (800731c <__errno+0x8>)
 8007316:	6818      	ldr	r0, [r3, #0]
 8007318:	4770      	bx	lr
 800731a:	bf00      	nop
 800731c:	20000020 	.word	0x20000020

08007320 <__libc_init_array>:
 8007320:	b570      	push	{r4, r5, r6, lr}
 8007322:	4d0d      	ldr	r5, [pc, #52]	@ (8007358 <__libc_init_array+0x38>)
 8007324:	4c0d      	ldr	r4, [pc, #52]	@ (800735c <__libc_init_array+0x3c>)
 8007326:	1b64      	subs	r4, r4, r5
 8007328:	10a4      	asrs	r4, r4, #2
 800732a:	2600      	movs	r6, #0
 800732c:	42a6      	cmp	r6, r4
 800732e:	d109      	bne.n	8007344 <__libc_init_array+0x24>
 8007330:	4d0b      	ldr	r5, [pc, #44]	@ (8007360 <__libc_init_array+0x40>)
 8007332:	4c0c      	ldr	r4, [pc, #48]	@ (8007364 <__libc_init_array+0x44>)
 8007334:	f000 fff8 	bl	8008328 <_init>
 8007338:	1b64      	subs	r4, r4, r5
 800733a:	10a4      	asrs	r4, r4, #2
 800733c:	2600      	movs	r6, #0
 800733e:	42a6      	cmp	r6, r4
 8007340:	d105      	bne.n	800734e <__libc_init_array+0x2e>
 8007342:	bd70      	pop	{r4, r5, r6, pc}
 8007344:	f855 3b04 	ldr.w	r3, [r5], #4
 8007348:	4798      	blx	r3
 800734a:	3601      	adds	r6, #1
 800734c:	e7ee      	b.n	800732c <__libc_init_array+0xc>
 800734e:	f855 3b04 	ldr.w	r3, [r5], #4
 8007352:	4798      	blx	r3
 8007354:	3601      	adds	r6, #1
 8007356:	e7f2      	b.n	800733e <__libc_init_array+0x1e>
 8007358:	0800b3e4 	.word	0x0800b3e4
 800735c:	0800b3e4 	.word	0x0800b3e4
 8007360:	0800b3e4 	.word	0x0800b3e4
 8007364:	0800b3e8 	.word	0x0800b3e8

08007368 <__retarget_lock_init_recursive>:
 8007368:	4770      	bx	lr

0800736a <__retarget_lock_acquire_recursive>:
 800736a:	4770      	bx	lr

0800736c <__retarget_lock_release_recursive>:
 800736c:	4770      	bx	lr

0800736e <memcpy>:
 800736e:	440a      	add	r2, r1
 8007370:	4291      	cmp	r1, r2
 8007372:	f100 33ff 	add.w	r3, r0, #4294967295
 8007376:	d100      	bne.n	800737a <memcpy+0xc>
 8007378:	4770      	bx	lr
 800737a:	b510      	push	{r4, lr}
 800737c:	f811 4b01 	ldrb.w	r4, [r1], #1
 8007380:	f803 4f01 	strb.w	r4, [r3, #1]!
 8007384:	4291      	cmp	r1, r2
 8007386:	d1f9      	bne.n	800737c <memcpy+0xe>
 8007388:	bd10      	pop	{r4, pc}
	...

0800738c <__assert_func>:
 800738c:	b51f      	push	{r0, r1, r2, r3, r4, lr}
 800738e:	4614      	mov	r4, r2
 8007390:	461a      	mov	r2, r3
 8007392:	4b09      	ldr	r3, [pc, #36]	@ (80073b8 <__assert_func+0x2c>)
 8007394:	681b      	ldr	r3, [r3, #0]
 8007396:	4605      	mov	r5, r0
 8007398:	68d8      	ldr	r0, [r3, #12]
 800739a:	b954      	cbnz	r4, 80073b2 <__assert_func+0x26>
 800739c:	4b07      	ldr	r3, [pc, #28]	@ (80073bc <__assert_func+0x30>)
 800739e:	461c      	mov	r4, r3
 80073a0:	e9cd 3401 	strd	r3, r4, [sp, #4]
 80073a4:	9100      	str	r1, [sp, #0]
 80073a6:	462b      	mov	r3, r5
 80073a8:	4905      	ldr	r1, [pc, #20]	@ (80073c0 <__assert_func+0x34>)
 80073aa:	f000 fc9f 	bl	8007cec <fiprintf>
 80073ae:	f000 fcd9 	bl	8007d64 <abort>
 80073b2:	4b04      	ldr	r3, [pc, #16]	@ (80073c4 <__assert_func+0x38>)
 80073b4:	e7f4      	b.n	80073a0 <__assert_func+0x14>
 80073b6:	bf00      	nop
 80073b8:	20000020 	.word	0x20000020
 80073bc:	0800b3a6 	.word	0x0800b3a6
 80073c0:	0800b378 	.word	0x0800b378
 80073c4:	0800b36b 	.word	0x0800b36b

080073c8 <_free_r>:
 80073c8:	b538      	push	{r3, r4, r5, lr}
 80073ca:	4605      	mov	r5, r0
 80073cc:	2900      	cmp	r1, #0
 80073ce:	d041      	beq.n	8007454 <_free_r+0x8c>
 80073d0:	f851 3c04 	ldr.w	r3, [r1, #-4]
 80073d4:	1f0c      	subs	r4, r1, #4
 80073d6:	2b00      	cmp	r3, #0
 80073d8:	bfb8      	it	lt
 80073da:	18e4      	addlt	r4, r4, r3
 80073dc:	f000 f8e8 	bl	80075b0 <__malloc_lock>
 80073e0:	4a1d      	ldr	r2, [pc, #116]	@ (8007458 <_free_r+0x90>)
 80073e2:	6813      	ldr	r3, [r2, #0]
 80073e4:	b933      	cbnz	r3, 80073f4 <_free_r+0x2c>
 80073e6:	6063      	str	r3, [r4, #4]
 80073e8:	6014      	str	r4, [r2, #0]
 80073ea:	4628      	mov	r0, r5
 80073ec:	e8bd 4038 	ldmia.w	sp!, {r3, r4, r5, lr}
 80073f0:	f000 b8e4 	b.w	80075bc <__malloc_unlock>
 80073f4:	42a3      	cmp	r3, r4
 80073f6:	d908      	bls.n	800740a <_free_r+0x42>
 80073f8:	6820      	ldr	r0, [r4, #0]
 80073fa:	1821      	adds	r1, r4, r0
 80073fc:	428b      	cmp	r3, r1
 80073fe:	bf01      	itttt	eq
 8007400:	6819      	ldreq	r1, [r3, #0]
 8007402:	685b      	ldreq	r3, [r3, #4]
 8007404:	1809      	addeq	r1, r1, r0
 8007406:	6021      	streq	r1, [r4, #0]
 8007408:	e7ed      	b.n	80073e6 <_free_r+0x1e>
 800740a:	461a      	mov	r2, r3
 800740c:	685b      	ldr	r3, [r3, #4]
 800740e:	b10b      	cbz	r3, 8007414 <_free_r+0x4c>
 8007410:	42a3      	cmp	r3, r4
 8007412:	d9fa      	bls.n	800740a <_free_r+0x42>
 8007414:	6811      	ldr	r1, [r2, #0]
 8007416:	1850      	adds	r0, r2, r1
 8007418:	42a0      	cmp	r0, r4
 800741a:	d10b      	bne.n	8007434 <_free_r+0x6c>
 800741c:	6820      	ldr	r0, [r4, #0]
 800741e:	4401      	add	r1, r0
 8007420:	1850      	adds	r0, r2, r1
 8007422:	4283      	cmp	r3, r0
 8007424:	6011      	str	r1, [r2, #0]
 8007426:	d1e0      	bne.n	80073ea <_free_r+0x22>
 8007428:	6818      	ldr	r0, [r3, #0]
 800742a:	685b      	ldr	r3, [r3, #4]
 800742c:	6053      	str	r3, [r2, #4]
 800742e:	4408      	add	r0, r1
 8007430:	6010      	str	r0, [r2, #0]
 8007432:	e7da      	b.n	80073ea <_free_r+0x22>
 8007434:	d902      	bls.n	800743c <_free_r+0x74>
 8007436:	230c      	movs	r3, #12
 8007438:	602b      	str	r3, [r5, #0]
 800743a:	e7d6      	b.n	80073ea <_free_r+0x22>
 800743c:	6820      	ldr	r0, [r4, #0]
 800743e:	1821      	adds	r1, r4, r0
 8007440:	428b      	cmp	r3, r1
 8007442:	bf04      	itt	eq
 8007444:	6819      	ldreq	r1, [r3, #0]
 8007446:	685b      	ldreq	r3, [r3, #4]
 8007448:	6063      	str	r3, [r4, #4]
 800744a:	bf04      	itt	eq
 800744c:	1809      	addeq	r1, r1, r0
 800744e:	6021      	streq	r1, [r4, #0]
 8007450:	6054      	str	r4, [r2, #4]
 8007452:	e7ca      	b.n	80073ea <_free_r+0x22>
 8007454:	bd38      	pop	{r3, r4, r5, pc}
 8007456:	bf00      	nop
 8007458:	20000510 	.word	0x20000510

0800745c <malloc>:
 800745c:	4b02      	ldr	r3, [pc, #8]	@ (8007468 <malloc+0xc>)
 800745e:	4601      	mov	r1, r0
 8007460:	6818      	ldr	r0, [r3, #0]
 8007462:	f000 b825 	b.w	80074b0 <_malloc_r>
 8007466:	bf00      	nop
 8007468:	20000020 	.word	0x20000020

0800746c <sbrk_aligned>:
 800746c:	b570      	push	{r4, r5, r6, lr}
 800746e:	4e0f      	ldr	r6, [pc, #60]	@ (80074ac <sbrk_aligned+0x40>)
 8007470:	460c      	mov	r4, r1
 8007472:	6831      	ldr	r1, [r6, #0]
 8007474:	4605      	mov	r5, r0
 8007476:	b911      	cbnz	r1, 800747e <sbrk_aligned+0x12>
 8007478:	f000 fc64 	bl	8007d44 <_sbrk_r>
 800747c:	6030      	str	r0, [r6, #0]
 800747e:	4621      	mov	r1, r4
 8007480:	4628      	mov	r0, r5
 8007482:	f000 fc5f 	bl	8007d44 <_sbrk_r>
 8007486:	1c43      	adds	r3, r0, #1
 8007488:	d103      	bne.n	8007492 <sbrk_aligned+0x26>
 800748a:	f04f 34ff 	mov.w	r4, #4294967295
 800748e:	4620      	mov	r0, r4
 8007490:	bd70      	pop	{r4, r5, r6, pc}
 8007492:	1cc4      	adds	r4, r0, #3
 8007494:	f024 0403 	bic.w	r4, r4, #3
 8007498:	42a0      	cmp	r0, r4
 800749a:	d0f8      	beq.n	800748e <sbrk_aligned+0x22>
 800749c:	1a21      	subs	r1, r4, r0
 800749e:	4628      	mov	r0, r5
 80074a0:	f000 fc50 	bl	8007d44 <_sbrk_r>
 80074a4:	3001      	adds	r0, #1
 80074a6:	d1f2      	bne.n	800748e <sbrk_aligned+0x22>
 80074a8:	e7ef      	b.n	800748a <sbrk_aligned+0x1e>
 80074aa:	bf00      	nop
 80074ac:	2000050c 	.word	0x2000050c

080074b0 <_malloc_r>:
 80074b0:	e92d 43f8 	stmdb	sp!, {r3, r4, r5, r6, r7, r8, r9, lr}
 80074b4:	1ccd      	adds	r5, r1, #3
 80074b6:	f025 0503 	bic.w	r5, r5, #3
 80074ba:	3508      	adds	r5, #8
 80074bc:	2d0c      	cmp	r5, #12
 80074be:	bf38      	it	cc
 80074c0:	250c      	movcc	r5, #12
 80074c2:	2d00      	cmp	r5, #0
 80074c4:	4606      	mov	r6, r0
 80074c6:	db01      	blt.n	80074cc <_malloc_r+0x1c>
 80074c8:	42a9      	cmp	r1, r5
 80074ca:	d904      	bls.n	80074d6 <_malloc_r+0x26>
 80074cc:	230c      	movs	r3, #12
 80074ce:	6033      	str	r3, [r6, #0]
 80074d0:	2000      	movs	r0, #0
 80074d2:	e8bd 83f8 	ldmia.w	sp!, {r3, r4, r5, r6, r7, r8, r9, pc}
 80074d6:	f8df 80d4 	ldr.w	r8, [pc, #212]	@ 80075ac <_malloc_r+0xfc>
 80074da:	f000 f869 	bl	80075b0 <__malloc_lock>
 80074de:	f8d8 3000 	ldr.w	r3, [r8]
 80074e2:	461c      	mov	r4, r3
 80074e4:	bb44      	cbnz	r4, 8007538 <_malloc_r+0x88>
 80074e6:	4629      	mov	r1, r5
 80074e8:	4630      	mov	r0, r6
 80074ea:	f7ff ffbf 	bl	800746c <sbrk_aligned>
 80074ee:	1c43      	adds	r3, r0, #1
 80074f0:	4604      	mov	r4, r0
 80074f2:	d158      	bne.n	80075a6 <_malloc_r+0xf6>
 80074f4:	f8d8 4000 	ldr.w	r4, [r8]
 80074f8:	4627      	mov	r7, r4
 80074fa:	2f00      	cmp	r7, #0
 80074fc:	d143      	bne.n	8007586 <_malloc_r+0xd6>
 80074fe:	2c00      	cmp	r4, #0
 8007500:	d04b      	beq.n	800759a <_malloc_r+0xea>
 8007502:	6823      	ldr	r3, [r4, #0]
 8007504:	4639      	mov	r1, r7
 8007506:	4630      	mov	r0, r6
 8007508:	eb04 0903 	add.w	r9, r4, r3
 800750c:	f000 fc1a 	bl	8007d44 <_sbrk_r>
 8007510:	4581      	cmp	r9, r0
 8007512:	d142      	bne.n	800759a <_malloc_r+0xea>
 8007514:	6821      	ldr	r1, [r4, #0]
 8007516:	1a6d      	subs	r5, r5, r1
 8007518:	4629      	mov	r1, r5
 800751a:	4630      	mov	r0, r6
 800751c:	f7ff ffa6 	bl	800746c <sbrk_aligned>
 8007520:	3001      	adds	r0, #1
 8007522:	d03a      	beq.n	800759a <_malloc_r+0xea>
 8007524:	6823      	ldr	r3, [r4, #0]
 8007526:	442b      	add	r3, r5
 8007528:	6023      	str	r3, [r4, #0]
 800752a:	f8d8 3000 	ldr.w	r3, [r8]
 800752e:	685a      	ldr	r2, [r3, #4]
 8007530:	bb62      	cbnz	r2, 800758c <_malloc_r+0xdc>
 8007532:	f8c8 7000 	str.w	r7, [r8]
 8007536:	e00f      	b.n	8007558 <_malloc_r+0xa8>
 8007538:	6822      	ldr	r2, [r4, #0]
 800753a:	1b52      	subs	r2, r2, r5
 800753c:	d420      	bmi.n	8007580 <_malloc_r+0xd0>
 800753e:	2a0b      	cmp	r2, #11
 8007540:	d917      	bls.n	8007572 <_malloc_r+0xc2>
 8007542:	1961      	adds	r1, r4, r5
 8007544:	42a3      	cmp	r3, r4
 8007546:	6025      	str	r5, [r4, #0]
 8007548:	bf18      	it	ne
 800754a:	6059      	strne	r1, [r3, #4]
 800754c:	6863      	ldr	r3, [r4, #4]
 800754e:	bf08      	it	eq
 8007550:	f8c8 1000 	streq.w	r1, [r8]
 8007554:	5162      	str	r2, [r4, r5]
 8007556:	604b      	str	r3, [r1, #4]
 8007558:	4630      	mov	r0, r6
 800755a:	f000 f82f 	bl	80075bc <__malloc_unlock>
 800755e:	f104 000b 	add.w	r0, r4, #11
 8007562:	1d23      	adds	r3, r4, #4
 8007564:	f020 0007 	bic.w	r0, r0, #7
 8007568:	1ac2      	subs	r2, r0, r3
 800756a:	bf1c      	itt	ne
 800756c:	1a1b      	subne	r3, r3, r0
 800756e:	50a3      	strne	r3, [r4, r2]
 8007570:	e7af      	b.n	80074d2 <_malloc_r+0x22>
 8007572:	6862      	ldr	r2, [r4, #4]
 8007574:	42a3      	cmp	r3, r4
 8007576:	bf0c      	ite	eq
 8007578:	f8c8 2000 	streq.w	r2, [r8]
 800757c:	605a      	strne	r2, [r3, #4]
 800757e:	e7eb      	b.n	8007558 <_malloc_r+0xa8>
 8007580:	4623      	mov	r3, r4
 8007582:	6864      	ldr	r4, [r4, #4]
 8007584:	e7ae      	b.n	80074e4 <_malloc_r+0x34>
 8007586:	463c      	mov	r4, r7
 8007588:	687f      	ldr	r7, [r7, #4]
 800758a:	e7b6      	b.n	80074fa <_malloc_r+0x4a>
 800758c:	461a      	mov	r2, r3
 800758e:	685b      	ldr	r3, [r3, #4]
 8007590:	42a3      	cmp	r3, r4
 8007592:	d1fb      	bne.n	800758c <_malloc_r+0xdc>
 8007594:	2300      	movs	r3, #0
 8007596:	6053      	str	r3, [r2, #4]
 8007598:	e7de      	b.n	8007558 <_malloc_r+0xa8>
 800759a:	230c      	movs	r3, #12
 800759c:	6033      	str	r3, [r6, #0]
 800759e:	4630      	mov	r0, r6
 80075a0:	f000 f80c 	bl	80075bc <__malloc_unlock>
 80075a4:	e794      	b.n	80074d0 <_malloc_r+0x20>
 80075a6:	6005      	str	r5, [r0, #0]
 80075a8:	e7d6      	b.n	8007558 <_malloc_r+0xa8>
 80075aa:	bf00      	nop
 80075ac:	20000510 	.word	0x20000510

080075b0 <__malloc_lock>:
 80075b0:	4801      	ldr	r0, [pc, #4]	@ (80075b8 <__malloc_lock+0x8>)
 80075b2:	f7ff beda 	b.w	800736a <__retarget_lock_acquire_recursive>
 80075b6:	bf00      	nop
 80075b8:	20000508 	.word	0x20000508

080075bc <__malloc_unlock>:
 80075bc:	4801      	ldr	r0, [pc, #4]	@ (80075c4 <__malloc_unlock+0x8>)
 80075be:	f7ff bed5 	b.w	800736c <__retarget_lock_release_recursive>
 80075c2:	bf00      	nop
 80075c4:	20000508 	.word	0x20000508

080075c8 <__ssputs_r>:
 80075c8:	e92d 47f0 	stmdb	sp!, {r4, r5, r6, r7, r8, r9, sl, lr}
 80075cc:	688e      	ldr	r6, [r1, #8]
 80075ce:	461f      	mov	r7, r3
 80075d0:	42be      	cmp	r6, r7
 80075d2:	680b      	ldr	r3, [r1, #0]
 80075d4:	4682      	mov	sl, r0
 80075d6:	460c      	mov	r4, r1
 80075d8:	4690      	mov	r8, r2
 80075da:	d82d      	bhi.n	8007638 <__ssputs_r+0x70>
 80075dc:	f9b1 200c 	ldrsh.w	r2, [r1, #12]
 80075e0:	f412 6f90 	tst.w	r2, #1152	@ 0x480
 80075e4:	d026      	beq.n	8007634 <__ssputs_r+0x6c>
 80075e6:	6965      	ldr	r5, [r4, #20]
 80075e8:	6909      	ldr	r1, [r1, #16]
 80075ea:	eb05 0545 	add.w	r5, r5, r5, lsl #1
 80075ee:	eba3 0901 	sub.w	r9, r3, r1
 80075f2:	eb05 75d5 	add.w	r5, r5, r5, lsr #31
 80075f6:	1c7b      	adds	r3, r7, #1
 80075f8:	444b      	add	r3, r9
 80075fa:	106d      	asrs	r5, r5, #1
 80075fc:	429d      	cmp	r5, r3
 80075fe:	bf38      	it	cc
 8007600:	461d      	movcc	r5, r3
 8007602:	0553      	lsls	r3, r2, #21
 8007604:	d527      	bpl.n	8007656 <__ssputs_r+0x8e>
 8007606:	4629      	mov	r1, r5
 8007608:	f7ff ff52 	bl	80074b0 <_malloc_r>
 800760c:	4606      	mov	r6, r0
 800760e:	b360      	cbz	r0, 800766a <__ssputs_r+0xa2>
 8007610:	6921      	ldr	r1, [r4, #16]
 8007612:	464a      	mov	r2, r9
 8007614:	f7ff feab 	bl	800736e <memcpy>
 8007618:	89a3      	ldrh	r3, [r4, #12]
 800761a:	f423 6390 	bic.w	r3, r3, #1152	@ 0x480
 800761e:	f043 0380 	orr.w	r3, r3, #128	@ 0x80
 8007622:	81a3      	strh	r3, [r4, #12]
 8007624:	6126      	str	r6, [r4, #16]
 8007626:	6165      	str	r5, [r4, #20]
 8007628:	444e      	add	r6, r9
 800762a:	eba5 0509 	sub.w	r5, r5, r9
 800762e:	6026      	str	r6, [r4, #0]
 8007630:	60a5      	str	r5, [r4, #8]
 8007632:	463e      	mov	r6, r7
 8007634:	42be      	cmp	r6, r7
 8007636:	d900      	bls.n	800763a <__ssputs_r+0x72>
 8007638:	463e      	mov	r6, r7
 800763a:	6820      	ldr	r0, [r4, #0]
 800763c:	4632      	mov	r2, r6
 800763e:	4641      	mov	r1, r8
 8007640:	f000 fb66 	bl	8007d10 <memmove>
 8007644:	68a3      	ldr	r3, [r4, #8]
 8007646:	1b9b      	subs	r3, r3, r6
 8007648:	60a3      	str	r3, [r4, #8]
 800764a:	6823      	ldr	r3, [r4, #0]
 800764c:	4433      	add	r3, r6
 800764e:	6023      	str	r3, [r4, #0]
 8007650:	2000      	movs	r0, #0
 8007652:	e8bd 87f0 	ldmia.w	sp!, {r4, r5, r6, r7, r8, r9, sl, pc}
 8007656:	462a      	mov	r2, r5
 8007658:	f000 fb8b 	bl	8007d72 <_realloc_r>
 800765c:	4606      	mov	r6, r0
 800765e:	2800      	cmp	r0, #0
 8007660:	d1e0      	bne.n	8007624 <__ssputs_r+0x5c>
 8007662:	6921      	ldr	r1, [r4, #16]
 8007664:	4650      	mov	r0, sl
 8007666:	f7ff feaf 	bl	80073c8 <_free_r>
 800766a:	230c      	movs	r3, #12
 800766c:	f8ca 3000 	str.w	r3, [sl]
 8007670:	89a3      	ldrh	r3, [r4, #12]
 8007672:	f043 0340 	orr.w	r3, r3, #64	@ 0x40
 8007676:	81a3      	strh	r3, [r4, #12]
 8007678:	f04f 30ff 	mov.w	r0, #4294967295
 800767c:	e7e9      	b.n	8007652 <__ssputs_r+0x8a>
	...

08007680 <_svfiprintf_r>:
 8007680:	e92d 4ff0 	stmdb	sp!, {r4, r5, r6, r7, r8, r9, sl, fp, lr}
 8007684:	4698      	mov	r8, r3
 8007686:	898b      	ldrh	r3, [r1, #12]
 8007688:	061b      	lsls	r3, r3, #24
 800768a:	b09d      	sub	sp, #116	@ 0x74
 800768c:	4607      	mov	r7, r0
 800768e:	460d      	mov	r5, r1
 8007690:	4614      	mov	r4, r2
 8007692:	d510      	bpl.n	80076b6 <_svfiprintf_r+0x36>
 8007694:	690b      	ldr	r3, [r1, #16]
 8007696:	b973      	cbnz	r3, 80076b6 <_svfiprintf_r+0x36>
 8007698:	2140      	movs	r1, #64	@ 0x40
 800769a:	f7ff ff09 	bl	80074b0 <_malloc_r>
 800769e:	6028      	str	r0, [r5, #0]
 80076a0:	6128      	str	r0, [r5, #16]
 80076a2:	b930      	cbnz	r0, 80076b2 <_svfiprintf_r+0x32>
 80076a4:	230c      	movs	r3, #12
 80076a6:	603b      	str	r3, [r7, #0]
 80076a8:	f04f 30ff 	mov.w	r0, #4294967295
 80076ac:	b01d      	add	sp, #116	@ 0x74
 80076ae:	e8bd 8ff0 	ldmia.w	sp!, {r4, r5, r6, r7, r8, r9, sl, fp, pc}
 80076b2:	2340      	movs	r3, #64	@ 0x40
 80076b4:	616b      	str	r3, [r5, #20]
 80076b6:	2300      	movs	r3, #0
 80076b8:	9309      	str	r3, [sp, #36]	@ 0x24
 80076ba:	2320      	movs	r3, #32
 80076bc:	f88d 3029 	strb.w	r3, [sp, #41]	@ 0x29
 80076c0:	f8cd 800c 	str.w	r8, [sp, #12]
 80076c4:	2330      	movs	r3, #48	@ 0x30
 80076c6:	f8df 819c 	ldr.w	r8, [pc, #412]	@ 8007864 <_svfiprintf_r+0x1e4>
 80076ca:	f88d 302a 	strb.w	r3, [sp, #42]	@ 0x2a
 80076ce:	f04f 0901 	mov.w	r9, #1
 80076d2:	4623      	mov	r3, r4
 80076d4:	469a      	mov	sl, r3
 80076d6:	f813 2b01 	ldrb.w	r2, [r3], #1
 80076da:	b10a      	cbz	r2, 80076e0 <_svfiprintf_r+0x60>
 80076dc:	2a25      	cmp	r2, #37	@ 0x25
 80076de:	d1f9      	bne.n	80076d4 <_svfiprintf_r+0x54>
 80076e0:	ebba 0b04 	subs.w	fp, sl, r4
 80076e4:	d00b      	beq.n	80076fe <_svfiprintf_r+0x7e>
 80076e6:	465b      	mov	r3, fp
 80076e8:	4622      	mov	r2, r4
 80076ea:	4629      	mov	r1, r5
 80076ec:	4638      	mov	r0, r7
 80076ee:	f7ff ff6b 	bl	80075c8 <__ssputs_r>
 80076f2:	3001      	adds	r0, #1
 80076f4:	f000 80a7 	beq.w	8007846 <_svfiprintf_r+0x1c6>
 80076f8:	9a09      	ldr	r2, [sp, #36]	@ 0x24
 80076fa:	445a      	add	r2, fp
 80076fc:	9209      	str	r2, [sp, #36]	@ 0x24
 80076fe:	f89a 3000 	ldrb.w	r3, [sl]
 8007702:	2b00      	cmp	r3, #0
 8007704:	f000 809f 	beq.w	8007846 <_svfiprintf_r+0x1c6>
 8007708:	2300      	movs	r3, #0
 800770a:	f04f 32ff 	mov.w	r2, #4294967295
 800770e:	e9cd 2305 	strd	r2, r3, [sp, #20]
 8007712:	f10a 0a01 	add.w	sl, sl, #1
 8007716:	9304      	str	r3, [sp, #16]
 8007718:	9307      	str	r3, [sp, #28]
 800771a:	f88d 3053 	strb.w	r3, [sp, #83]	@ 0x53
 800771e:	931a      	str	r3, [sp, #104]	@ 0x68
 8007720:	4654      	mov	r4, sl
 8007722:	2205      	movs	r2, #5
 8007724:	f814 1b01 	ldrb.w	r1, [r4], #1
 8007728:	484e      	ldr	r0, [pc, #312]	@ (8007864 <_svfiprintf_r+0x1e4>)
 800772a:	f7f8 fd59 	bl	80001e0 <memchr>
 800772e:	9a04      	ldr	r2, [sp, #16]
 8007730:	b9d8      	cbnz	r0, 800776a <_svfiprintf_r+0xea>
 8007732:	06d0      	lsls	r0, r2, #27
 8007734:	bf44      	itt	mi
 8007736:	2320      	movmi	r3, #32
 8007738:	f88d 3053 	strbmi.w	r3, [sp, #83]	@ 0x53
 800773c:	0711      	lsls	r1, r2, #28
 800773e:	bf44      	itt	mi
 8007740:	232b      	movmi	r3, #43	@ 0x2b
 8007742:	f88d 3053 	strbmi.w	r3, [sp, #83]	@ 0x53
 8007746:	f89a 3000 	ldrb.w	r3, [sl]
 800774a:	2b2a      	cmp	r3, #42	@ 0x2a
 800774c:	d015      	beq.n	800777a <_svfiprintf_r+0xfa>
 800774e:	9a07      	ldr	r2, [sp, #28]
 8007750:	4654      	mov	r4, sl
 8007752:	2000      	movs	r0, #0
 8007754:	f04f 0c0a 	mov.w	ip, #10
 8007758:	4621      	mov	r1, r4
 800775a:	f811 3b01 	ldrb.w	r3, [r1], #1
 800775e:	3b30      	subs	r3, #48	@ 0x30
 8007760:	2b09      	cmp	r3, #9
 8007762:	d94b      	bls.n	80077fc <_svfiprintf_r+0x17c>
 8007764:	b1b0      	cbz	r0, 8007794 <_svfiprintf_r+0x114>
 8007766:	9207      	str	r2, [sp, #28]
 8007768:	e014      	b.n	8007794 <_svfiprintf_r+0x114>
 800776a:	eba0 0308 	sub.w	r3, r0, r8
 800776e:	fa09 f303 	lsl.w	r3, r9, r3
 8007772:	4313      	orrs	r3, r2
 8007774:	9304      	str	r3, [sp, #16]
 8007776:	46a2      	mov	sl, r4
 8007778:	e7d2      	b.n	8007720 <_svfiprintf_r+0xa0>
 800777a:	9b03      	ldr	r3, [sp, #12]
 800777c:	1d19      	adds	r1, r3, #4
 800777e:	681b      	ldr	r3, [r3, #0]
 8007780:	9103      	str	r1, [sp, #12]
 8007782:	2b00      	cmp	r3, #0
 8007784:	bfbb      	ittet	lt
 8007786:	425b      	neglt	r3, r3
 8007788:	f042 0202 	orrlt.w	r2, r2, #2
 800778c:	9307      	strge	r3, [sp, #28]
 800778e:	9307      	strlt	r3, [sp, #28]
 8007790:	bfb8      	it	lt
 8007792:	9204      	strlt	r2, [sp, #16]
 8007794:	7823      	ldrb	r3, [r4, #0]
 8007796:	2b2e      	cmp	r3, #46	@ 0x2e
 8007798:	d10a      	bne.n	80077b0 <_svfiprintf_r+0x130>
 800779a:	7863      	ldrb	r3, [r4, #1]
 800779c:	2b2a      	cmp	r3, #42	@ 0x2a
 800779e:	d132      	bne.n	8007806 <_svfiprintf_r+0x186>
 80077a0:	9b03      	ldr	r3, [sp, #12]
 80077a2:	1d1a      	adds	r2, r3, #4
 80077a4:	681b      	ldr	r3, [r3, #0]
 80077a6:	9203      	str	r2, [sp, #12]
 80077a8:	ea43 73e3 	orr.w	r3, r3, r3, asr #31
 80077ac:	3402      	adds	r4, #2
 80077ae:	9305      	str	r3, [sp, #20]
 80077b0:	f8df a0c0 	ldr.w	sl, [pc, #192]	@ 8007874 <_svfiprintf_r+0x1f4>
 80077b4:	7821      	ldrb	r1, [r4, #0]
 80077b6:	2203      	movs	r2, #3
 80077b8:	4650      	mov	r0, sl
 80077ba:	f7f8 fd11 	bl	80001e0 <memchr>
 80077be:	b138      	cbz	r0, 80077d0 <_svfiprintf_r+0x150>
 80077c0:	9b04      	ldr	r3, [sp, #16]
 80077c2:	eba0 000a 	sub.w	r0, r0, sl
 80077c6:	2240      	movs	r2, #64	@ 0x40
 80077c8:	4082      	lsls	r2, r0
 80077ca:	4313      	orrs	r3, r2
 80077cc:	3401      	adds	r4, #1
 80077ce:	9304      	str	r3, [sp, #16]
 80077d0:	f814 1b01 	ldrb.w	r1, [r4], #1
 80077d4:	4824      	ldr	r0, [pc, #144]	@ (8007868 <_svfiprintf_r+0x1e8>)
 80077d6:	f88d 1028 	strb.w	r1, [sp, #40]	@ 0x28
 80077da:	2206      	movs	r2, #6
 80077dc:	f7f8 fd00 	bl	80001e0 <memchr>
 80077e0:	2800      	cmp	r0, #0
 80077e2:	d036      	beq.n	8007852 <_svfiprintf_r+0x1d2>
 80077e4:	4b21      	ldr	r3, [pc, #132]	@ (800786c <_svfiprintf_r+0x1ec>)
 80077e6:	bb1b      	cbnz	r3, 8007830 <_svfiprintf_r+0x1b0>
 80077e8:	9b03      	ldr	r3, [sp, #12]
 80077ea:	3307      	adds	r3, #7
 80077ec:	f023 0307 	bic.w	r3, r3, #7
 80077f0:	3308      	adds	r3, #8
 80077f2:	9303      	str	r3, [sp, #12]
 80077f4:	9b09      	ldr	r3, [sp, #36]	@ 0x24
 80077f6:	4433      	add	r3, r6
 80077f8:	9309      	str	r3, [sp, #36]	@ 0x24
 80077fa:	e76a      	b.n	80076d2 <_svfiprintf_r+0x52>
 80077fc:	fb0c 3202 	mla	r2, ip, r2, r3
 8007800:	460c      	mov	r4, r1
 8007802:	2001      	movs	r0, #1
 8007804:	e7a8      	b.n	8007758 <_svfiprintf_r+0xd8>
 8007806:	2300      	movs	r3, #0
 8007808:	3401      	adds	r4, #1
 800780a:	9305      	str	r3, [sp, #20]
 800780c:	4619      	mov	r1, r3
 800780e:	f04f 0c0a 	mov.w	ip, #10
 8007812:	4620      	mov	r0, r4
 8007814:	f810 2b01 	ldrb.w	r2, [r0], #1
 8007818:	3a30      	subs	r2, #48	@ 0x30
 800781a:	2a09      	cmp	r2, #9
 800781c:	d903      	bls.n	8007826 <_svfiprintf_r+0x1a6>
 800781e:	2b00      	cmp	r3, #0
 8007820:	d0c6      	beq.n	80077b0 <_svfiprintf_r+0x130>
 8007822:	9105      	str	r1, [sp, #20]
 8007824:	e7c4      	b.n	80077b0 <_svfiprintf_r+0x130>
 8007826:	fb0c 2101 	mla	r1, ip, r1, r2
 800782a:	4604      	mov	r4, r0
 800782c:	2301      	movs	r3, #1
 800782e:	e7f0      	b.n	8007812 <_svfiprintf_r+0x192>
 8007830:	ab03      	add	r3, sp, #12
 8007832:	9300      	str	r3, [sp, #0]
 8007834:	462a      	mov	r2, r5
 8007836:	4b0e      	ldr	r3, [pc, #56]	@ (8007870 <_svfiprintf_r+0x1f0>)
 8007838:	a904      	add	r1, sp, #16
 800783a:	4638      	mov	r0, r7
 800783c:	f3af 8000 	nop.w
 8007840:	1c42      	adds	r2, r0, #1
 8007842:	4606      	mov	r6, r0
 8007844:	d1d6      	bne.n	80077f4 <_svfiprintf_r+0x174>
 8007846:	89ab      	ldrh	r3, [r5, #12]
 8007848:	065b      	lsls	r3, r3, #25
 800784a:	f53f af2d 	bmi.w	80076a8 <_svfiprintf_r+0x28>
 800784e:	9809      	ldr	r0, [sp, #36]	@ 0x24
 8007850:	e72c      	b.n	80076ac <_svfiprintf_r+0x2c>
 8007852:	ab03      	add	r3, sp, #12
 8007854:	9300      	str	r3, [sp, #0]
 8007856:	462a      	mov	r2, r5
 8007858:	4b05      	ldr	r3, [pc, #20]	@ (8007870 <_svfiprintf_r+0x1f0>)
 800785a:	a904      	add	r1, sp, #16
 800785c:	4638      	mov	r0, r7
 800785e:	f000 f879 	bl	8007954 <_printf_i>
 8007862:	e7ed      	b.n	8007840 <_svfiprintf_r+0x1c0>
 8007864:	0800b3a7 	.word	0x0800b3a7
 8007868:	0800b3b1 	.word	0x0800b3b1
 800786c:	00000000 	.word	0x00000000
 8007870:	080075c9 	.word	0x080075c9
 8007874:	0800b3ad 	.word	0x0800b3ad

08007878 <_printf_common>:
 8007878:	e92d 47f0 	stmdb	sp!, {r4, r5, r6, r7, r8, r9, sl, lr}
 800787c:	4616      	mov	r6, r2
 800787e:	4698      	mov	r8, r3
 8007880:	688a      	ldr	r2, [r1, #8]
 8007882:	690b      	ldr	r3, [r1, #16]
 8007884:	f8dd 9020 	ldr.w	r9, [sp, #32]
 8007888:	4293      	cmp	r3, r2
 800788a:	bfb8      	it	lt
 800788c:	4613      	movlt	r3, r2
 800788e:	6033      	str	r3, [r6, #0]
 8007890:	f891 2043 	ldrb.w	r2, [r1, #67]	@ 0x43
 8007894:	4607      	mov	r7, r0
 8007896:	460c      	mov	r4, r1
 8007898:	b10a      	cbz	r2, 800789e <_printf_common+0x26>
 800789a:	3301      	adds	r3, #1
 800789c:	6033      	str	r3, [r6, #0]
 800789e:	6823      	ldr	r3, [r4, #0]
 80078a0:	0699      	lsls	r1, r3, #26
 80078a2:	bf42      	ittt	mi
 80078a4:	6833      	ldrmi	r3, [r6, #0]
 80078a6:	3302      	addmi	r3, #2
 80078a8:	6033      	strmi	r3, [r6, #0]
 80078aa:	6825      	ldr	r5, [r4, #0]
 80078ac:	f015 0506 	ands.w	r5, r5, #6
 80078b0:	d106      	bne.n	80078c0 <_printf_common+0x48>
 80078b2:	f104 0a19 	add.w	sl, r4, #25
 80078b6:	68e3      	ldr	r3, [r4, #12]
 80078b8:	6832      	ldr	r2, [r6, #0]
 80078ba:	1a9b      	subs	r3, r3, r2
 80078bc:	42ab      	cmp	r3, r5
 80078be:	dc26      	bgt.n	800790e <_printf_common+0x96>
 80078c0:	f894 3043 	ldrb.w	r3, [r4, #67]	@ 0x43
 80078c4:	6822      	ldr	r2, [r4, #0]
 80078c6:	3b00      	subs	r3, #0
 80078c8:	bf18      	it	ne
 80078ca:	2301      	movne	r3, #1
 80078cc:	0692      	lsls	r2, r2, #26
 80078ce:	d42b      	bmi.n	8007928 <_printf_common+0xb0>
 80078d0:	f104 0243 	add.w	r2, r4, #67	@ 0x43
 80078d4:	4641      	mov	r1, r8
 80078d6:	4638      	mov	r0, r7
 80078d8:	47c8      	blx	r9
 80078da:	3001      	adds	r0, #1
 80078dc:	d01e      	beq.n	800791c <_printf_common+0xa4>
 80078de:	6823      	ldr	r3, [r4, #0]
 80078e0:	6922      	ldr	r2, [r4, #16]
 80078e2:	f003 0306 	and.w	r3, r3, #6
 80078e6:	2b04      	cmp	r3, #4
 80078e8:	bf02      	ittt	eq
 80078ea:	68e5      	ldreq	r5, [r4, #12]
 80078ec:	6833      	ldreq	r3, [r6, #0]
 80078ee:	1aed      	subeq	r5, r5, r3
 80078f0:	68a3      	ldr	r3, [r4, #8]
 80078f2:	bf0c      	ite	eq
 80078f4:	ea25 75e5 	biceq.w	r5, r5, r5, asr #31
 80078f8:	2500      	movne	r5, #0
 80078fa:	4293      	cmp	r3, r2
 80078fc:	bfc4      	itt	gt
 80078fe:	1a9b      	subgt	r3, r3, r2
 8007900:	18ed      	addgt	r5, r5, r3
 8007902:	2600      	movs	r6, #0
 8007904:	341a      	adds	r4, #26
 8007906:	42b5      	cmp	r5, r6
 8007908:	d11a      	bne.n	8007940 <_printf_common+0xc8>
 800790a:	2000      	movs	r0, #0
 800790c:	e008      	b.n	8007920 <_printf_common+0xa8>
 800790e:	2301      	movs	r3, #1
 8007910:	4652      	mov	r2, sl
 8007912:	4641      	mov	r1, r8
 8007914:	4638      	mov	r0, r7
 8007916:	47c8      	blx	r9
 8007918:	3001      	adds	r0, #1
 800791a:	d103      	bne.n	8007924 <_printf_common+0xac>
 800791c:	f04f 30ff 	mov.w	r0, #4294967295
 8007920:	e8bd 87f0 	ldmia.w	sp!, {r4, r5, r6, r7, r8, r9, sl, pc}
 8007924:	3501      	adds	r5, #1
 8007926:	e7c6      	b.n	80078b6 <_printf_common+0x3e>
 8007928:	18e1      	adds	r1, r4, r3
 800792a:	1c5a      	adds	r2, r3, #1
 800792c:	2030      	movs	r0, #48	@ 0x30
 800792e:	f881 0043 	strb.w	r0, [r1, #67]	@ 0x43
 8007932:	4422      	add	r2, r4
 8007934:	f894 1045 	ldrb.w	r1, [r4, #69]	@ 0x45
 8007938:	f882 1043 	strb.w	r1, [r2, #67]	@ 0x43
 800793c:	3302      	adds	r3, #2
 800793e:	e7c7      	b.n	80078d0 <_printf_common+0x58>
 8007940:	2301      	movs	r3, #1
 8007942:	4622      	mov	r2, r4
 8007944:	4641      	mov	r1, r8
 8007946:	4638      	mov	r0, r7
 8007948:	47c8      	blx	r9
 800794a:	3001      	adds	r0, #1
 800794c:	d0e6      	beq.n	800791c <_printf_common+0xa4>
 800794e:	3601      	adds	r6, #1
 8007950:	e7d9      	b.n	8007906 <_printf_common+0x8e>
	...

08007954 <_printf_i>:
 8007954:	e92d 47ff 	stmdb	sp!, {r0, r1, r2, r3, r4, r5, r6, r7, r8, r9, sl, lr}
 8007958:	7e0f      	ldrb	r7, [r1, #24]
 800795a:	9e0c      	ldr	r6, [sp, #48]	@ 0x30
 800795c:	2f78      	cmp	r7, #120	@ 0x78
 800795e:	4691      	mov	r9, r2
 8007960:	4680      	mov	r8, r0
 8007962:	460c      	mov	r4, r1
 8007964:	469a      	mov	sl, r3
 8007966:	f101 0243 	add.w	r2, r1, #67	@ 0x43
 800796a:	d807      	bhi.n	800797c <_printf_i+0x28>
 800796c:	2f62      	cmp	r7, #98	@ 0x62
 800796e:	d80a      	bhi.n	8007986 <_printf_i+0x32>
 8007970:	2f00      	cmp	r7, #0
 8007972:	f000 80d2 	beq.w	8007b1a <_printf_i+0x1c6>
 8007976:	2f58      	cmp	r7, #88	@ 0x58
 8007978:	f000 80b9 	beq.w	8007aee <_printf_i+0x19a>
 800797c:	f104 0642 	add.w	r6, r4, #66	@ 0x42
 8007980:	f884 7042 	strb.w	r7, [r4, #66]	@ 0x42
 8007984:	e03a      	b.n	80079fc <_printf_i+0xa8>
 8007986:	f1a7 0363 	sub.w	r3, r7, #99	@ 0x63
 800798a:	2b15      	cmp	r3, #21
 800798c:	d8f6      	bhi.n	800797c <_printf_i+0x28>
 800798e:	a101      	add	r1, pc, #4	@ (adr r1, 8007994 <_printf_i+0x40>)
 8007990:	f851 f023 	ldr.w	pc, [r1, r3, lsl #2]
 8007994:	080079ed 	.word	0x080079ed
 8007998:	08007a01 	.word	0x08007a01
 800799c:	0800797d 	.word	0x0800797d
 80079a0:	0800797d 	.word	0x0800797d
 80079a4:	0800797d 	.word	0x0800797d
 80079a8:	0800797d 	.word	0x0800797d
 80079ac:	08007a01 	.word	0x08007a01
 80079b0:	0800797d 	.word	0x0800797d
 80079b4:	0800797d 	.word	0x0800797d
 80079b8:	0800797d 	.word	0x0800797d
 80079bc:	0800797d 	.word	0x0800797d
 80079c0:	08007b01 	.word	0x08007b01
 80079c4:	08007a2b 	.word	0x08007a2b
 80079c8:	08007abb 	.word	0x08007abb
 80079cc:	0800797d 	.word	0x0800797d
 80079d0:	0800797d 	.word	0x0800797d
 80079d4:	08007b23 	.word	0x08007b23
 80079d8:	0800797d 	.word	0x0800797d
 80079dc:	08007a2b 	.word	0x08007a2b
 80079e0:	0800797d 	.word	0x0800797d
 80079e4:	0800797d 	.word	0x0800797d
 80079e8:	08007ac3 	.word	0x08007ac3
 80079ec:	6833      	ldr	r3, [r6, #0]
 80079ee:	1d1a      	adds	r2, r3, #4
 80079f0:	681b      	ldr	r3, [r3, #0]
 80079f2:	6032      	str	r2, [r6, #0]
 80079f4:	f104 0642 	add.w	r6, r4, #66	@ 0x42
 80079f8:	f884 3042 	strb.w	r3, [r4, #66]	@ 0x42
 80079fc:	2301      	movs	r3, #1
 80079fe:	e09d      	b.n	8007b3c <_printf_i+0x1e8>
 8007a00:	6833      	ldr	r3, [r6, #0]
 8007a02:	6820      	ldr	r0, [r4, #0]
 8007a04:	1d19      	adds	r1, r3, #4
 8007a06:	6031      	str	r1, [r6, #0]
 8007a08:	0606      	lsls	r6, r0, #24
 8007a0a:	d501      	bpl.n	8007a10 <_printf_i+0xbc>
 8007a0c:	681d      	ldr	r5, [r3, #0]
 8007a0e:	e003      	b.n	8007a18 <_printf_i+0xc4>
 8007a10:	0645      	lsls	r5, r0, #25
 8007a12:	d5fb      	bpl.n	8007a0c <_printf_i+0xb8>
 8007a14:	f9b3 5000 	ldrsh.w	r5, [r3]
 8007a18:	2d00      	cmp	r5, #0
 8007a1a:	da03      	bge.n	8007a24 <_printf_i+0xd0>
 8007a1c:	232d      	movs	r3, #45	@ 0x2d
 8007a1e:	426d      	negs	r5, r5
 8007a20:	f884 3043 	strb.w	r3, [r4, #67]	@ 0x43
 8007a24:	4859      	ldr	r0, [pc, #356]	@ (8007b8c <_printf_i+0x238>)
 8007a26:	230a      	movs	r3, #10
 8007a28:	e011      	b.n	8007a4e <_printf_i+0xfa>
 8007a2a:	6821      	ldr	r1, [r4, #0]
 8007a2c:	6833      	ldr	r3, [r6, #0]
 8007a2e:	0608      	lsls	r0, r1, #24
 8007a30:	f853 5b04 	ldr.w	r5, [r3], #4
 8007a34:	d402      	bmi.n	8007a3c <_printf_i+0xe8>
 8007a36:	0649      	lsls	r1, r1, #25
 8007a38:	bf48      	it	mi
 8007a3a:	b2ad      	uxthmi	r5, r5
 8007a3c:	2f6f      	cmp	r7, #111	@ 0x6f
 8007a3e:	4853      	ldr	r0, [pc, #332]	@ (8007b8c <_printf_i+0x238>)
 8007a40:	6033      	str	r3, [r6, #0]
 8007a42:	bf14      	ite	ne
 8007a44:	230a      	movne	r3, #10
 8007a46:	2308      	moveq	r3, #8
 8007a48:	2100      	movs	r1, #0
 8007a4a:	f884 1043 	strb.w	r1, [r4, #67]	@ 0x43
 8007a4e:	6866      	ldr	r6, [r4, #4]
 8007a50:	60a6      	str	r6, [r4, #8]
 8007a52:	2e00      	cmp	r6, #0
 8007a54:	bfa2      	ittt	ge
 8007a56:	6821      	ldrge	r1, [r4, #0]
 8007a58:	f021 0104 	bicge.w	r1, r1, #4
 8007a5c:	6021      	strge	r1, [r4, #0]
 8007a5e:	b90d      	cbnz	r5, 8007a64 <_printf_i+0x110>
 8007a60:	2e00      	cmp	r6, #0
 8007a62:	d04b      	beq.n	8007afc <_printf_i+0x1a8>
 8007a64:	4616      	mov	r6, r2
 8007a66:	fbb5 f1f3 	udiv	r1, r5, r3
 8007a6a:	fb03 5711 	mls	r7, r3, r1, r5
 8007a6e:	5dc7      	ldrb	r7, [r0, r7]
 8007a70:	f806 7d01 	strb.w	r7, [r6, #-1]!
 8007a74:	462f      	mov	r7, r5
 8007a76:	42bb      	cmp	r3, r7
 8007a78:	460d      	mov	r5, r1
 8007a7a:	d9f4      	bls.n	8007a66 <_printf_i+0x112>
 8007a7c:	2b08      	cmp	r3, #8
 8007a7e:	d10b      	bne.n	8007a98 <_printf_i+0x144>
 8007a80:	6823      	ldr	r3, [r4, #0]
 8007a82:	07df      	lsls	r7, r3, #31
 8007a84:	d508      	bpl.n	8007a98 <_printf_i+0x144>
 8007a86:	6923      	ldr	r3, [r4, #16]
 8007a88:	6861      	ldr	r1, [r4, #4]
 8007a8a:	4299      	cmp	r1, r3
 8007a8c:	bfde      	ittt	le
 8007a8e:	2330      	movle	r3, #48	@ 0x30
 8007a90:	f806 3c01 	strble.w	r3, [r6, #-1]
 8007a94:	f106 36ff 	addle.w	r6, r6, #4294967295
 8007a98:	1b92      	subs	r2, r2, r6
 8007a9a:	6122      	str	r2, [r4, #16]
 8007a9c:	f8cd a000 	str.w	sl, [sp]
 8007aa0:	464b      	mov	r3, r9
 8007aa2:	aa03      	add	r2, sp, #12
 8007aa4:	4621      	mov	r1, r4
 8007aa6:	4640      	mov	r0, r8
 8007aa8:	f7ff fee6 	bl	8007878 <_printf_common>
 8007aac:	3001      	adds	r0, #1
 8007aae:	d14a      	bne.n	8007b46 <_printf_i+0x1f2>
 8007ab0:	f04f 30ff 	mov.w	r0, #4294967295
 8007ab4:	b004      	add	sp, #16
 8007ab6:	e8bd 87f0 	ldmia.w	sp!, {r4, r5, r6, r7, r8, r9, sl, pc}
 8007aba:	6823      	ldr	r3, [r4, #0]
 8007abc:	f043 0320 	orr.w	r3, r3, #32
 8007ac0:	6023      	str	r3, [r4, #0]
 8007ac2:	4833      	ldr	r0, [pc, #204]	@ (8007b90 <_printf_i+0x23c>)
 8007ac4:	2778      	movs	r7, #120	@ 0x78
 8007ac6:	f884 7045 	strb.w	r7, [r4, #69]	@ 0x45
 8007aca:	6823      	ldr	r3, [r4, #0]
 8007acc:	6831      	ldr	r1, [r6, #0]
 8007ace:	061f      	lsls	r7, r3, #24
 8007ad0:	f851 5b04 	ldr.w	r5, [r1], #4
 8007ad4:	d402      	bmi.n	8007adc <_printf_i+0x188>
 8007ad6:	065f      	lsls	r7, r3, #25
 8007ad8:	bf48      	it	mi
 8007ada:	b2ad      	uxthmi	r5, r5
 8007adc:	6031      	str	r1, [r6, #0]
 8007ade:	07d9      	lsls	r1, r3, #31
 8007ae0:	bf44      	itt	mi
 8007ae2:	f043 0320 	orrmi.w	r3, r3, #32
 8007ae6:	6023      	strmi	r3, [r4, #0]
 8007ae8:	b11d      	cbz	r5, 8007af2 <_printf_i+0x19e>
 8007aea:	2310      	movs	r3, #16
 8007aec:	e7ac      	b.n	8007a48 <_printf_i+0xf4>
 8007aee:	4827      	ldr	r0, [pc, #156]	@ (8007b8c <_printf_i+0x238>)
 8007af0:	e7e9      	b.n	8007ac6 <_printf_i+0x172>
 8007af2:	6823      	ldr	r3, [r4, #0]
 8007af4:	f023 0320 	bic.w	r3, r3, #32
 8007af8:	6023      	str	r3, [r4, #0]
 8007afa:	e7f6      	b.n	8007aea <_printf_i+0x196>
 8007afc:	4616      	mov	r6, r2
 8007afe:	e7bd      	b.n	8007a7c <_printf_i+0x128>
 8007b00:	6833      	ldr	r3, [r6, #0]
 8007b02:	6825      	ldr	r5, [r4, #0]
 8007b04:	6961      	ldr	r1, [r4, #20]
 8007b06:	1d18      	adds	r0, r3, #4
 8007b08:	6030      	str	r0, [r6, #0]
 8007b0a:	062e      	lsls	r6, r5, #24
 8007b0c:	681b      	ldr	r3, [r3, #0]
 8007b0e:	d501      	bpl.n	8007b14 <_printf_i+0x1c0>
 8007b10:	6019      	str	r1, [r3, #0]
 8007b12:	e002      	b.n	8007b1a <_printf_i+0x1c6>
 8007b14:	0668      	lsls	r0, r5, #25
 8007b16:	d5fb      	bpl.n	8007b10 <_printf_i+0x1bc>
 8007b18:	8019      	strh	r1, [r3, #0]
 8007b1a:	2300      	movs	r3, #0
 8007b1c:	6123      	str	r3, [r4, #16]
 8007b1e:	4616      	mov	r6, r2
 8007b20:	e7bc      	b.n	8007a9c <_printf_i+0x148>
 8007b22:	6833      	ldr	r3, [r6, #0]
 8007b24:	1d1a      	adds	r2, r3, #4
 8007b26:	6032      	str	r2, [r6, #0]
 8007b28:	681e      	ldr	r6, [r3, #0]
 8007b2a:	6862      	ldr	r2, [r4, #4]
 8007b2c:	2100      	movs	r1, #0
 8007b2e:	4630      	mov	r0, r6
 8007b30:	f7f8 fb56 	bl	80001e0 <memchr>
 8007b34:	b108      	cbz	r0, 8007b3a <_printf_i+0x1e6>
 8007b36:	1b80      	subs	r0, r0, r6
 8007b38:	6060      	str	r0, [r4, #4]
 8007b3a:	6863      	ldr	r3, [r4, #4]
 8007b3c:	6123      	str	r3, [r4, #16]
 8007b3e:	2300      	movs	r3, #0
 8007b40:	f884 3043 	strb.w	r3, [r4, #67]	@ 0x43
 8007b44:	e7aa      	b.n	8007a9c <_printf_i+0x148>
 8007b46:	6923      	ldr	r3, [r4, #16]
 8007b48:	4632      	mov	r2, r6
 8007b4a:	4649      	mov	r1, r9
 8007b4c:	4640      	mov	r0, r8
 8007b4e:	47d0      	blx	sl
 8007b50:	3001      	adds	r0, #1
 8007b52:	d0ad      	beq.n	8007ab0 <_printf_i+0x15c>
 8007b54:	6823      	ldr	r3, [r4, #0]
 8007b56:	079b      	lsls	r3, r3, #30
 8007b58:	d413      	bmi.n	8007b82 <_printf_i+0x22e>
 8007b5a:	68e0      	ldr	r0, [r4, #12]
 8007b5c:	9b03      	ldr	r3, [sp, #12]
 8007b5e:	4298      	cmp	r0, r3
 8007b60:	bfb8      	it	lt
 8007b62:	4618      	movlt	r0, r3
 8007b64:	e7a6      	b.n	8007ab4 <_printf_i+0x160>
 8007b66:	2301      	movs	r3, #1
 8007b68:	4632      	mov	r2, r6
 8007b6a:	4649      	mov	r1, r9
 8007b6c:	4640      	mov	r0, r8
 8007b6e:	47d0      	blx	sl
 8007b70:	3001      	adds	r0, #1
 8007b72:	d09d      	beq.n	8007ab0 <_printf_i+0x15c>
 8007b74:	3501      	adds	r5, #1
 8007b76:	68e3      	ldr	r3, [r4, #12]
 8007b78:	9903      	ldr	r1, [sp, #12]
 8007b7a:	1a5b      	subs	r3, r3, r1
 8007b7c:	42ab      	cmp	r3, r5
 8007b7e:	dcf2      	bgt.n	8007b66 <_printf_i+0x212>
 8007b80:	e7eb      	b.n	8007b5a <_printf_i+0x206>
 8007b82:	2500      	movs	r5, #0
 8007b84:	f104 0619 	add.w	r6, r4, #25
 8007b88:	e7f5      	b.n	8007b76 <_printf_i+0x222>
 8007b8a:	bf00      	nop
 8007b8c:	0800b3b8 	.word	0x0800b3b8
 8007b90:	0800b3c9 	.word	0x0800b3c9

08007b94 <__sflush_r>:
 8007b94:	f9b1 200c 	ldrsh.w	r2, [r1, #12]
 8007b98:	e92d 41f0 	stmdb	sp!, {r4, r5, r6, r7, r8, lr}
 8007b9c:	0716      	lsls	r6, r2, #28
 8007b9e:	4605      	mov	r5, r0
 8007ba0:	460c      	mov	r4, r1
 8007ba2:	d454      	bmi.n	8007c4e <__sflush_r+0xba>
 8007ba4:	684b      	ldr	r3, [r1, #4]
 8007ba6:	2b00      	cmp	r3, #0
 8007ba8:	dc02      	bgt.n	8007bb0 <__sflush_r+0x1c>
 8007baa:	6c0b      	ldr	r3, [r1, #64]	@ 0x40
 8007bac:	2b00      	cmp	r3, #0
 8007bae:	dd48      	ble.n	8007c42 <__sflush_r+0xae>
 8007bb0:	6ae6      	ldr	r6, [r4, #44]	@ 0x2c
 8007bb2:	2e00      	cmp	r6, #0
 8007bb4:	d045      	beq.n	8007c42 <__sflush_r+0xae>
 8007bb6:	2300      	movs	r3, #0
 8007bb8:	f412 5280 	ands.w	r2, r2, #4096	@ 0x1000
 8007bbc:	682f      	ldr	r7, [r5, #0]
 8007bbe:	6a21      	ldr	r1, [r4, #32]
 8007bc0:	602b      	str	r3, [r5, #0]
 8007bc2:	d030      	beq.n	8007c26 <__sflush_r+0x92>
 8007bc4:	6d62      	ldr	r2, [r4, #84]	@ 0x54
 8007bc6:	89a3      	ldrh	r3, [r4, #12]
 8007bc8:	0759      	lsls	r1, r3, #29
 8007bca:	d505      	bpl.n	8007bd8 <__sflush_r+0x44>
 8007bcc:	6863      	ldr	r3, [r4, #4]
 8007bce:	1ad2      	subs	r2, r2, r3
 8007bd0:	6b63      	ldr	r3, [r4, #52]	@ 0x34
 8007bd2:	b10b      	cbz	r3, 8007bd8 <__sflush_r+0x44>
 8007bd4:	6c23      	ldr	r3, [r4, #64]	@ 0x40
 8007bd6:	1ad2      	subs	r2, r2, r3
 8007bd8:	2300      	movs	r3, #0
 8007bda:	6ae6      	ldr	r6, [r4, #44]	@ 0x2c
 8007bdc:	6a21      	ldr	r1, [r4, #32]
 8007bde:	4628      	mov	r0, r5
 8007be0:	47b0      	blx	r6
 8007be2:	1c43      	adds	r3, r0, #1
 8007be4:	89a3      	ldrh	r3, [r4, #12]
 8007be6:	d106      	bne.n	8007bf6 <__sflush_r+0x62>
 8007be8:	6829      	ldr	r1, [r5, #0]
 8007bea:	291d      	cmp	r1, #29
 8007bec:	d82b      	bhi.n	8007c46 <__sflush_r+0xb2>
 8007bee:	4a2a      	ldr	r2, [pc, #168]	@ (8007c98 <__sflush_r+0x104>)
 8007bf0:	410a      	asrs	r2, r1
 8007bf2:	07d6      	lsls	r6, r2, #31
 8007bf4:	d427      	bmi.n	8007c46 <__sflush_r+0xb2>
 8007bf6:	2200      	movs	r2, #0
 8007bf8:	6062      	str	r2, [r4, #4]
 8007bfa:	04d9      	lsls	r1, r3, #19
 8007bfc:	6922      	ldr	r2, [r4, #16]
 8007bfe:	6022      	str	r2, [r4, #0]
 8007c00:	d504      	bpl.n	8007c0c <__sflush_r+0x78>
 8007c02:	1c42      	adds	r2, r0, #1
 8007c04:	d101      	bne.n	8007c0a <__sflush_r+0x76>
 8007c06:	682b      	ldr	r3, [r5, #0]
 8007c08:	b903      	cbnz	r3, 8007c0c <__sflush_r+0x78>
 8007c0a:	6560      	str	r0, [r4, #84]	@ 0x54
 8007c0c:	6b61      	ldr	r1, [r4, #52]	@ 0x34
 8007c0e:	602f      	str	r7, [r5, #0]
 8007c10:	b1b9      	cbz	r1, 8007c42 <__sflush_r+0xae>
 8007c12:	f104 0344 	add.w	r3, r4, #68	@ 0x44
 8007c16:	4299      	cmp	r1, r3
 8007c18:	d002      	beq.n	8007c20 <__sflush_r+0x8c>
 8007c1a:	4628      	mov	r0, r5
 8007c1c:	f7ff fbd4 	bl	80073c8 <_free_r>
 8007c20:	2300      	movs	r3, #0
 8007c22:	6363      	str	r3, [r4, #52]	@ 0x34
 8007c24:	e00d      	b.n	8007c42 <__sflush_r+0xae>
 8007c26:	2301      	movs	r3, #1
 8007c28:	4628      	mov	r0, r5
 8007c2a:	47b0      	blx	r6
 8007c2c:	4602      	mov	r2, r0
 8007c2e:	1c50      	adds	r0, r2, #1
 8007c30:	d1c9      	bne.n	8007bc6 <__sflush_r+0x32>
 8007c32:	682b      	ldr	r3, [r5, #0]
 8007c34:	2b00      	cmp	r3, #0
 8007c36:	d0c6      	beq.n	8007bc6 <__sflush_r+0x32>
 8007c38:	2b1d      	cmp	r3, #29
 8007c3a:	d001      	beq.n	8007c40 <__sflush_r+0xac>
 8007c3c:	2b16      	cmp	r3, #22
 8007c3e:	d11e      	bne.n	8007c7e <__sflush_r+0xea>
 8007c40:	602f      	str	r7, [r5, #0]
 8007c42:	2000      	movs	r0, #0
 8007c44:	e022      	b.n	8007c8c <__sflush_r+0xf8>
 8007c46:	f043 0340 	orr.w	r3, r3, #64	@ 0x40
 8007c4a:	b21b      	sxth	r3, r3
 8007c4c:	e01b      	b.n	8007c86 <__sflush_r+0xf2>
 8007c4e:	690f      	ldr	r7, [r1, #16]
 8007c50:	2f00      	cmp	r7, #0
 8007c52:	d0f6      	beq.n	8007c42 <__sflush_r+0xae>
 8007c54:	0793      	lsls	r3, r2, #30
 8007c56:	680e      	ldr	r6, [r1, #0]
 8007c58:	bf08      	it	eq
 8007c5a:	694b      	ldreq	r3, [r1, #20]
 8007c5c:	600f      	str	r7, [r1, #0]
 8007c5e:	bf18      	it	ne
 8007c60:	2300      	movne	r3, #0
 8007c62:	eba6 0807 	sub.w	r8, r6, r7
 8007c66:	608b      	str	r3, [r1, #8]
 8007c68:	f1b8 0f00 	cmp.w	r8, #0
 8007c6c:	dde9      	ble.n	8007c42 <__sflush_r+0xae>
 8007c6e:	6a21      	ldr	r1, [r4, #32]
 8007c70:	6aa6      	ldr	r6, [r4, #40]	@ 0x28
 8007c72:	4643      	mov	r3, r8
 8007c74:	463a      	mov	r2, r7
 8007c76:	4628      	mov	r0, r5
 8007c78:	47b0      	blx	r6
 8007c7a:	2800      	cmp	r0, #0
 8007c7c:	dc08      	bgt.n	8007c90 <__sflush_r+0xfc>
 8007c7e:	f9b4 300c 	ldrsh.w	r3, [r4, #12]
 8007c82:	f043 0340 	orr.w	r3, r3, #64	@ 0x40
 8007c86:	81a3      	strh	r3, [r4, #12]
 8007c88:	f04f 30ff 	mov.w	r0, #4294967295
 8007c8c:	e8bd 81f0 	ldmia.w	sp!, {r4, r5, r6, r7, r8, pc}
 8007c90:	4407      	add	r7, r0
 8007c92:	eba8 0800 	sub.w	r8, r8, r0
 8007c96:	e7e7      	b.n	8007c68 <__sflush_r+0xd4>
 8007c98:	dfbffffe 	.word	0xdfbffffe

08007c9c <_fflush_r>:
 8007c9c:	b538      	push	{r3, r4, r5, lr}
 8007c9e:	690b      	ldr	r3, [r1, #16]
 8007ca0:	4605      	mov	r5, r0
 8007ca2:	460c      	mov	r4, r1
 8007ca4:	b913      	cbnz	r3, 8007cac <_fflush_r+0x10>
 8007ca6:	2500      	movs	r5, #0
 8007ca8:	4628      	mov	r0, r5
 8007caa:	bd38      	pop	{r3, r4, r5, pc}
 8007cac:	b118      	cbz	r0, 8007cb6 <_fflush_r+0x1a>
 8007cae:	6a03      	ldr	r3, [r0, #32]
 8007cb0:	b90b      	cbnz	r3, 8007cb6 <_fflush_r+0x1a>
 8007cb2:	f7ff f9e9 	bl	8007088 <__sinit>
 8007cb6:	f9b4 300c 	ldrsh.w	r3, [r4, #12]
 8007cba:	2b00      	cmp	r3, #0
 8007cbc:	d0f3      	beq.n	8007ca6 <_fflush_r+0xa>
 8007cbe:	6e62      	ldr	r2, [r4, #100]	@ 0x64
 8007cc0:	07d0      	lsls	r0, r2, #31
 8007cc2:	d404      	bmi.n	8007cce <_fflush_r+0x32>
 8007cc4:	0599      	lsls	r1, r3, #22
 8007cc6:	d402      	bmi.n	8007cce <_fflush_r+0x32>
 8007cc8:	6da0      	ldr	r0, [r4, #88]	@ 0x58
 8007cca:	f7ff fb4e 	bl	800736a <__retarget_lock_acquire_recursive>
 8007cce:	4628      	mov	r0, r5
 8007cd0:	4621      	mov	r1, r4
 8007cd2:	f7ff ff5f 	bl	8007b94 <__sflush_r>
 8007cd6:	6e63      	ldr	r3, [r4, #100]	@ 0x64
 8007cd8:	07da      	lsls	r2, r3, #31
 8007cda:	4605      	mov	r5, r0
 8007cdc:	d4e4      	bmi.n	8007ca8 <_fflush_r+0xc>
 8007cde:	89a3      	ldrh	r3, [r4, #12]
 8007ce0:	059b      	lsls	r3, r3, #22
 8007ce2:	d4e1      	bmi.n	8007ca8 <_fflush_r+0xc>
 8007ce4:	6da0      	ldr	r0, [r4, #88]	@ 0x58
 8007ce6:	f7ff fb41 	bl	800736c <__retarget_lock_release_recursive>
 8007cea:	e7dd      	b.n	8007ca8 <_fflush_r+0xc>

08007cec <fiprintf>:
 8007cec:	b40e      	push	{r1, r2, r3}
 8007cee:	b503      	push	{r0, r1, lr}
 8007cf0:	4601      	mov	r1, r0
 8007cf2:	ab03      	add	r3, sp, #12
 8007cf4:	4805      	ldr	r0, [pc, #20]	@ (8007d0c <fiprintf+0x20>)
 8007cf6:	f853 2b04 	ldr.w	r2, [r3], #4
 8007cfa:	6800      	ldr	r0, [r0, #0]
 8007cfc:	9301      	str	r3, [sp, #4]
 8007cfe:	f000 f88f 	bl	8007e20 <_vfiprintf_r>
 8007d02:	b002      	add	sp, #8
 8007d04:	f85d eb04 	ldr.w	lr, [sp], #4
 8007d08:	b003      	add	sp, #12
 8007d0a:	4770      	bx	lr
 8007d0c:	20000020 	.word	0x20000020

08007d10 <memmove>:
 8007d10:	4288      	cmp	r0, r1
 8007d12:	b510      	push	{r4, lr}
 8007d14:	eb01 0402 	add.w	r4, r1, r2
 8007d18:	d902      	bls.n	8007d20 <memmove+0x10>
 8007d1a:	4284      	cmp	r4, r0
 8007d1c:	4623      	mov	r3, r4
 8007d1e:	d807      	bhi.n	8007d30 <memmove+0x20>
 8007d20:	1e43      	subs	r3, r0, #1
 8007d22:	42a1      	cmp	r1, r4
 8007d24:	d008      	beq.n	8007d38 <memmove+0x28>
 8007d26:	f811 2b01 	ldrb.w	r2, [r1], #1
 8007d2a:	f803 2f01 	strb.w	r2, [r3, #1]!
 8007d2e:	e7f8      	b.n	8007d22 <memmove+0x12>
 8007d30:	4402      	add	r2, r0
 8007d32:	4601      	mov	r1, r0
 8007d34:	428a      	cmp	r2, r1
 8007d36:	d100      	bne.n	8007d3a <memmove+0x2a>
 8007d38:	bd10      	pop	{r4, pc}
 8007d3a:	f813 4d01 	ldrb.w	r4, [r3, #-1]!
 8007d3e:	f802 4d01 	strb.w	r4, [r2, #-1]!
 8007d42:	e7f7      	b.n	8007d34 <memmove+0x24>

08007d44 <_sbrk_r>:
 8007d44:	b538      	push	{r3, r4, r5, lr}
 8007d46:	4d06      	ldr	r5, [pc, #24]	@ (8007d60 <_sbrk_r+0x1c>)
 8007d48:	2300      	movs	r3, #0
 8007d4a:	4604      	mov	r4, r0
 8007d4c:	4608      	mov	r0, r1
 8007d4e:	602b      	str	r3, [r5, #0]
 8007d50:	f7fa f802 	bl	8001d58 <_sbrk>
 8007d54:	1c43      	adds	r3, r0, #1
 8007d56:	d102      	bne.n	8007d5e <_sbrk_r+0x1a>
 8007d58:	682b      	ldr	r3, [r5, #0]
 8007d5a:	b103      	cbz	r3, 8007d5e <_sbrk_r+0x1a>
 8007d5c:	6023      	str	r3, [r4, #0]
 8007d5e:	bd38      	pop	{r3, r4, r5, pc}
 8007d60:	20000504 	.word	0x20000504

08007d64 <abort>:
 8007d64:	b508      	push	{r3, lr}
 8007d66:	2006      	movs	r0, #6
 8007d68:	f000 fa2e 	bl	80081c8 <raise>
 8007d6c:	2001      	movs	r0, #1
 8007d6e:	f7f9 ff7b 	bl	8001c68 <_exit>

08007d72 <_realloc_r>:
 8007d72:	e92d 41f0 	stmdb	sp!, {r4, r5, r6, r7, r8, lr}
 8007d76:	4680      	mov	r8, r0
 8007d78:	4615      	mov	r5, r2
 8007d7a:	460c      	mov	r4, r1
 8007d7c:	b921      	cbnz	r1, 8007d88 <_realloc_r+0x16>
 8007d7e:	e8bd 41f0 	ldmia.w	sp!, {r4, r5, r6, r7, r8, lr}
 8007d82:	4611      	mov	r1, r2
 8007d84:	f7ff bb94 	b.w	80074b0 <_malloc_r>
 8007d88:	b92a      	cbnz	r2, 8007d96 <_realloc_r+0x24>
 8007d8a:	f7ff fb1d 	bl	80073c8 <_free_r>
 8007d8e:	2400      	movs	r4, #0
 8007d90:	4620      	mov	r0, r4
 8007d92:	e8bd 81f0 	ldmia.w	sp!, {r4, r5, r6, r7, r8, pc}
 8007d96:	f000 fa33 	bl	8008200 <_malloc_usable_size_r>
 8007d9a:	4285      	cmp	r5, r0
 8007d9c:	4606      	mov	r6, r0
 8007d9e:	d802      	bhi.n	8007da6 <_realloc_r+0x34>
 8007da0:	ebb5 0f50 	cmp.w	r5, r0, lsr #1
 8007da4:	d8f4      	bhi.n	8007d90 <_realloc_r+0x1e>
 8007da6:	4629      	mov	r1, r5
 8007da8:	4640      	mov	r0, r8
 8007daa:	f7ff fb81 	bl	80074b0 <_malloc_r>
 8007dae:	4607      	mov	r7, r0
 8007db0:	2800      	cmp	r0, #0
 8007db2:	d0ec      	beq.n	8007d8e <_realloc_r+0x1c>
 8007db4:	42b5      	cmp	r5, r6
 8007db6:	462a      	mov	r2, r5
 8007db8:	4621      	mov	r1, r4
 8007dba:	bf28      	it	cs
 8007dbc:	4632      	movcs	r2, r6
 8007dbe:	f7ff fad6 	bl	800736e <memcpy>
 8007dc2:	4621      	mov	r1, r4
 8007dc4:	4640      	mov	r0, r8
 8007dc6:	f7ff faff 	bl	80073c8 <_free_r>
 8007dca:	463c      	mov	r4, r7
 8007dcc:	e7e0      	b.n	8007d90 <_realloc_r+0x1e>

08007dce <__sfputc_r>:
 8007dce:	6893      	ldr	r3, [r2, #8]
 8007dd0:	3b01      	subs	r3, #1
 8007dd2:	2b00      	cmp	r3, #0
 8007dd4:	b410      	push	{r4}
 8007dd6:	6093      	str	r3, [r2, #8]
 8007dd8:	da08      	bge.n	8007dec <__sfputc_r+0x1e>
 8007dda:	6994      	ldr	r4, [r2, #24]
 8007ddc:	42a3      	cmp	r3, r4
 8007dde:	db01      	blt.n	8007de4 <__sfputc_r+0x16>
 8007de0:	290a      	cmp	r1, #10
 8007de2:	d103      	bne.n	8007dec <__sfputc_r+0x1e>
 8007de4:	f85d 4b04 	ldr.w	r4, [sp], #4
 8007de8:	f000 b932 	b.w	8008050 <__swbuf_r>
 8007dec:	6813      	ldr	r3, [r2, #0]
 8007dee:	1c58      	adds	r0, r3, #1
 8007df0:	6010      	str	r0, [r2, #0]
 8007df2:	7019      	strb	r1, [r3, #0]
 8007df4:	4608      	mov	r0, r1
 8007df6:	f85d 4b04 	ldr.w	r4, [sp], #4
 8007dfa:	4770      	bx	lr

08007dfc <__sfputs_r>:
 8007dfc:	b5f8      	push	{r3, r4, r5, r6, r7, lr}
 8007dfe:	4606      	mov	r6, r0
 8007e00:	460f      	mov	r7, r1
 8007e02:	4614      	mov	r4, r2
 8007e04:	18d5      	adds	r5, r2, r3
 8007e06:	42ac      	cmp	r4, r5
 8007e08:	d101      	bne.n	8007e0e <__sfputs_r+0x12>
 8007e0a:	2000      	movs	r0, #0
 8007e0c:	e007      	b.n	8007e1e <__sfputs_r+0x22>
 8007e0e:	f814 1b01 	ldrb.w	r1, [r4], #1
 8007e12:	463a      	mov	r2, r7
 8007e14:	4630      	mov	r0, r6
 8007e16:	f7ff ffda 	bl	8007dce <__sfputc_r>
 8007e1a:	1c43      	adds	r3, r0, #1
 8007e1c:	d1f3      	bne.n	8007e06 <__sfputs_r+0xa>
 8007e1e:	bdf8      	pop	{r3, r4, r5, r6, r7, pc}

08007e20 <_vfiprintf_r>:
 8007e20:	e92d 4ff0 	stmdb	sp!, {r4, r5, r6, r7, r8, r9, sl, fp, lr}
 8007e24:	460d      	mov	r5, r1
 8007e26:	b09d      	sub	sp, #116	@ 0x74
 8007e28:	4614      	mov	r4, r2
 8007e2a:	4698      	mov	r8, r3
 8007e2c:	4606      	mov	r6, r0
 8007e2e:	b118      	cbz	r0, 8007e38 <_vfiprintf_r+0x18>
 8007e30:	6a03      	ldr	r3, [r0, #32]
 8007e32:	b90b      	cbnz	r3, 8007e38 <_vfiprintf_r+0x18>
 8007e34:	f7ff f928 	bl	8007088 <__sinit>
 8007e38:	6e6b      	ldr	r3, [r5, #100]	@ 0x64
 8007e3a:	07d9      	lsls	r1, r3, #31
 8007e3c:	d405      	bmi.n	8007e4a <_vfiprintf_r+0x2a>
 8007e3e:	89ab      	ldrh	r3, [r5, #12]
 8007e40:	059a      	lsls	r2, r3, #22
 8007e42:	d402      	bmi.n	8007e4a <_vfiprintf_r+0x2a>
 8007e44:	6da8      	ldr	r0, [r5, #88]	@ 0x58
 8007e46:	f7ff fa90 	bl	800736a <__retarget_lock_acquire_recursive>
 8007e4a:	89ab      	ldrh	r3, [r5, #12]
 8007e4c:	071b      	lsls	r3, r3, #28
 8007e4e:	d501      	bpl.n	8007e54 <_vfiprintf_r+0x34>
 8007e50:	692b      	ldr	r3, [r5, #16]
 8007e52:	b99b      	cbnz	r3, 8007e7c <_vfiprintf_r+0x5c>
 8007e54:	4629      	mov	r1, r5
 8007e56:	4630      	mov	r0, r6
 8007e58:	f000 f938 	bl	80080cc <__swsetup_r>
 8007e5c:	b170      	cbz	r0, 8007e7c <_vfiprintf_r+0x5c>
 8007e5e:	6e6b      	ldr	r3, [r5, #100]	@ 0x64
 8007e60:	07dc      	lsls	r4, r3, #31
 8007e62:	d504      	bpl.n	8007e6e <_vfiprintf_r+0x4e>
 8007e64:	f04f 30ff 	mov.w	r0, #4294967295
 8007e68:	b01d      	add	sp, #116	@ 0x74
 8007e6a:	e8bd 8ff0 	ldmia.w	sp!, {r4, r5, r6, r7, r8, r9, sl, fp, pc}
 8007e6e:	89ab      	ldrh	r3, [r5, #12]
 8007e70:	0598      	lsls	r0, r3, #22
 8007e72:	d4f7      	bmi.n	8007e64 <_vfiprintf_r+0x44>
 8007e74:	6da8      	ldr	r0, [r5, #88]	@ 0x58
 8007e76:	f7ff fa79 	bl	800736c <__retarget_lock_release_recursive>
 8007e7a:	e7f3      	b.n	8007e64 <_vfiprintf_r+0x44>
 8007e7c:	2300      	movs	r3, #0
 8007e7e:	9309      	str	r3, [sp, #36]	@ 0x24
 8007e80:	2320      	movs	r3, #32
 8007e82:	f88d 3029 	strb.w	r3, [sp, #41]	@ 0x29
 8007e86:	f8cd 800c 	str.w	r8, [sp, #12]
 8007e8a:	2330      	movs	r3, #48	@ 0x30
 8007e8c:	f8df 81ac 	ldr.w	r8, [pc, #428]	@ 800803c <_vfiprintf_r+0x21c>
 8007e90:	f88d 302a 	strb.w	r3, [sp, #42]	@ 0x2a
 8007e94:	f04f 0901 	mov.w	r9, #1
 8007e98:	4623      	mov	r3, r4
 8007e9a:	469a      	mov	sl, r3
 8007e9c:	f813 2b01 	ldrb.w	r2, [r3], #1
 8007ea0:	b10a      	cbz	r2, 8007ea6 <_vfiprintf_r+0x86>
 8007ea2:	2a25      	cmp	r2, #37	@ 0x25
 8007ea4:	d1f9      	bne.n	8007e9a <_vfiprintf_r+0x7a>
 8007ea6:	ebba 0b04 	subs.w	fp, sl, r4
 8007eaa:	d00b      	beq.n	8007ec4 <_vfiprintf_r+0xa4>
 8007eac:	465b      	mov	r3, fp
 8007eae:	4622      	mov	r2, r4
 8007eb0:	4629      	mov	r1, r5
 8007eb2:	4630      	mov	r0, r6
 8007eb4:	f7ff ffa2 	bl	8007dfc <__sfputs_r>
 8007eb8:	3001      	adds	r0, #1
 8007eba:	f000 80a7 	beq.w	800800c <_vfiprintf_r+0x1ec>
 8007ebe:	9a09      	ldr	r2, [sp, #36]	@ 0x24
 8007ec0:	445a      	add	r2, fp
 8007ec2:	9209      	str	r2, [sp, #36]	@ 0x24
 8007ec4:	f89a 3000 	ldrb.w	r3, [sl]
 8007ec8:	2b00      	cmp	r3, #0
 8007eca:	f000 809f 	beq.w	800800c <_vfiprintf_r+0x1ec>
 8007ece:	2300      	movs	r3, #0
 8007ed0:	f04f 32ff 	mov.w	r2, #4294967295
 8007ed4:	e9cd 2305 	strd	r2, r3, [sp, #20]
 8007ed8:	f10a 0a01 	add.w	sl, sl, #1
 8007edc:	9304      	str	r3, [sp, #16]
 8007ede:	9307      	str	r3, [sp, #28]
 8007ee0:	f88d 3053 	strb.w	r3, [sp, #83]	@ 0x53
 8007ee4:	931a      	str	r3, [sp, #104]	@ 0x68
 8007ee6:	4654      	mov	r4, sl
 8007ee8:	2205      	movs	r2, #5
 8007eea:	f814 1b01 	ldrb.w	r1, [r4], #1
 8007eee:	4853      	ldr	r0, [pc, #332]	@ (800803c <_vfiprintf_r+0x21c>)
 8007ef0:	f7f8 f976 	bl	80001e0 <memchr>
 8007ef4:	9a04      	ldr	r2, [sp, #16]
 8007ef6:	b9d8      	cbnz	r0, 8007f30 <_vfiprintf_r+0x110>
 8007ef8:	06d1      	lsls	r1, r2, #27
 8007efa:	bf44      	itt	mi
 8007efc:	2320      	movmi	r3, #32
 8007efe:	f88d 3053 	strbmi.w	r3, [sp, #83]	@ 0x53
 8007f02:	0713      	lsls	r3, r2, #28
 8007f04:	bf44      	itt	mi
 8007f06:	232b      	movmi	r3, #43	@ 0x2b
 8007f08:	f88d 3053 	strbmi.w	r3, [sp, #83]	@ 0x53
 8007f0c:	f89a 3000 	ldrb.w	r3, [sl]
 8007f10:	2b2a      	cmp	r3, #42	@ 0x2a
 8007f12:	d015      	beq.n	8007f40 <_vfiprintf_r+0x120>
 8007f14:	9a07      	ldr	r2, [sp, #28]
 8007f16:	4654      	mov	r4, sl
 8007f18:	2000      	movs	r0, #0
 8007f1a:	f04f 0c0a 	mov.w	ip, #10
 8007f1e:	4621      	mov	r1, r4
 8007f20:	f811 3b01 	ldrb.w	r3, [r1], #1
 8007f24:	3b30      	subs	r3, #48	@ 0x30
 8007f26:	2b09      	cmp	r3, #9
 8007f28:	d94b      	bls.n	8007fc2 <_vfiprintf_r+0x1a2>
 8007f2a:	b1b0      	cbz	r0, 8007f5a <_vfiprintf_r+0x13a>
 8007f2c:	9207      	str	r2, [sp, #28]
 8007f2e:	e014      	b.n	8007f5a <_vfiprintf_r+0x13a>
 8007f30:	eba0 0308 	sub.w	r3, r0, r8
 8007f34:	fa09 f303 	lsl.w	r3, r9, r3
 8007f38:	4313      	orrs	r3, r2
 8007f3a:	9304      	str	r3, [sp, #16]
 8007f3c:	46a2      	mov	sl, r4
 8007f3e:	e7d2      	b.n	8007ee6 <_vfiprintf_r+0xc6>
 8007f40:	9b03      	ldr	r3, [sp, #12]
 8007f42:	1d19      	adds	r1, r3, #4
 8007f44:	681b      	ldr	r3, [r3, #0]
 8007f46:	9103      	str	r1, [sp, #12]
 8007f48:	2b00      	cmp	r3, #0
 8007f4a:	bfbb      	ittet	lt
 8007f4c:	425b      	neglt	r3, r3
 8007f4e:	f042 0202 	orrlt.w	r2, r2, #2
 8007f52:	9307      	strge	r3, [sp, #28]
 8007f54:	9307      	strlt	r3, [sp, #28]
 8007f56:	bfb8      	it	lt
 8007f58:	9204      	strlt	r2, [sp, #16]
 8007f5a:	7823      	ldrb	r3, [r4, #0]
 8007f5c:	2b2e      	cmp	r3, #46	@ 0x2e
 8007f5e:	d10a      	bne.n	8007f76 <_vfiprintf_r+0x156>
 8007f60:	7863      	ldrb	r3, [r4, #1]
 8007f62:	2b2a      	cmp	r3, #42	@ 0x2a
 8007f64:	d132      	bne.n	8007fcc <_vfiprintf_r+0x1ac>
 8007f66:	9b03      	ldr	r3, [sp, #12]
 8007f68:	1d1a      	adds	r2, r3, #4
 8007f6a:	681b      	ldr	r3, [r3, #0]
 8007f6c:	9203      	str	r2, [sp, #12]
 8007f6e:	ea43 73e3 	orr.w	r3, r3, r3, asr #31
 8007f72:	3402      	adds	r4, #2
 8007f74:	9305      	str	r3, [sp, #20]
 8007f76:	f8df a0d4 	ldr.w	sl, [pc, #212]	@ 800804c <_vfiprintf_r+0x22c>
 8007f7a:	7821      	ldrb	r1, [r4, #0]
 8007f7c:	2203      	movs	r2, #3
 8007f7e:	4650      	mov	r0, sl
 8007f80:	f7f8 f92e 	bl	80001e0 <memchr>
 8007f84:	b138      	cbz	r0, 8007f96 <_vfiprintf_r+0x176>
 8007f86:	9b04      	ldr	r3, [sp, #16]
 8007f88:	eba0 000a 	sub.w	r0, r0, sl
 8007f8c:	2240      	movs	r2, #64	@ 0x40
 8007f8e:	4082      	lsls	r2, r0
 8007f90:	4313      	orrs	r3, r2
 8007f92:	3401      	adds	r4, #1
 8007f94:	9304      	str	r3, [sp, #16]
 8007f96:	f814 1b01 	ldrb.w	r1, [r4], #1
 8007f9a:	4829      	ldr	r0, [pc, #164]	@ (8008040 <_vfiprintf_r+0x220>)
 8007f9c:	f88d 1028 	strb.w	r1, [sp, #40]	@ 0x28
 8007fa0:	2206      	movs	r2, #6
 8007fa2:	f7f8 f91d 	bl	80001e0 <memchr>
 8007fa6:	2800      	cmp	r0, #0
 8007fa8:	d03f      	beq.n	800802a <_vfiprintf_r+0x20a>
 8007faa:	4b26      	ldr	r3, [pc, #152]	@ (8008044 <_vfiprintf_r+0x224>)
 8007fac:	bb1b      	cbnz	r3, 8007ff6 <_vfiprintf_r+0x1d6>
 8007fae:	9b03      	ldr	r3, [sp, #12]
 8007fb0:	3307      	adds	r3, #7
 8007fb2:	f023 0307 	bic.w	r3, r3, #7
 8007fb6:	3308      	adds	r3, #8
 8007fb8:	9303      	str	r3, [sp, #12]
 8007fba:	9b09      	ldr	r3, [sp, #36]	@ 0x24
 8007fbc:	443b      	add	r3, r7
 8007fbe:	9309      	str	r3, [sp, #36]	@ 0x24
 8007fc0:	e76a      	b.n	8007e98 <_vfiprintf_r+0x78>
 8007fc2:	fb0c 3202 	mla	r2, ip, r2, r3
 8007fc6:	460c      	mov	r4, r1
 8007fc8:	2001      	movs	r0, #1
 8007fca:	e7a8      	b.n	8007f1e <_vfiprintf_r+0xfe>
 8007fcc:	2300      	movs	r3, #0
 8007fce:	3401      	adds	r4, #1
 8007fd0:	9305      	str	r3, [sp, #20]
 8007fd2:	4619      	mov	r1, r3
 8007fd4:	f04f 0c0a 	mov.w	ip, #10
 8007fd8:	4620      	mov	r0, r4
 8007fda:	f810 2b01 	ldrb.w	r2, [r0], #1
 8007fde:	3a30      	subs	r2, #48	@ 0x30
 8007fe0:	2a09      	cmp	r2, #9
 8007fe2:	d903      	bls.n	8007fec <_vfiprintf_r+0x1cc>
 8007fe4:	2b00      	cmp	r3, #0
 8007fe6:	d0c6      	beq.n	8007f76 <_vfiprintf_r+0x156>
 8007fe8:	9105      	str	r1, [sp, #20]
 8007fea:	e7c4      	b.n	8007f76 <_vfiprintf_r+0x156>
 8007fec:	fb0c 2101 	mla	r1, ip, r1, r2
 8007ff0:	4604      	mov	r4, r0
 8007ff2:	2301      	movs	r3, #1
 8007ff4:	e7f0      	b.n	8007fd8 <_vfiprintf_r+0x1b8>
 8007ff6:	ab03      	add	r3, sp, #12
 8007ff8:	9300      	str	r3, [sp, #0]
 8007ffa:	462a      	mov	r2, r5
 8007ffc:	4b12      	ldr	r3, [pc, #72]	@ (8008048 <_vfiprintf_r+0x228>)
 8007ffe:	a904      	add	r1, sp, #16
 8008000:	4630      	mov	r0, r6
 8008002:	f3af 8000 	nop.w
 8008006:	4607      	mov	r7, r0
 8008008:	1c78      	adds	r0, r7, #1
 800800a:	d1d6      	bne.n	8007fba <_vfiprintf_r+0x19a>
 800800c:	6e6b      	ldr	r3, [r5, #100]	@ 0x64
 800800e:	07d9      	lsls	r1, r3, #31
 8008010:	d405      	bmi.n	800801e <_vfiprintf_r+0x1fe>
 8008012:	89ab      	ldrh	r3, [r5, #12]
 8008014:	059a      	lsls	r2, r3, #22
 8008016:	d402      	bmi.n	800801e <_vfiprintf_r+0x1fe>
 8008018:	6da8      	ldr	r0, [r5, #88]	@ 0x58
 800801a:	f7ff f9a7 	bl	800736c <__retarget_lock_release_recursive>
 800801e:	89ab      	ldrh	r3, [r5, #12]
 8008020:	065b      	lsls	r3, r3, #25
 8008022:	f53f af1f 	bmi.w	8007e64 <_vfiprintf_r+0x44>
 8008026:	9809      	ldr	r0, [sp, #36]	@ 0x24
 8008028:	e71e      	b.n	8007e68 <_vfiprintf_r+0x48>
 800802a:	ab03      	add	r3, sp, #12
 800802c:	9300      	str	r3, [sp, #0]
 800802e:	462a      	mov	r2, r5
 8008030:	4b05      	ldr	r3, [pc, #20]	@ (8008048 <_vfiprintf_r+0x228>)
 8008032:	a904      	add	r1, sp, #16
 8008034:	4630      	mov	r0, r6
 8008036:	f7ff fc8d 	bl	8007954 <_printf_i>
 800803a:	e7e4      	b.n	8008006 <_vfiprintf_r+0x1e6>
 800803c:	0800b3a7 	.word	0x0800b3a7
 8008040:	0800b3b1 	.word	0x0800b3b1
 8008044:	00000000 	.word	0x00000000
 8008048:	08007dfd 	.word	0x08007dfd
 800804c:	0800b3ad 	.word	0x0800b3ad

08008050 <__swbuf_r>:
 8008050:	b5f8      	push	{r3, r4, r5, r6, r7, lr}
 8008052:	460e      	mov	r6, r1
 8008054:	4614      	mov	r4, r2
 8008056:	4605      	mov	r5, r0
 8008058:	b118      	cbz	r0, 8008062 <__swbuf_r+0x12>
 800805a:	6a03      	ldr	r3, [r0, #32]
 800805c:	b90b      	cbnz	r3, 8008062 <__swbuf_r+0x12>
 800805e:	f7ff f813 	bl	8007088 <__sinit>
 8008062:	69a3      	ldr	r3, [r4, #24]
 8008064:	60a3      	str	r3, [r4, #8]
 8008066:	89a3      	ldrh	r3, [r4, #12]
 8008068:	071a      	lsls	r2, r3, #28
 800806a:	d501      	bpl.n	8008070 <__swbuf_r+0x20>
 800806c:	6923      	ldr	r3, [r4, #16]
 800806e:	b943      	cbnz	r3, 8008082 <__swbuf_r+0x32>
 8008070:	4621      	mov	r1, r4
 8008072:	4628      	mov	r0, r5
 8008074:	f000 f82a 	bl	80080cc <__swsetup_r>
 8008078:	b118      	cbz	r0, 8008082 <__swbuf_r+0x32>
 800807a:	f04f 37ff 	mov.w	r7, #4294967295
 800807e:	4638      	mov	r0, r7
 8008080:	bdf8      	pop	{r3, r4, r5, r6, r7, pc}
 8008082:	6823      	ldr	r3, [r4, #0]
 8008084:	6922      	ldr	r2, [r4, #16]
 8008086:	1a98      	subs	r0, r3, r2
 8008088:	6963      	ldr	r3, [r4, #20]
 800808a:	b2f6      	uxtb	r6, r6
 800808c:	4283      	cmp	r3, r0
 800808e:	4637      	mov	r7, r6
 8008090:	dc05      	bgt.n	800809e <__swbuf_r+0x4e>
 8008092:	4621      	mov	r1, r4
 8008094:	4628      	mov	r0, r5
 8008096:	f7ff fe01 	bl	8007c9c <_fflush_r>
 800809a:	2800      	cmp	r0, #0
 800809c:	d1ed      	bne.n	800807a <__swbuf_r+0x2a>
 800809e:	68a3      	ldr	r3, [r4, #8]
 80080a0:	3b01      	subs	r3, #1
 80080a2:	60a3      	str	r3, [r4, #8]
 80080a4:	6823      	ldr	r3, [r4, #0]
 80080a6:	1c5a      	adds	r2, r3, #1
 80080a8:	6022      	str	r2, [r4, #0]
 80080aa:	701e      	strb	r6, [r3, #0]
 80080ac:	6962      	ldr	r2, [r4, #20]
 80080ae:	1c43      	adds	r3, r0, #1
 80080b0:	429a      	cmp	r2, r3
 80080b2:	d004      	beq.n	80080be <__swbuf_r+0x6e>
 80080b4:	89a3      	ldrh	r3, [r4, #12]
 80080b6:	07db      	lsls	r3, r3, #31
 80080b8:	d5e1      	bpl.n	800807e <__swbuf_r+0x2e>
 80080ba:	2e0a      	cmp	r6, #10
 80080bc:	d1df      	bne.n	800807e <__swbuf_r+0x2e>
 80080be:	4621      	mov	r1, r4
 80080c0:	4628      	mov	r0, r5
 80080c2:	f7ff fdeb 	bl	8007c9c <_fflush_r>
 80080c6:	2800      	cmp	r0, #0
 80080c8:	d0d9      	beq.n	800807e <__swbuf_r+0x2e>
 80080ca:	e7d6      	b.n	800807a <__swbuf_r+0x2a>

080080cc <__swsetup_r>:
 80080cc:	b538      	push	{r3, r4, r5, lr}
 80080ce:	4b29      	ldr	r3, [pc, #164]	@ (8008174 <__swsetup_r+0xa8>)
 80080d0:	4605      	mov	r5, r0
 80080d2:	6818      	ldr	r0, [r3, #0]
 80080d4:	460c      	mov	r4, r1
 80080d6:	b118      	cbz	r0, 80080e0 <__swsetup_r+0x14>
 80080d8:	6a03      	ldr	r3, [r0, #32]
 80080da:	b90b      	cbnz	r3, 80080e0 <__swsetup_r+0x14>
 80080dc:	f7fe ffd4 	bl	8007088 <__sinit>
 80080e0:	f9b4 300c 	ldrsh.w	r3, [r4, #12]
 80080e4:	0719      	lsls	r1, r3, #28
 80080e6:	d422      	bmi.n	800812e <__swsetup_r+0x62>
 80080e8:	06da      	lsls	r2, r3, #27
 80080ea:	d407      	bmi.n	80080fc <__swsetup_r+0x30>
 80080ec:	2209      	movs	r2, #9
 80080ee:	602a      	str	r2, [r5, #0]
 80080f0:	f043 0340 	orr.w	r3, r3, #64	@ 0x40
 80080f4:	81a3      	strh	r3, [r4, #12]
 80080f6:	f04f 30ff 	mov.w	r0, #4294967295
 80080fa:	e033      	b.n	8008164 <__swsetup_r+0x98>
 80080fc:	0758      	lsls	r0, r3, #29
 80080fe:	d512      	bpl.n	8008126 <__swsetup_r+0x5a>
 8008100:	6b61      	ldr	r1, [r4, #52]	@ 0x34
 8008102:	b141      	cbz	r1, 8008116 <__swsetup_r+0x4a>
 8008104:	f104 0344 	add.w	r3, r4, #68	@ 0x44
 8008108:	4299      	cmp	r1, r3
 800810a:	d002      	beq.n	8008112 <__swsetup_r+0x46>
 800810c:	4628      	mov	r0, r5
 800810e:	f7ff f95b 	bl	80073c8 <_free_r>
 8008112:	2300      	movs	r3, #0
 8008114:	6363      	str	r3, [r4, #52]	@ 0x34
 8008116:	89a3      	ldrh	r3, [r4, #12]
 8008118:	f023 0324 	bic.w	r3, r3, #36	@ 0x24
 800811c:	81a3      	strh	r3, [r4, #12]
 800811e:	2300      	movs	r3, #0
 8008120:	6063      	str	r3, [r4, #4]
 8008122:	6923      	ldr	r3, [r4, #16]
 8008124:	6023      	str	r3, [r4, #0]
 8008126:	89a3      	ldrh	r3, [r4, #12]
 8008128:	f043 0308 	orr.w	r3, r3, #8
 800812c:	81a3      	strh	r3, [r4, #12]
 800812e:	6923      	ldr	r3, [r4, #16]
 8008130:	b94b      	cbnz	r3, 8008146 <__swsetup_r+0x7a>
 8008132:	89a3      	ldrh	r3, [r4, #12]
 8008134:	f403 7320 	and.w	r3, r3, #640	@ 0x280
 8008138:	f5b3 7f00 	cmp.w	r3, #512	@ 0x200
 800813c:	d003      	beq.n	8008146 <__swsetup_r+0x7a>
 800813e:	4621      	mov	r1, r4
 8008140:	4628      	mov	r0, r5
 8008142:	f000 f88b 	bl	800825c <__smakebuf_r>
 8008146:	f9b4 300c 	ldrsh.w	r3, [r4, #12]
 800814a:	f013 0201 	ands.w	r2, r3, #1
 800814e:	d00a      	beq.n	8008166 <__swsetup_r+0x9a>
 8008150:	2200      	movs	r2, #0
 8008152:	60a2      	str	r2, [r4, #8]
 8008154:	6962      	ldr	r2, [r4, #20]
 8008156:	4252      	negs	r2, r2
 8008158:	61a2      	str	r2, [r4, #24]
 800815a:	6922      	ldr	r2, [r4, #16]
 800815c:	b942      	cbnz	r2, 8008170 <__swsetup_r+0xa4>
 800815e:	f013 0080 	ands.w	r0, r3, #128	@ 0x80
 8008162:	d1c5      	bne.n	80080f0 <__swsetup_r+0x24>
 8008164:	bd38      	pop	{r3, r4, r5, pc}
 8008166:	0799      	lsls	r1, r3, #30
 8008168:	bf58      	it	pl
 800816a:	6962      	ldrpl	r2, [r4, #20]
 800816c:	60a2      	str	r2, [r4, #8]
 800816e:	e7f4      	b.n	800815a <__swsetup_r+0x8e>
 8008170:	2000      	movs	r0, #0
 8008172:	e7f7      	b.n	8008164 <__swsetup_r+0x98>
 8008174:	20000020 	.word	0x20000020

08008178 <_raise_r>:
 8008178:	291f      	cmp	r1, #31
 800817a:	b538      	push	{r3, r4, r5, lr}
 800817c:	4605      	mov	r5, r0
 800817e:	460c      	mov	r4, r1
 8008180:	d904      	bls.n	800818c <_raise_r+0x14>
 8008182:	2316      	movs	r3, #22
 8008184:	6003      	str	r3, [r0, #0]
 8008186:	f04f 30ff 	mov.w	r0, #4294967295
 800818a:	bd38      	pop	{r3, r4, r5, pc}
 800818c:	6bc2      	ldr	r2, [r0, #60]	@ 0x3c
 800818e:	b112      	cbz	r2, 8008196 <_raise_r+0x1e>
 8008190:	f852 3021 	ldr.w	r3, [r2, r1, lsl #2]
 8008194:	b94b      	cbnz	r3, 80081aa <_raise_r+0x32>
 8008196:	4628      	mov	r0, r5
 8008198:	f000 f830 	bl	80081fc <_getpid_r>
 800819c:	4622      	mov	r2, r4
 800819e:	4601      	mov	r1, r0
 80081a0:	4628      	mov	r0, r5
 80081a2:	e8bd 4038 	ldmia.w	sp!, {r3, r4, r5, lr}
 80081a6:	f000 b817 	b.w	80081d8 <_kill_r>
 80081aa:	2b01      	cmp	r3, #1
 80081ac:	d00a      	beq.n	80081c4 <_raise_r+0x4c>
 80081ae:	1c59      	adds	r1, r3, #1
 80081b0:	d103      	bne.n	80081ba <_raise_r+0x42>
 80081b2:	2316      	movs	r3, #22
 80081b4:	6003      	str	r3, [r0, #0]
 80081b6:	2001      	movs	r0, #1
 80081b8:	e7e7      	b.n	800818a <_raise_r+0x12>
 80081ba:	2100      	movs	r1, #0
 80081bc:	f842 1024 	str.w	r1, [r2, r4, lsl #2]
 80081c0:	4620      	mov	r0, r4
 80081c2:	4798      	blx	r3
 80081c4:	2000      	movs	r0, #0
 80081c6:	e7e0      	b.n	800818a <_raise_r+0x12>

080081c8 <raise>:
 80081c8:	4b02      	ldr	r3, [pc, #8]	@ (80081d4 <raise+0xc>)
 80081ca:	4601      	mov	r1, r0
 80081cc:	6818      	ldr	r0, [r3, #0]
 80081ce:	f7ff bfd3 	b.w	8008178 <_raise_r>
 80081d2:	bf00      	nop
 80081d4:	20000020 	.word	0x20000020

080081d8 <_kill_r>:
 80081d8:	b538      	push	{r3, r4, r5, lr}
 80081da:	4d07      	ldr	r5, [pc, #28]	@ (80081f8 <_kill_r+0x20>)
 80081dc:	2300      	movs	r3, #0
 80081de:	4604      	mov	r4, r0
 80081e0:	4608      	mov	r0, r1
 80081e2:	4611      	mov	r1, r2
 80081e4:	602b      	str	r3, [r5, #0]
 80081e6:	f7f9 fd2f 	bl	8001c48 <_kill>
 80081ea:	1c43      	adds	r3, r0, #1
 80081ec:	d102      	bne.n	80081f4 <_kill_r+0x1c>
 80081ee:	682b      	ldr	r3, [r5, #0]
 80081f0:	b103      	cbz	r3, 80081f4 <_kill_r+0x1c>
 80081f2:	6023      	str	r3, [r4, #0]
 80081f4:	bd38      	pop	{r3, r4, r5, pc}
 80081f6:	bf00      	nop
 80081f8:	20000504 	.word	0x20000504

080081fc <_getpid_r>:
 80081fc:	f7f9 bd1c 	b.w	8001c38 <_getpid>

08008200 <_malloc_usable_size_r>:
 8008200:	f851 3c04 	ldr.w	r3, [r1, #-4]
 8008204:	1f18      	subs	r0, r3, #4
 8008206:	2b00      	cmp	r3, #0
 8008208:	bfbc      	itt	lt
 800820a:	580b      	ldrlt	r3, [r1, r0]
 800820c:	18c0      	addlt	r0, r0, r3
 800820e:	4770      	bx	lr

08008210 <__swhatbuf_r>:
 8008210:	b570      	push	{r4, r5, r6, lr}
 8008212:	460c      	mov	r4, r1
 8008214:	f9b1 100e 	ldrsh.w	r1, [r1, #14]
 8008218:	2900      	cmp	r1, #0
 800821a:	b096      	sub	sp, #88	@ 0x58
 800821c:	4615      	mov	r5, r2
 800821e:	461e      	mov	r6, r3
 8008220:	da0d      	bge.n	800823e <__swhatbuf_r+0x2e>
 8008222:	89a3      	ldrh	r3, [r4, #12]
 8008224:	f013 0f80 	tst.w	r3, #128	@ 0x80
 8008228:	f04f 0100 	mov.w	r1, #0
 800822c:	bf14      	ite	ne
 800822e:	2340      	movne	r3, #64	@ 0x40
 8008230:	f44f 6380 	moveq.w	r3, #1024	@ 0x400
 8008234:	2000      	movs	r0, #0
 8008236:	6031      	str	r1, [r6, #0]
 8008238:	602b      	str	r3, [r5, #0]
 800823a:	b016      	add	sp, #88	@ 0x58
 800823c:	bd70      	pop	{r4, r5, r6, pc}
 800823e:	466a      	mov	r2, sp
 8008240:	f000 f848 	bl	80082d4 <_fstat_r>
 8008244:	2800      	cmp	r0, #0
 8008246:	dbec      	blt.n	8008222 <__swhatbuf_r+0x12>
 8008248:	9901      	ldr	r1, [sp, #4]
 800824a:	f401 4170 	and.w	r1, r1, #61440	@ 0xf000
 800824e:	f5a1 5300 	sub.w	r3, r1, #8192	@ 0x2000
 8008252:	4259      	negs	r1, r3
 8008254:	4159      	adcs	r1, r3
 8008256:	f44f 6380 	mov.w	r3, #1024	@ 0x400
 800825a:	e7eb      	b.n	8008234 <__swhatbuf_r+0x24>

0800825c <__smakebuf_r>:
 800825c:	898b      	ldrh	r3, [r1, #12]
 800825e:	b5f7      	push	{r0, r1, r2, r4, r5, r6, r7, lr}
 8008260:	079d      	lsls	r5, r3, #30
 8008262:	4606      	mov	r6, r0
 8008264:	460c      	mov	r4, r1
 8008266:	d507      	bpl.n	8008278 <__smakebuf_r+0x1c>
 8008268:	f104 0347 	add.w	r3, r4, #71	@ 0x47
 800826c:	6023      	str	r3, [r4, #0]
 800826e:	6123      	str	r3, [r4, #16]
 8008270:	2301      	movs	r3, #1
 8008272:	6163      	str	r3, [r4, #20]
 8008274:	b003      	add	sp, #12
 8008276:	bdf0      	pop	{r4, r5, r6, r7, pc}
 8008278:	ab01      	add	r3, sp, #4
 800827a:	466a      	mov	r2, sp
 800827c:	f7ff ffc8 	bl	8008210 <__swhatbuf_r>
 8008280:	9f00      	ldr	r7, [sp, #0]
 8008282:	4605      	mov	r5, r0
 8008284:	4639      	mov	r1, r7
 8008286:	4630      	mov	r0, r6
 8008288:	f7ff f912 	bl	80074b0 <_malloc_r>
 800828c:	b948      	cbnz	r0, 80082a2 <__smakebuf_r+0x46>
 800828e:	f9b4 300c 	ldrsh.w	r3, [r4, #12]
 8008292:	059a      	lsls	r2, r3, #22
 8008294:	d4ee      	bmi.n	8008274 <__smakebuf_r+0x18>
 8008296:	f023 0303 	bic.w	r3, r3, #3
 800829a:	f043 0302 	orr.w	r3, r3, #2
 800829e:	81a3      	strh	r3, [r4, #12]
 80082a0:	e7e2      	b.n	8008268 <__smakebuf_r+0xc>
 80082a2:	89a3      	ldrh	r3, [r4, #12]
 80082a4:	6020      	str	r0, [r4, #0]
 80082a6:	f043 0380 	orr.w	r3, r3, #128	@ 0x80
 80082aa:	81a3      	strh	r3, [r4, #12]
 80082ac:	9b01      	ldr	r3, [sp, #4]
 80082ae:	e9c4 0704 	strd	r0, r7, [r4, #16]
 80082b2:	b15b      	cbz	r3, 80082cc <__smakebuf_r+0x70>
 80082b4:	f9b4 100e 	ldrsh.w	r1, [r4, #14]
 80082b8:	4630      	mov	r0, r6
 80082ba:	f000 f81d 	bl	80082f8 <_isatty_r>
 80082be:	b128      	cbz	r0, 80082cc <__smakebuf_r+0x70>
 80082c0:	89a3      	ldrh	r3, [r4, #12]
 80082c2:	f023 0303 	bic.w	r3, r3, #3
 80082c6:	f043 0301 	orr.w	r3, r3, #1
 80082ca:	81a3      	strh	r3, [r4, #12]
 80082cc:	89a3      	ldrh	r3, [r4, #12]
 80082ce:	431d      	orrs	r5, r3
 80082d0:	81a5      	strh	r5, [r4, #12]
 80082d2:	e7cf      	b.n	8008274 <__smakebuf_r+0x18>

080082d4 <_fstat_r>:
 80082d4:	b538      	push	{r3, r4, r5, lr}
 80082d6:	4d07      	ldr	r5, [pc, #28]	@ (80082f4 <_fstat_r+0x20>)
 80082d8:	2300      	movs	r3, #0
 80082da:	4604      	mov	r4, r0
 80082dc:	4608      	mov	r0, r1
 80082de:	4611      	mov	r1, r2
 80082e0:	602b      	str	r3, [r5, #0]
 80082e2:	f7f9 fd11 	bl	8001d08 <_fstat>
 80082e6:	1c43      	adds	r3, r0, #1
 80082e8:	d102      	bne.n	80082f0 <_fstat_r+0x1c>
 80082ea:	682b      	ldr	r3, [r5, #0]
 80082ec:	b103      	cbz	r3, 80082f0 <_fstat_r+0x1c>
 80082ee:	6023      	str	r3, [r4, #0]
 80082f0:	bd38      	pop	{r3, r4, r5, pc}
 80082f2:	bf00      	nop
 80082f4:	20000504 	.word	0x20000504

080082f8 <_isatty_r>:
 80082f8:	b538      	push	{r3, r4, r5, lr}
 80082fa:	4d06      	ldr	r5, [pc, #24]	@ (8008314 <_isatty_r+0x1c>)
 80082fc:	2300      	movs	r3, #0
 80082fe:	4604      	mov	r4, r0
 8008300:	4608      	mov	r0, r1
 8008302:	602b      	str	r3, [r5, #0]
 8008304:	f7f9 fd10 	bl	8001d28 <_isatty>
 8008308:	1c43      	adds	r3, r0, #1
 800830a:	d102      	bne.n	8008312 <_isatty_r+0x1a>
 800830c:	682b      	ldr	r3, [r5, #0]
 800830e:	b103      	cbz	r3, 8008312 <_isatty_r+0x1a>
 8008310:	6023      	str	r3, [r4, #0]
 8008312:	bd38      	pop	{r3, r4, r5, pc}
 8008314:	20000504 	.word	0x20000504

08008318 <_gettimeofday>:
 8008318:	4b02      	ldr	r3, [pc, #8]	@ (8008324 <_gettimeofday+0xc>)
 800831a:	2258      	movs	r2, #88	@ 0x58
 800831c:	601a      	str	r2, [r3, #0]
 800831e:	f04f 30ff 	mov.w	r0, #4294967295
 8008322:	4770      	bx	lr
 8008324:	20000504 	.word	0x20000504

08008328 <_init>:
 8008328:	b5f8      	push	{r3, r4, r5, r6, r7, lr}
 800832a:	bf00      	nop
 800832c:	bcf8      	pop	{r3, r4, r5, r6, r7}
 800832e:	bc08      	pop	{r3}
 8008330:	469e      	mov	lr, r3
 8008332:	4770      	bx	lr

08008334 <_fini>:
 8008334:	b5f8      	push	{r3, r4, r5, r6, r7, lr}
 8008336:	bf00      	nop
 8008338:	bcf8      	pop	{r3, r4, r5, r6, r7}
 800833a:	bc08      	pop	{r3}
 800833c:	469e      	mov	lr, r3
 800833e:	4770      	bx	lr
